
/mnt/share/RC016/output/module/boot.or32:     file format elf32-or32


Disassembly of section .reset:

06000000 <__reset_s>:
 6000000:	00 01 00 00 	l.j 6040000 <_flash_dummy_code+0x30010>

06000004 <_lma_start>:
 6000004:	00 00 00 00 	l.j 6000004 <_lma_start>

06000008 <_reset_lma_s>:
 6000008:	06 00 00 00 	l.jal fe000008 <gptMsgDebug+0xdfebda0>

0600000c <_reset_lma_e>:
 600000c:	06 00 0f a0 	l.jal fe003e8c <gptMsgDebug+0xdfefc24>

06000010 <_text_lma_s>:
 6000010:	06 00 15 00 	l.jal fe005410 <gptMsgDebug+0xdff11a8>

06000014 <_text_lma_e>:
 6000014:	06 00 4e 00 	l.jal fe013814 <gptMsgDebug+0xdfff5ac>

06000018 <_ispm_text_lma_s>:
 6000018:	06 00 4e 00 	l.jal fe013818 <gptMsgDebug+0xdfff5b0>

0600001c <_ispm_text_lma_e>:
 600001c:	06 00 58 40 	l.jal fe01611c <gptMsgDebug+0xe001eb4>

06000020 <_ispm_data_lma_s>:
 6000020:	06 00 58 40 	l.jal fe016120 <gptMsgDebug+0xe001eb8>

06000024 <_ispm_data_lma_e>:
 6000024:	06 00 58 40 	l.jal fe016124 <gptMsgDebug+0xe001ebc>

06000028 <_rodata_lma_s>:
 6000028:	06 00 0f a0 	l.jal fe003ea8 <gptMsgDebug+0xdfefc40>

0600002c <_rodata_lma_e>:
 600002c:	06 00 15 00 	l.jal fe00542c <gptMsgDebug+0xdff11c4>

06000030 <_data_lma_s>:
 6000030:	06 00 58 40 	l.jal fe016130 <gptMsgDebug+0xe001ec8>

06000034 <_data_lma_e>:
 6000034:	06 00 58 e0 	l.jal fe0163b4 <gptMsgDebug+0xe00214c>

06000038 <_reset_s>:
 6000038:	06 00 00 00 	l.jal fe000038 <gptMsgDebug+0xdfebdd0>

0600003c <_reset_e>:
 600003c:	06 00 0f a0 	l.jal fe003ebc <gptMsgDebug+0xdfefc54>

06000040 <_text_s>:
 6000040:	06 00 15 00 	l.jal fe005440 <gptMsgDebug+0xdff11d8>

06000044 <_text_e>:
 6000044:	06 00 4e 00 	l.jal fe013844 <gptMsgDebug+0xdfff5dc>

06000048 <_ispm_text_s>:
 6000048:	04 00 74 00 	l.jal 601d048 <_flash_dummy_code+0xd058>

0600004c <_ispm_text_e>:
 600004c:	04 00 7e 40 	l.jal 601f94c <_flash_dummy_code+0xf95c>

06000050 <_ispm_data_s>:
 6000050:	04 00 7e 40 	l.jal 601f950 <_flash_dummy_code+0xf960>

06000054 <_ispm_data_e>:
 6000054:	04 00 7e 40 	l.jal 601f954 <_flash_dummy_code+0xf964>

06000058 <_rodata_s>:
 6000058:	06 00 0f a0 	l.jal fe003ed8 <gptMsgDebug+0xdfefc70>

0600005c <_rodata_e>:
 600005c:	06 00 15 00 	l.jal fe00545c <gptMsgDebug+0xdff11f4>

06000060 <_data_s>:
 6000060:	04 00 7e 40 	l.jal 601f960 <_flash_dummy_code+0xf970>

06000064 <_data_e>:
 6000064:	04 00 7e e0 	l.jal 601fbe4 <_flash_dummy_code+0xfbf4>

06000068 <_bss_s>:
 6000068:	04 00 7e e0 	l.jal 601fbe8 <_flash_dummy_code+0xfbf8>

0600006c <_bss_e>:
 600006c:	04 00 7f 40 	l.jal 601fd6c <_flash_dummy_code+0xfd7c>

06000070 <_stack_s>:
 6000070:	04 00 73 fc 	l.jal 601d060 <_flash_dummy_code+0xd070>

06000074 <_stack_e>:
 6000074:	04 00 64 00 	l.jal 6019074 <_flash_dummy_code+0x9084>
	...

06000100 <_reset>:
 6000100:	15 00 00 00 	l.nop 0x0
 6000104:	a4 00 00 00 	l.andi r0,r0,0x0
 6000108:	a4 20 00 00 	l.andi r1,r0,0x0
 600010c:	a4 40 00 00 	l.andi r2,r0,0x0
 6000110:	a4 60 00 00 	l.andi r3,r0,0x0
 6000114:	a4 80 00 00 	l.andi r4,r0,0x0
 6000118:	a4 a0 00 00 	l.andi r5,r0,0x0
 600011c:	a4 c0 00 00 	l.andi r6,r0,0x0
 6000120:	a4 e0 00 00 	l.andi r7,r0,0x0
 6000124:	a5 00 00 00 	l.andi r8,r0,0x0
 6000128:	a5 20 00 00 	l.andi r9,r0,0x0
 600012c:	a5 40 00 00 	l.andi r10,r0,0x0
 6000130:	a5 60 00 00 	l.andi r11,r0,0x0
 6000134:	a5 80 00 00 	l.andi r12,r0,0x0
 6000138:	a5 a0 00 00 	l.andi r13,r0,0x0
 600013c:	a5 c0 00 00 	l.andi r14,r0,0x0
 6000140:	a5 e0 00 00 	l.andi r15,r0,0x0
 6000144:	a6 00 00 00 	l.andi r16,r0,0x0
 6000148:	a6 20 00 00 	l.andi r17,r0,0x0
 600014c:	a6 40 00 00 	l.andi r18,r0,0x0
 6000150:	a6 60 00 00 	l.andi r19,r0,0x0
 6000154:	a6 80 00 00 	l.andi r20,r0,0x0
 6000158:	a6 a0 00 00 	l.andi r21,r0,0x0
 600015c:	a6 c0 00 00 	l.andi r22,r0,0x0
 6000160:	a6 e0 00 00 	l.andi r23,r0,0x0
 6000164:	a7 00 00 00 	l.andi r24,r0,0x0
 6000168:	a7 20 00 00 	l.andi r25,r0,0x0
 600016c:	a7 40 00 00 	l.andi r26,r0,0x0
 6000170:	a7 60 00 00 	l.andi r27,r0,0x0
 6000174:	a7 80 00 00 	l.andi r28,r0,0x0
 6000178:	a7 a0 00 00 	l.andi r29,r0,0x0
 600017c:	a7 c0 00 00 	l.andi r30,r0,0x0
 6000180:	a7 e0 00 00 	l.andi r31,r0,0x0

06000184 <_jump_start>:
 6000184:	18 60 06 00 	l.movhi r3,0x600
 6000188:	a8 63 15 00 	l.ori r3,r3,0x1500
 600018c:	44 00 18 00 	l.jr r3
 6000190:	15 00 00 00 	l.nop 0x0
 6000194:	15 00 00 00 	l.nop 0x0
 6000198:	15 00 00 00 	l.nop 0x0
 600019c:	15 00 00 00 	l.nop 0x0
 60001a0:	15 00 00 00 	l.nop 0x0
 60001a4:	15 00 00 00 	l.nop 0x0
 60001a8:	15 00 00 00 	l.nop 0x0
 60001ac:	15 00 00 00 	l.nop 0x0
 60001b0:	15 00 00 00 	l.nop 0x0
 60001b4:	15 00 00 00 	l.nop 0x0
	...
 6000200:	9c 21 ff 00 	l.addi r1,r1,0xffffff00
 6000204:	d4 01 48 1c 	l.sw 0x1c(r1),r9
 6000208:	04 00 03 15 	l.jal 6000e5c <_save_gpr>
 600020c:	15 00 00 00 	l.nop 0x0
 6000210:	b4 60 00 10 	l.mfspr r3,r0,0x10
 6000214:	b4 80 00 20 	l.mfspr r4,r0,0x20
 6000218:	07 80 1c 7a 	l.jal 4007400 <__ram_size>
 600021c:	15 00 00 00 	l.nop 0x0
 6000220:	04 00 03 2e 	l.jal 6000ed8 <_restore_gpr>
 6000224:	15 00 00 00 	l.nop 0x0
 6000228:	85 21 00 1c 	l.lwz r9,0x1c(r1)
 600022c:	9c 21 01 00 	l.addi r1,r1,0x100
 6000230:	24 00 00 00 	l.rfe 
 6000234:	15 00 00 00 	l.nop 0x0
 6000238:	15 00 00 00 	l.nop 0x0
 600023c:	15 00 00 00 	l.nop 0x0
 6000240:	15 00 00 00 	l.nop 0x0
 6000244:	15 00 00 00 	l.nop 0x0
 6000248:	15 00 00 00 	l.nop 0x0
 600024c:	15 00 00 00 	l.nop 0x0
 6000250:	15 00 00 00 	l.nop 0x0
 6000254:	15 00 00 00 	l.nop 0x0
 6000258:	15 00 00 00 	l.nop 0x0
	...
 6000300:	9c 21 ff 00 	l.addi r1,r1,0xffffff00
 6000304:	d4 01 48 1c 	l.sw 0x1c(r1),r9
 6000308:	04 00 02 d5 	l.jal 6000e5c <_save_gpr>
 600030c:	15 00 00 00 	l.nop 0x0
 6000310:	b4 60 00 10 	l.mfspr r3,r0,0x10
 6000314:	b4 80 00 20 	l.mfspr r4,r0,0x20
 6000318:	07 80 1c 3a 	l.jal 4007400 <__ram_size>
 600031c:	15 00 00 00 	l.nop 0x0
 6000320:	04 00 02 ee 	l.jal 6000ed8 <_restore_gpr>
 6000324:	15 00 00 00 	l.nop 0x0
 6000328:	85 21 00 1c 	l.lwz r9,0x1c(r1)
 600032c:	9c 21 01 00 	l.addi r1,r1,0x100
 6000330:	24 00 00 00 	l.rfe 
 6000334:	15 00 00 00 	l.nop 0x0
 6000338:	15 00 00 00 	l.nop 0x0
 600033c:	15 00 00 00 	l.nop 0x0
 6000340:	15 00 00 00 	l.nop 0x0
 6000344:	15 00 00 00 	l.nop 0x0
 6000348:	15 00 00 00 	l.nop 0x0
 600034c:	15 00 00 00 	l.nop 0x0
 6000350:	15 00 00 00 	l.nop 0x0
 6000354:	15 00 00 00 	l.nop 0x0
 6000358:	15 00 00 00 	l.nop 0x0
	...
 6000400:	9c 21 ff 00 	l.addi r1,r1,0xffffff00
 6000404:	d4 01 48 1c 	l.sw 0x1c(r1),r9
 6000408:	04 00 02 95 	l.jal 6000e5c <_save_gpr>
 600040c:	15 00 00 00 	l.nop 0x0
 6000410:	b4 60 00 10 	l.mfspr r3,r0,0x10
 6000414:	b4 80 00 20 	l.mfspr r4,r0,0x20
 6000418:	07 80 1b fa 	l.jal 4007400 <__ram_size>
 600041c:	15 00 00 00 	l.nop 0x0
 6000420:	04 00 02 ae 	l.jal 6000ed8 <_restore_gpr>
 6000424:	15 00 00 00 	l.nop 0x0
 6000428:	85 21 00 1c 	l.lwz r9,0x1c(r1)
 600042c:	9c 21 01 00 	l.addi r1,r1,0x100
 6000430:	24 00 00 00 	l.rfe 
 6000434:	15 00 00 00 	l.nop 0x0
 6000438:	15 00 00 00 	l.nop 0x0
 600043c:	15 00 00 00 	l.nop 0x0
 6000440:	15 00 00 00 	l.nop 0x0
 6000444:	15 00 00 00 	l.nop 0x0
 6000448:	15 00 00 00 	l.nop 0x0
 600044c:	15 00 00 00 	l.nop 0x0
 6000450:	15 00 00 00 	l.nop 0x0
 6000454:	15 00 00 00 	l.nop 0x0
 6000458:	15 00 00 00 	l.nop 0x0
	...
 6000500:	9c 21 ff 00 	l.addi r1,r1,0xffffff00
 6000504:	d4 01 48 1c 	l.sw 0x1c(r1),r9
 6000508:	04 00 02 55 	l.jal 6000e5c <_save_gpr>
 600050c:	15 00 00 00 	l.nop 0x0
 6000510:	b4 60 00 10 	l.mfspr r3,r0,0x10
 6000514:	b4 80 00 20 	l.mfspr r4,r0,0x20
 6000518:	07 80 1b ba 	l.jal 4007400 <__ram_size>
 600051c:	15 00 00 00 	l.nop 0x0
 6000520:	04 00 02 6e 	l.jal 6000ed8 <_restore_gpr>
 6000524:	15 00 00 00 	l.nop 0x0
 6000528:	85 21 00 1c 	l.lwz r9,0x1c(r1)
 600052c:	9c 21 01 00 	l.addi r1,r1,0x100
 6000530:	24 00 00 00 	l.rfe 
 6000534:	15 00 00 00 	l.nop 0x0
 6000538:	15 00 00 00 	l.nop 0x0
 600053c:	15 00 00 00 	l.nop 0x0
 6000540:	15 00 00 00 	l.nop 0x0
 6000544:	15 00 00 00 	l.nop 0x0
 6000548:	15 00 00 00 	l.nop 0x0
 600054c:	15 00 00 00 	l.nop 0x0
 6000550:	15 00 00 00 	l.nop 0x0
 6000554:	15 00 00 00 	l.nop 0x0
 6000558:	15 00 00 00 	l.nop 0x0
	...
 6000600:	9c 21 ff 00 	l.addi r1,r1,0xffffff00
 6000604:	d4 01 48 1c 	l.sw 0x1c(r1),r9
 6000608:	04 00 02 15 	l.jal 6000e5c <_save_gpr>
 600060c:	15 00 00 00 	l.nop 0x0
 6000610:	b4 60 00 10 	l.mfspr r3,r0,0x10
 6000614:	b4 80 00 20 	l.mfspr r4,r0,0x20
 6000618:	07 80 1b 7a 	l.jal 4007400 <__ram_size>
 600061c:	15 00 00 00 	l.nop 0x0
 6000620:	04 00 02 2e 	l.jal 6000ed8 <_restore_gpr>
 6000624:	15 00 00 00 	l.nop 0x0
 6000628:	85 21 00 1c 	l.lwz r9,0x1c(r1)
 600062c:	9c 21 01 00 	l.addi r1,r1,0x100
 6000630:	24 00 00 00 	l.rfe 
 6000634:	15 00 00 00 	l.nop 0x0
 6000638:	15 00 00 00 	l.nop 0x0
 600063c:	15 00 00 00 	l.nop 0x0
 6000640:	15 00 00 00 	l.nop 0x0
 6000644:	15 00 00 00 	l.nop 0x0
 6000648:	15 00 00 00 	l.nop 0x0
 600064c:	15 00 00 00 	l.nop 0x0
 6000650:	15 00 00 00 	l.nop 0x0
 6000654:	15 00 00 00 	l.nop 0x0
 6000658:	15 00 00 00 	l.nop 0x0
	...
 6000700:	9c 21 ff 00 	l.addi r1,r1,0xffffff00
 6000704:	d4 01 48 1c 	l.sw 0x1c(r1),r9
 6000708:	04 00 01 d5 	l.jal 6000e5c <_save_gpr>
 600070c:	15 00 00 00 	l.nop 0x0
 6000710:	b4 60 00 10 	l.mfspr r3,r0,0x10
 6000714:	b4 80 00 20 	l.mfspr r4,r0,0x20
 6000718:	07 80 1b 3a 	l.jal 4007400 <__ram_size>
 600071c:	15 00 00 00 	l.nop 0x0
 6000720:	04 00 01 ee 	l.jal 6000ed8 <_restore_gpr>
 6000724:	15 00 00 00 	l.nop 0x0
 6000728:	85 21 00 1c 	l.lwz r9,0x1c(r1)
 600072c:	9c 21 01 00 	l.addi r1,r1,0x100
 6000730:	24 00 00 00 	l.rfe 
 6000734:	15 00 00 00 	l.nop 0x0
 6000738:	15 00 00 00 	l.nop 0x0
 600073c:	15 00 00 00 	l.nop 0x0
 6000740:	15 00 00 00 	l.nop 0x0
 6000744:	15 00 00 00 	l.nop 0x0
 6000748:	15 00 00 00 	l.nop 0x0
 600074c:	15 00 00 00 	l.nop 0x0
 6000750:	15 00 00 00 	l.nop 0x0
 6000754:	15 00 00 00 	l.nop 0x0
 6000758:	15 00 00 00 	l.nop 0x0
	...
 6000800:	9c 21 ff 00 	l.addi r1,r1,0xffffff00
 6000804:	d4 01 48 1c 	l.sw 0x1c(r1),r9
 6000808:	04 00 01 95 	l.jal 6000e5c <_save_gpr>
 600080c:	15 00 00 00 	l.nop 0x0
 6000810:	b4 60 00 10 	l.mfspr r3,r0,0x10
 6000814:	b4 80 00 20 	l.mfspr r4,r0,0x20
 6000818:	07 80 1a fa 	l.jal 4007400 <__ram_size>
 600081c:	15 00 00 00 	l.nop 0x0
 6000820:	04 00 01 ae 	l.jal 6000ed8 <_restore_gpr>
 6000824:	15 00 00 00 	l.nop 0x0
 6000828:	85 21 00 1c 	l.lwz r9,0x1c(r1)
 600082c:	9c 21 01 00 	l.addi r1,r1,0x100
 6000830:	24 00 00 00 	l.rfe 
 6000834:	15 00 00 00 	l.nop 0x0
 6000838:	15 00 00 00 	l.nop 0x0
 600083c:	15 00 00 00 	l.nop 0x0
 6000840:	15 00 00 00 	l.nop 0x0
 6000844:	15 00 00 00 	l.nop 0x0
 6000848:	15 00 00 00 	l.nop 0x0
 600084c:	15 00 00 00 	l.nop 0x0
 6000850:	15 00 00 00 	l.nop 0x0
 6000854:	15 00 00 00 	l.nop 0x0
 6000858:	15 00 00 00 	l.nop 0x0
	...
 6000900:	9c 21 ff 00 	l.addi r1,r1,0xffffff00
 6000904:	d4 01 48 1c 	l.sw 0x1c(r1),r9
 6000908:	04 00 01 55 	l.jal 6000e5c <_save_gpr>
 600090c:	15 00 00 00 	l.nop 0x0
 6000910:	b4 60 00 10 	l.mfspr r3,r0,0x10
 6000914:	b4 80 00 20 	l.mfspr r4,r0,0x20
 6000918:	07 80 1a ba 	l.jal 4007400 <__ram_size>
 600091c:	15 00 00 00 	l.nop 0x0
 6000920:	04 00 01 6e 	l.jal 6000ed8 <_restore_gpr>
 6000924:	15 00 00 00 	l.nop 0x0
 6000928:	85 21 00 1c 	l.lwz r9,0x1c(r1)
 600092c:	9c 21 01 00 	l.addi r1,r1,0x100
 6000930:	24 00 00 00 	l.rfe 
 6000934:	15 00 00 00 	l.nop 0x0
 6000938:	15 00 00 00 	l.nop 0x0
 600093c:	15 00 00 00 	l.nop 0x0
 6000940:	15 00 00 00 	l.nop 0x0
 6000944:	15 00 00 00 	l.nop 0x0
 6000948:	15 00 00 00 	l.nop 0x0
 600094c:	15 00 00 00 	l.nop 0x0
 6000950:	15 00 00 00 	l.nop 0x0
 6000954:	15 00 00 00 	l.nop 0x0
 6000958:	15 00 00 00 	l.nop 0x0
	...
 6000a00:	9c 21 ff 00 	l.addi r1,r1,0xffffff00
 6000a04:	d4 01 48 1c 	l.sw 0x1c(r1),r9
 6000a08:	04 00 01 15 	l.jal 6000e5c <_save_gpr>
 6000a0c:	15 00 00 00 	l.nop 0x0
 6000a10:	b4 60 00 10 	l.mfspr r3,r0,0x10
 6000a14:	b4 80 00 20 	l.mfspr r4,r0,0x20
 6000a18:	07 80 1a 7a 	l.jal 4007400 <__ram_size>
 6000a1c:	15 00 00 00 	l.nop 0x0
 6000a20:	04 00 01 2e 	l.jal 6000ed8 <_restore_gpr>
 6000a24:	15 00 00 00 	l.nop 0x0
 6000a28:	85 21 00 1c 	l.lwz r9,0x1c(r1)
 6000a2c:	9c 21 01 00 	l.addi r1,r1,0x100
 6000a30:	24 00 00 00 	l.rfe 
 6000a34:	15 00 00 00 	l.nop 0x0
 6000a38:	15 00 00 00 	l.nop 0x0
 6000a3c:	15 00 00 00 	l.nop 0x0
 6000a40:	15 00 00 00 	l.nop 0x0
 6000a44:	15 00 00 00 	l.nop 0x0
 6000a48:	15 00 00 00 	l.nop 0x0
 6000a4c:	15 00 00 00 	l.nop 0x0
 6000a50:	15 00 00 00 	l.nop 0x0
 6000a54:	15 00 00 00 	l.nop 0x0
 6000a58:	15 00 00 00 	l.nop 0x0
	...
 6000b00:	9c 21 ff 00 	l.addi r1,r1,0xffffff00
 6000b04:	d4 01 48 1c 	l.sw 0x1c(r1),r9
 6000b08:	04 00 00 d5 	l.jal 6000e5c <_save_gpr>
 6000b0c:	15 00 00 00 	l.nop 0x0
 6000b10:	b4 60 00 10 	l.mfspr r3,r0,0x10
 6000b14:	b4 80 00 20 	l.mfspr r4,r0,0x20
 6000b18:	07 80 1a 3a 	l.jal 4007400 <__ram_size>
 6000b1c:	15 00 00 00 	l.nop 0x0
 6000b20:	04 00 00 ee 	l.jal 6000ed8 <_restore_gpr>
 6000b24:	15 00 00 00 	l.nop 0x0
 6000b28:	85 21 00 1c 	l.lwz r9,0x1c(r1)
 6000b2c:	9c 21 01 00 	l.addi r1,r1,0x100
 6000b30:	24 00 00 00 	l.rfe 
 6000b34:	15 00 00 00 	l.nop 0x0
 6000b38:	15 00 00 00 	l.nop 0x0
 6000b3c:	15 00 00 00 	l.nop 0x0
 6000b40:	15 00 00 00 	l.nop 0x0
 6000b44:	15 00 00 00 	l.nop 0x0
 6000b48:	15 00 00 00 	l.nop 0x0
 6000b4c:	15 00 00 00 	l.nop 0x0
 6000b50:	15 00 00 00 	l.nop 0x0
 6000b54:	15 00 00 00 	l.nop 0x0
 6000b58:	15 00 00 00 	l.nop 0x0
	...
 6000c00:	9c 21 ff 00 	l.addi r1,r1,0xffffff00
 6000c04:	d4 01 48 1c 	l.sw 0x1c(r1),r9
 6000c08:	04 00 00 95 	l.jal 6000e5c <_save_gpr>
 6000c0c:	15 00 00 00 	l.nop 0x0
 6000c10:	b4 60 00 10 	l.mfspr r3,r0,0x10
 6000c14:	b4 80 00 20 	l.mfspr r4,r0,0x20
 6000c18:	07 80 19 fa 	l.jal 4007400 <__ram_size>
 6000c1c:	15 00 00 00 	l.nop 0x0
 6000c20:	04 00 00 ae 	l.jal 6000ed8 <_restore_gpr>
 6000c24:	15 00 00 00 	l.nop 0x0
 6000c28:	85 21 00 1c 	l.lwz r9,0x1c(r1)
 6000c2c:	9c 21 01 00 	l.addi r1,r1,0x100
 6000c30:	24 00 00 00 	l.rfe 
 6000c34:	15 00 00 00 	l.nop 0x0
 6000c38:	15 00 00 00 	l.nop 0x0
 6000c3c:	15 00 00 00 	l.nop 0x0
 6000c40:	15 00 00 00 	l.nop 0x0
 6000c44:	15 00 00 00 	l.nop 0x0
 6000c48:	15 00 00 00 	l.nop 0x0
 6000c4c:	15 00 00 00 	l.nop 0x0
 6000c50:	15 00 00 00 	l.nop 0x0
 6000c54:	15 00 00 00 	l.nop 0x0
 6000c58:	15 00 00 00 	l.nop 0x0
	...
 6000d00:	9c 21 ff 00 	l.addi r1,r1,0xffffff00
 6000d04:	d4 01 48 1c 	l.sw 0x1c(r1),r9
 6000d08:	04 00 00 55 	l.jal 6000e5c <_save_gpr>
 6000d0c:	15 00 00 00 	l.nop 0x0
 6000d10:	b4 60 00 10 	l.mfspr r3,r0,0x10
 6000d14:	b4 80 00 20 	l.mfspr r4,r0,0x20
 6000d18:	07 80 19 ba 	l.jal 4007400 <__ram_size>
 6000d1c:	15 00 00 00 	l.nop 0x0
 6000d20:	04 00 00 6e 	l.jal 6000ed8 <_restore_gpr>
 6000d24:	15 00 00 00 	l.nop 0x0
 6000d28:	85 21 00 1c 	l.lwz r9,0x1c(r1)
 6000d2c:	9c 21 01 00 	l.addi r1,r1,0x100
 6000d30:	24 00 00 00 	l.rfe 
 6000d34:	15 00 00 00 	l.nop 0x0
 6000d38:	15 00 00 00 	l.nop 0x0
 6000d3c:	15 00 00 00 	l.nop 0x0
 6000d40:	15 00 00 00 	l.nop 0x0
 6000d44:	15 00 00 00 	l.nop 0x0
 6000d48:	15 00 00 00 	l.nop 0x0
 6000d4c:	15 00 00 00 	l.nop 0x0
 6000d50:	15 00 00 00 	l.nop 0x0
 6000d54:	15 00 00 00 	l.nop 0x0
 6000d58:	15 00 00 00 	l.nop 0x0
	...
 6000e00:	9c 21 ff 00 	l.addi r1,r1,0xffffff00
 6000e04:	d4 01 48 1c 	l.sw 0x1c(r1),r9
 6000e08:	04 00 00 15 	l.jal 6000e5c <_save_gpr>
 6000e0c:	15 00 00 00 	l.nop 0x0
 6000e10:	b4 60 00 10 	l.mfspr r3,r0,0x10
 6000e14:	b4 80 00 20 	l.mfspr r4,r0,0x20
 6000e18:	07 80 19 7a 	l.jal 4007400 <__ram_size>
 6000e1c:	15 00 00 00 	l.nop 0x0
 6000e20:	04 00 00 2e 	l.jal 6000ed8 <_restore_gpr>
 6000e24:	15 00 00 00 	l.nop 0x0
 6000e28:	85 21 00 1c 	l.lwz r9,0x1c(r1)
 6000e2c:	9c 21 01 00 	l.addi r1,r1,0x100
 6000e30:	24 00 00 00 	l.rfe 
 6000e34:	15 00 00 00 	l.nop 0x0
 6000e38:	15 00 00 00 	l.nop 0x0
 6000e3c:	15 00 00 00 	l.nop 0x0
 6000e40:	15 00 00 00 	l.nop 0x0
 6000e44:	15 00 00 00 	l.nop 0x0
 6000e48:	15 00 00 00 	l.nop 0x0
 6000e4c:	15 00 00 00 	l.nop 0x0
 6000e50:	15 00 00 00 	l.nop 0x0
 6000e54:	15 00 00 00 	l.nop 0x0
 6000e58:	15 00 00 00 	l.nop 0x0

06000e5c <_save_gpr>:
 6000e5c:	d4 01 10 00 	l.sw 0x0(r1),r2
 6000e60:	d4 01 18 04 	l.sw 0x4(r1),r3
 6000e64:	d4 01 20 08 	l.sw 0x8(r1),r4
 6000e68:	d4 01 28 0c 	l.sw 0xc(r1),r5
 6000e6c:	d4 01 30 10 	l.sw 0x10(r1),r6
 6000e70:	d4 01 38 14 	l.sw 0x14(r1),r7
 6000e74:	d4 01 40 18 	l.sw 0x18(r1),r8
 6000e78:	d4 01 50 20 	l.sw 0x20(r1),r10
 6000e7c:	d4 01 58 24 	l.sw 0x24(r1),r11
 6000e80:	d4 01 60 28 	l.sw 0x28(r1),r12
 6000e84:	d4 01 68 2c 	l.sw 0x2c(r1),r13
 6000e88:	d4 01 70 30 	l.sw 0x30(r1),r14
 6000e8c:	d4 01 78 34 	l.sw 0x34(r1),r15
 6000e90:	d4 01 80 38 	l.sw 0x38(r1),r16
 6000e94:	d4 01 88 3c 	l.sw 0x3c(r1),r17
 6000e98:	d4 01 90 40 	l.sw 0x40(r1),r18
 6000e9c:	d4 01 98 44 	l.sw 0x44(r1),r19
 6000ea0:	d4 01 a0 48 	l.sw 0x48(r1),r20
 6000ea4:	d4 01 a8 4c 	l.sw 0x4c(r1),r21
 6000ea8:	d4 01 b0 50 	l.sw 0x50(r1),r22
 6000eac:	d4 01 b8 54 	l.sw 0x54(r1),r23
 6000eb0:	d4 01 c0 58 	l.sw 0x58(r1),r24
 6000eb4:	d4 01 c8 5c 	l.sw 0x5c(r1),r25
 6000eb8:	d4 01 d0 60 	l.sw 0x60(r1),r26
 6000ebc:	d4 01 d8 64 	l.sw 0x64(r1),r27
 6000ec0:	d4 01 e0 68 	l.sw 0x68(r1),r28
 6000ec4:	d4 01 e8 6c 	l.sw 0x6c(r1),r29
 6000ec8:	d4 01 f0 70 	l.sw 0x70(r1),r30
 6000ecc:	d4 01 f8 74 	l.sw 0x74(r1),r31
 6000ed0:	44 00 48 00 	l.jr r9
 6000ed4:	15 00 00 00 	l.nop 0x0

06000ed8 <_restore_gpr>:
 6000ed8:	87 e1 00 74 	l.lwz r31,0x74(r1)
 6000edc:	87 c1 00 70 	l.lwz r30,0x70(r1)
 6000ee0:	87 a1 00 6c 	l.lwz r29,0x6c(r1)
 6000ee4:	87 81 00 68 	l.lwz r28,0x68(r1)
 6000ee8:	87 61 00 64 	l.lwz r27,0x64(r1)
 6000eec:	87 41 00 60 	l.lwz r26,0x60(r1)
 6000ef0:	87 21 00 5c 	l.lwz r25,0x5c(r1)
 6000ef4:	87 01 00 58 	l.lwz r24,0x58(r1)
 6000ef8:	86 e1 00 54 	l.lwz r23,0x54(r1)
 6000efc:	86 c1 00 50 	l.lwz r22,0x50(r1)
 6000f00:	86 a1 00 4c 	l.lwz r21,0x4c(r1)
 6000f04:	86 81 00 48 	l.lwz r20,0x48(r1)
 6000f08:	86 61 00 44 	l.lwz r19,0x44(r1)
 6000f0c:	86 41 00 40 	l.lwz r18,0x40(r1)
 6000f10:	86 21 00 3c 	l.lwz r17,0x3c(r1)
 6000f14:	86 01 00 38 	l.lwz r16,0x38(r1)
 6000f18:	85 e1 00 34 	l.lwz r15,0x34(r1)
 6000f1c:	85 c1 00 30 	l.lwz r14,0x30(r1)
 6000f20:	85 a1 00 2c 	l.lwz r13,0x2c(r1)
 6000f24:	85 81 00 28 	l.lwz r12,0x28(r1)
 6000f28:	85 61 00 24 	l.lwz r11,0x24(r1)
 6000f2c:	85 41 00 20 	l.lwz r10,0x20(r1)
 6000f30:	85 01 00 18 	l.lwz r8,0x18(r1)
 6000f34:	84 e1 00 14 	l.lwz r7,0x14(r1)
 6000f38:	84 c1 00 10 	l.lwz r6,0x10(r1)
 6000f3c:	84 a1 00 0c 	l.lwz r5,0xc(r1)
 6000f40:	84 81 00 08 	l.lwz r4,0x8(r1)
 6000f44:	84 61 00 04 	l.lwz r3,0x4(r1)
 6000f48:	84 41 00 00 	l.lwz r2,0x0(r1)
 6000f4c:	44 00 48 00 	l.jr r9
 6000f50:	15 00 00 00 	l.nop 0x0

06000f54 <_reset_dummy_code>:
 6000f54:	15 00 00 00 	l.nop 0x0
 6000f58:	15 00 00 00 	l.nop 0x0
 6000f5c:	15 00 00 00 	l.nop 0x0
 6000f60:	15 00 00 00 	l.nop 0x0
 6000f64:	15 00 00 00 	l.nop 0x0
 6000f68:	15 00 00 00 	l.nop 0x0
 6000f6c:	15 00 00 00 	l.nop 0x0
 6000f70:	15 00 00 00 	l.nop 0x0
 6000f74:	15 00 00 00 	l.nop 0x0
 6000f78:	15 00 00 00 	l.nop 0x0
 6000f7c:	15 00 00 00 	l.nop 0x0
 6000f80:	15 00 00 00 	l.nop 0x0
 6000f84:	15 00 00 00 	l.nop 0x0
 6000f88:	15 00 00 00 	l.nop 0x0
 6000f8c:	15 00 00 00 	l.nop 0x0
 6000f90:	15 00 00 00 	l.nop 0x0
	...

Disassembly of section .text:

06001500 <__text_s>:
 6001500:	a8 20 40 01 	l.ori r1,r0,0x4001
 6001504:	c0 00 08 11 	l.mtspr r0,r1,0x11
 6001508:	c1 40 00 00 	l.mtspr r0,r0,0x5000
 600150c:	a4 20 00 00 	l.andi r1,r0,0x0
 6001510:	c0 00 08 15 	l.mtspr r0,r1,0x15
 6001514:	18 20 04 00 	l.movhi r1,0x400
 6001518:	a8 21 73 fc 	l.ori r1,r1,0x73fc
 600151c:	18 60 06 00 	l.movhi r3,0x600
 6001520:	a8 63 15 c4 	l.ori r3,r3,0x15c4
 6001524:	48 00 18 00 	l.jalr r3
 6001528:	15 00 00 00 	l.nop 0x0
 600152c:	18 60 06 00 	l.movhi r3,0x600
 6001530:	a8 63 15 88 	l.ori r3,r3,0x1588
 6001534:	48 00 18 00 	l.jalr r3
 6001538:	15 00 00 00 	l.nop 0x0
 600153c:	18 60 06 00 	l.movhi r3,0x600
 6001540:	a8 63 16 00 	l.ori r3,r3,0x1600
 6001544:	48 00 18 00 	l.jalr r3
 6001548:	15 00 00 00 	l.nop 0x0
 600154c:	e0 60 00 04 	l.or r3,r0,r0
 6001550:	e0 80 00 04 	l.or r4,r0,r0
 6001554:	04 00 0c 1c 	l.jal 60045c4 <main>
 6001558:	15 00 00 00 	l.nop 0x0
 600155c:	9c 6b 00 00 	l.addi r3,r11,0x0
 6001560:	04 00 02 65 	l.jal 6001ef4 <exit>
 6001564:	15 00 00 00 	l.nop 0x0

06001568 <_init_reset_section>:
 6001568:	d7 e1 4f fc 	l.sw 0xfffffffc(r1),r9
 600156c:	9c 21 ff fc 	l.addi r1,r1,0xfffffffc
 6001570:	18 60 04 00 	l.movhi r3,0x400
 6001574:	9c 21 00 04 	l.addi r1,r1,0x4
 6001578:	18 80 06 00 	l.movhi r4,0x600
 600157c:	85 21 ff fc 	l.lwz r9,0xfffffffc(r1)
 6001580:	00 00 07 04 	l.j 6003190 <DmaMemCpy_isr>
 6001584:	9c a0 0f 00 	l.addi r5,r0,0xf00

06001588 <_init_data_section>:
 6001588:	18 80 06 00 	l.movhi r4,0x600
 600158c:	18 60 06 00 	l.movhi r3,0x600
 6001590:	a8 84 00 64 	l.ori r4,r4,0x64
 6001594:	d7 e1 4f fc 	l.sw 0xfffffffc(r1),r9
 6001598:	84 a4 00 00 	l.lwz r5,0x0(r4)
 600159c:	9c 21 ff fc 	l.addi r1,r1,0xfffffffc
 60015a0:	a8 63 00 60 	l.ori r3,r3,0x60
 60015a4:	18 80 06 00 	l.movhi r4,0x600
 60015a8:	84 63 00 00 	l.lwz r3,0x0(r3)
 60015ac:	a8 84 00 30 	l.ori r4,r4,0x30
 60015b0:	9c 21 00 04 	l.addi r1,r1,0x4
 60015b4:	84 84 00 00 	l.lwz r4,0x0(r4)
 60015b8:	85 21 ff fc 	l.lwz r9,0xfffffffc(r1)
 60015bc:	00 00 0c ca 	l.j 60048e4 <memcpy>
 60015c0:	e0 a5 18 02 	l.sub r5,r5,r3

060015c4 <_init_text_section>:
 60015c4:	18 80 06 00 	l.movhi r4,0x600
 60015c8:	18 60 06 00 	l.movhi r3,0x600
 60015cc:	a8 84 00 4c 	l.ori r4,r4,0x4c
 60015d0:	d7 e1 4f fc 	l.sw 0xfffffffc(r1),r9
 60015d4:	84 a4 00 00 	l.lwz r5,0x0(r4)
 60015d8:	9c 21 ff fc 	l.addi r1,r1,0xfffffffc
 60015dc:	a8 63 00 48 	l.ori r3,r3,0x48
 60015e0:	18 80 06 00 	l.movhi r4,0x600
 60015e4:	84 63 00 00 	l.lwz r3,0x0(r3)
 60015e8:	a8 84 00 18 	l.ori r4,r4,0x18
 60015ec:	9c 21 00 04 	l.addi r1,r1,0x4
 60015f0:	84 84 00 00 	l.lwz r4,0x0(r4)
 60015f4:	85 21 ff fc 	l.lwz r9,0xfffffffc(r1)
 60015f8:	00 00 0c bb 	l.j 60048e4 <memcpy>
 60015fc:	e0 a5 18 02 	l.sub r5,r5,r3

06001600 <_init_bss_section>:
 6001600:	18 60 06 00 	l.movhi r3,0x600
 6001604:	18 80 06 00 	l.movhi r4,0x600
 6001608:	d7 e1 4f fc 	l.sw 0xfffffffc(r1),r9
 600160c:	a8 84 00 6c 	l.ori r4,r4,0x6c
 6001610:	9c 21 ff fc 	l.addi r1,r1,0xfffffffc
 6001614:	a8 63 00 68 	l.ori r3,r3,0x68
 6001618:	84 a4 00 00 	l.lwz r5,0x0(r4)
 600161c:	84 63 00 00 	l.lwz r3,0x0(r3)
 6001620:	9c 21 00 04 	l.addi r1,r1,0x4
 6001624:	9c 80 00 00 	l.addi r4,r0,0x0
 6001628:	85 21 ff fc 	l.lwz r9,0xfffffffc(r1)
 600162c:	00 00 07 0e 	l.j 6003264 <DmaMemSet_isr>
 6001630:	e0 a5 18 02 	l.sub r5,r5,r3

06001634 <set_code_hwp>:
 6001634:	d7 e1 17 e8 	l.sw 0xffffffe8(r1),r2
 6001638:	d7 e1 4f fc 	l.sw 0xfffffffc(r1),r9
 600163c:	d7 e1 77 ec 	l.sw 0xffffffec(r1),r14
 6001640:	d7 e1 87 f0 	l.sw 0xfffffff0(r1),r16
 6001644:	d7 e1 97 f4 	l.sw 0xfffffff4(r1),r18
 6001648:	d7 e1 a7 f8 	l.sw 0xfffffff8(r1),r20
 600164c:	9c 63 00 38 	l.addi r3,r3,0x38
 6001650:	9c 21 ff d0 	l.addi r1,r1,0xffffffd0
 6001654:	9c 80 00 07 	l.addi r4,r0,0x7
 6001658:	9c 40 00 00 	l.addi r2,r0,0x0
 600165c:	84 e3 00 00 	l.lwz r7,0x0(r3)
 6001660:	84 c3 00 04 	l.lwz r6,0x4(r3)
 6001664:	e4 06 38 00 	l.sfeq r6,r7
 6001668:	10 00 00 07 	l.bf 6001684 <set_code_hwp+0x50>
 600166c:	b8 a2 00 03 	l.slli r5,r2,0x3
 6001670:	9d 01 00 18 	l.addi r8,r1,0x18
 6001674:	9c 42 00 01 	l.addi r2,r2,0x1
 6001678:	e0 a8 28 00 	l.add r5,r8,r5
 600167c:	d7 e5 3f e8 	l.sw 0xffffffe8(r5),r7
 6001680:	d7 e5 37 ec 	l.sw 0xffffffec(r5),r6
 6001684:	9c 84 00 01 	l.addi r4,r4,0x1
 6001688:	bc 24 00 0a 	l.sfnei r4,0xa
 600168c:	13 ff ff f4 	l.bf 600165c <set_code_hwp+0x28>
 6001690:	9c 63 00 08 	l.addi r3,r3,0x8
 6001694:	b9 a2 00 03 	l.slli r13,r2,0x3
 6001698:	9e 81 00 04 	l.addi r20,r1,0x4
 600169c:	a9 c1 00 00 	l.ori r14,r1,0x0
 60016a0:	a8 d4 00 00 	l.ori r6,r20,0x0
 60016a4:	a8 a1 00 00 	l.ori r5,r1,0x0
 60016a8:	9c 60 00 00 	l.addi r3,r0,0x0
 60016ac:	a8 e1 00 00 	l.ori r7,r1,0x0
 60016b0:	00 00 00 1a 	l.j 6001718 <set_code_hwp+0xe4>
 60016b4:	e1 ad 08 00 	l.add r13,r13,r1
 60016b8:	b8 68 00 03 	l.slli r3,r8,0x3
 60016bc:	e0 87 18 00 	l.add r4,r7,r3
 60016c0:	9c 63 00 04 	l.addi r3,r3,0x4
 60016c4:	00 00 00 0f 	l.j 6001700 <set_code_hwp+0xcc>
 60016c8:	e0 67 18 00 	l.add r3,r7,r3
 60016cc:	85 84 00 00 	l.lwz r12,0x0(r4)
 60016d0:	85 65 00 00 	l.lwz r11,0x0(r5)
 60016d4:	e4 6c 58 00 	l.sfgeu r12,r11
 60016d8:	10 00 00 08 	l.bf 60016f8 <set_code_hwp+0xc4>
 60016dc:	15 00 00 00 	l.nop 0x0
 60016e0:	d4 05 60 00 	l.sw 0x0(r5),r12
 60016e4:	85 83 00 00 	l.lwz r12,0x0(r3)
 60016e8:	d4 04 58 00 	l.sw 0x0(r4),r11
 60016ec:	85 66 00 00 	l.lwz r11,0x0(r6)
 60016f0:	d4 06 60 00 	l.sw 0x0(r6),r12
 60016f4:	d4 03 58 00 	l.sw 0x0(r3),r11
 60016f8:	9c 84 00 08 	l.addi r4,r4,0x8
 60016fc:	9c 63 00 08 	l.addi r3,r3,0x8
 6001700:	e4 24 68 00 	l.sfne r4,r13
 6001704:	13 ff ff f2 	l.bf 60016cc <set_code_hwp+0x98>
 6001708:	15 00 00 00 	l.nop 0x0
 600170c:	9c a5 00 08 	l.addi r5,r5,0x8
 6001710:	9c c6 00 08 	l.addi r6,r6,0x8
 6001714:	a8 68 00 00 	l.ori r3,r8,0x0
 6001718:	e5 83 10 00 	l.sflts r3,r2
 600171c:	13 ff ff e7 	l.bf 60016b8 <set_code_hwp+0x84>
 6001720:	9d 03 00 01 	l.addi r8,r3,0x1
 6001724:	9c 60 60 10 	l.addi r3,r0,0x6010
 6001728:	9c 80 00 00 	l.addi r4,r0,0x0
 600172c:	04 00 00 4c 	l.jal 600185c <mtspr>
 6001730:	9e 40 00 01 	l.addi r18,r0,0x1
 6001734:	9c 60 60 00 	l.addi r3,r0,0x6000
 6001738:	9c 80 00 00 	l.addi r4,r0,0x0
 600173c:	9c a0 00 28 	l.addi r5,r0,0x28
 6001740:	9c c0 00 02 	l.addi r6,r0,0x2
 6001744:	84 e1 00 00 	l.lwz r7,0x0(r1)
 6001748:	9d 00 00 01 	l.addi r8,r0,0x1
 600174c:	04 00 01 3c 	l.jal 6001c3c <set_hwp>
 6001750:	aa 12 00 00 	l.ori r16,r18,0x0
 6001754:	00 00 00 13 	l.j 60017a0 <set_code_hwp+0x16c>
 6001758:	e5 90 10 00 	l.sflts r16,r2
 600175c:	84 f4 00 00 	l.lwz r7,0x0(r20)
 6001760:	9c 60 60 00 	l.addi r3,r0,0x6000
 6001764:	9c a0 00 28 	l.addi r5,r0,0x28
 6001768:	9c c0 00 05 	l.addi r6,r0,0x5
 600176c:	9d 00 00 01 	l.addi r8,r0,0x1
 6001770:	04 00 01 33 	l.jal 6001c3c <set_hwp>
 6001774:	9e 52 00 02 	l.addi r18,r18,0x2
 6001778:	9c c0 00 02 	l.addi r6,r0,0x2
 600177c:	e0 90 80 00 	l.add r4,r16,r16
 6001780:	84 f4 00 04 	l.lwz r7,0x4(r20)
 6001784:	9c 60 60 00 	l.addi r3,r0,0x6000
 6001788:	9c a0 00 28 	l.addi r5,r0,0x28
 600178c:	a9 06 00 00 	l.ori r8,r6,0x0
 6001790:	9e 10 00 01 	l.addi r16,r16,0x1
 6001794:	04 00 01 2a 	l.jal 6001c3c <set_hwp>
 6001798:	9e 94 00 08 	l.addi r20,r20,0x8
 600179c:	e5 90 10 00 	l.sflts r16,r2
 60017a0:	13 ff ff ef 	l.bf 600175c <set_code_hwp+0x128>
 60017a4:	a8 92 00 00 	l.ori r4,r18,0x0
 60017a8:	9e 10 ff ff 	l.addi r16,r16,0xffffffff
 60017ac:	9c 61 00 18 	l.addi r3,r1,0x18
 60017b0:	ba 10 00 03 	l.slli r16,r16,0x3
 60017b4:	9c a0 00 28 	l.addi r5,r0,0x28
 60017b8:	e2 03 80 00 	l.add r16,r3,r16
 60017bc:	9c c0 00 05 	l.addi r6,r0,0x5
 60017c0:	84 f0 ff ec 	l.lwz r7,0xffffffec(r16)
 60017c4:	9c 60 60 00 	l.addi r3,r0,0x6000
 60017c8:	9d 00 00 01 	l.addi r8,r0,0x1
 60017cc:	04 00 01 1c 	l.jal 6001c3c <set_hwp>
 60017d0:	9e 00 00 00 	l.addi r16,r0,0x0
 60017d4:	9c 60 68 10 	l.addi r3,r0,0x6810
 60017d8:	9c 80 00 00 	l.addi r4,r0,0x0
 60017dc:	04 00 00 20 	l.jal 600185c <mtspr>
 60017e0:	aa 50 00 00 	l.ori r18,r16,0x0
 60017e4:	00 00 00 14 	l.j 6001834 <set_code_hwp+0x200>
 60017e8:	e5 92 10 00 	l.sflts r18,r2
 60017ec:	84 ee 00 00 	l.lwz r7,0x0(r14)
 60017f0:	9c 60 68 00 	l.addi r3,r0,0x6800
 60017f4:	9c a0 00 30 	l.addi r5,r0,0x30
 60017f8:	9c c0 00 05 	l.addi r6,r0,0x5
 60017fc:	9d 00 00 01 	l.addi r8,r0,0x1
 6001800:	04 00 01 0f 	l.jal 6001c3c <set_hwp>
 6001804:	aa 90 00 00 	l.ori r20,r16,0x0
 6001808:	9c c0 00 02 	l.addi r6,r0,0x2
 600180c:	84 ee 00 04 	l.lwz r7,0x4(r14)
 6001810:	9c 60 68 00 	l.addi r3,r0,0x6800
 6001814:	9c 94 00 01 	l.addi r4,r20,0x1
 6001818:	9c a0 00 30 	l.addi r5,r0,0x30
 600181c:	a9 06 00 00 	l.ori r8,r6,0x0
 6001820:	9e 10 00 02 	l.addi r16,r16,0x2
 6001824:	9e 52 00 01 	l.addi r18,r18,0x1
 6001828:	04 00 01 05 	l.jal 6001c3c <set_hwp>
 600182c:	9d ce 00 08 	l.addi r14,r14,0x8
 6001830:	e5 92 10 00 	l.sflts r18,r2
 6001834:	13 ff ff ee 	l.bf 60017ec <set_code_hwp+0x1b8>
 6001838:	a8 90 00 00 	l.ori r4,r16,0x0
 600183c:	9c 21 00 30 	l.addi r1,r1,0x30
 6001840:	85 21 ff fc 	l.lwz r9,0xfffffffc(r1)
 6001844:	84 41 ff e8 	l.lwz r2,0xffffffe8(r1)
 6001848:	85 c1 ff ec 	l.lwz r14,0xffffffec(r1)
 600184c:	86 01 ff f0 	l.lwz r16,0xfffffff0(r1)
 6001850:	86 41 ff f4 	l.lwz r18,0xfffffff4(r1)
 6001854:	44 00 48 00 	l.jr r9
 6001858:	86 81 ff f8 	l.lwz r20,0xfffffff8(r1)

0600185c <mtspr>:
 600185c:	c0 03 20 00 	l.mtspr r3,r4,0x0
 6001860:	44 00 48 00 	l.jr r9
 6001864:	15 00 00 00 	l.nop 0x0

06001868 <mfspr>:
 6001868:	b5 63 00 00 	l.mfspr r11,r3,0x0
 600186c:	44 00 48 00 	l.jr r9
 6001870:	15 00 00 00 	l.nop 0x0

06001874 <ext_int_enabled>:
 6001874:	9d 60 00 11 	l.addi r11,r0,0x11
 6001878:	b5 6b 00 00 	l.mfspr r11,r11,0x0
 600187c:	44 00 48 00 	l.jr r9
 6001880:	a5 6b 00 04 	l.andi r11,r11,0x4

06001884 <enable_ext_int>:
 6001884:	9c 60 00 11 	l.addi r3,r0,0x11
 6001888:	b4 83 00 00 	l.mfspr r4,r3,0x0
 600188c:	a8 84 00 04 	l.ori r4,r4,0x4
 6001890:	c0 03 20 00 	l.mtspr r3,r4,0x0
 6001894:	44 00 48 00 	l.jr r9
 6001898:	15 00 00 00 	l.nop 0x0

0600189c <disable_ext_int>:
 600189c:	d7 e1 17 fc 	l.sw 0xfffffffc(r1),r2
 60018a0:	9c 40 ff fb 	l.addi r2,r0,0xfffffffb
 60018a4:	9c 60 00 11 	l.addi r3,r0,0x11
 60018a8:	9c 21 ff fc 	l.addi r1,r1,0xfffffffc
 60018ac:	b4 83 00 00 	l.mfspr r4,r3,0x0
 60018b0:	e0 84 10 03 	l.and r4,r4,r2
 60018b4:	c0 03 20 00 	l.mtspr r3,r4,0x0
 60018b8:	9c 21 00 04 	l.addi r1,r1,0x4
 60018bc:	44 00 48 00 	l.jr r9
 60018c0:	84 41 ff fc 	l.lwz r2,0xfffffffc(r1)

060018c4 <timer_enabled>:
 60018c4:	9d 60 00 11 	l.addi r11,r0,0x11
 60018c8:	b5 6b 00 00 	l.mfspr r11,r11,0x0
 60018cc:	44 00 48 00 	l.jr r9
 60018d0:	a5 6b 00 02 	l.andi r11,r11,0x2

060018d4 <enable_timer>:
 60018d4:	9c 60 00 11 	l.addi r3,r0,0x11
 60018d8:	b4 83 00 00 	l.mfspr r4,r3,0x0
 60018dc:	a8 84 00 02 	l.ori r4,r4,0x2
 60018e0:	c0 03 20 00 	l.mtspr r3,r4,0x0
 60018e4:	44 00 48 00 	l.jr r9
 60018e8:	15 00 00 00 	l.nop 0x0

060018ec <disable_timer>:
 60018ec:	d7 e1 17 fc 	l.sw 0xfffffffc(r1),r2
 60018f0:	9c 40 ff fd 	l.addi r2,r0,0xfffffffd
 60018f4:	9c 60 00 11 	l.addi r3,r0,0x11
 60018f8:	9c 21 ff fc 	l.addi r1,r1,0xfffffffc
 60018fc:	b4 83 00 00 	l.mfspr r4,r3,0x0
 6001900:	e0 84 10 03 	l.and r4,r4,r2
 6001904:	c0 03 20 00 	l.mtspr r3,r4,0x0
 6001908:	9c 21 00 04 	l.addi r1,r1,0x4
 600190c:	44 00 48 00 	l.jr r9
 6001910:	84 41 ff fc 	l.lwz r2,0xfffffffc(r1)

06001914 <xsr_enabled>:
 6001914:	9d 60 00 11 	l.addi r11,r0,0x11
 6001918:	b5 6b 00 00 	l.mfspr r11,r11,0x0
 600191c:	44 00 48 00 	l.jr r9
 6001920:	a5 6b 00 06 	l.andi r11,r11,0x6

06001924 <enable_xsr>:
 6001924:	9c 60 00 11 	l.addi r3,r0,0x11
 6001928:	b4 83 00 00 	l.mfspr r4,r3,0x0
 600192c:	a8 84 00 06 	l.ori r4,r4,0x6
 6001930:	c0 03 20 00 	l.mtspr r3,r4,0x0
 6001934:	44 00 48 00 	l.jr r9
 6001938:	15 00 00 00 	l.nop 0x0

0600193c <disable_xsr>:
 600193c:	d7 e1 17 fc 	l.sw 0xfffffffc(r1),r2
 6001940:	9c 40 ff f9 	l.addi r2,r0,0xfffffff9
 6001944:	9c 60 00 11 	l.addi r3,r0,0x11
 6001948:	9c 21 ff fc 	l.addi r1,r1,0xfffffffc
 600194c:	b4 83 00 00 	l.mfspr r4,r3,0x0
 6001950:	e0 84 10 03 	l.and r4,r4,r2
 6001954:	c0 03 20 00 	l.mtspr r3,r4,0x0
 6001958:	9c 21 00 04 	l.addi r1,r1,0x4
 600195c:	44 00 48 00 	l.jr r9
 6001960:	84 41 ff fc 	l.lwz r2,0xfffffffc(r1)

06001964 <enable_immu>:
 6001964:	9c 60 00 11 	l.addi r3,r0,0x11
 6001968:	b4 83 00 00 	l.mfspr r4,r3,0x0
 600196c:	a8 84 00 40 	l.ori r4,r4,0x40
 6001970:	c0 03 20 00 	l.mtspr r3,r4,0x0
 6001974:	44 00 48 00 	l.jr r9
 6001978:	15 00 00 00 	l.nop 0x0

0600197c <disable_immu>:
 600197c:	d7 e1 17 fc 	l.sw 0xfffffffc(r1),r2
 6001980:	9c 40 ff bf 	l.addi r2,r0,0xffffffbf
 6001984:	9c 60 00 11 	l.addi r3,r0,0x11
 6001988:	9c 21 ff fc 	l.addi r1,r1,0xfffffffc
 600198c:	b4 83 00 00 	l.mfspr r4,r3,0x0
 6001990:	e0 84 10 03 	l.and r4,r4,r2
 6001994:	c0 03 20 00 	l.mtspr r3,r4,0x0
 6001998:	9c 21 00 04 	l.addi r1,r1,0x4
 600199c:	44 00 48 00 	l.jr r9
 60019a0:	84 41 ff fc 	l.lwz r2,0xfffffffc(r1)

060019a4 <enable_dmmu>:
 60019a4:	9c 60 00 11 	l.addi r3,r0,0x11
 60019a8:	b4 83 00 00 	l.mfspr r4,r3,0x0
 60019ac:	a8 84 00 20 	l.ori r4,r4,0x20
 60019b0:	c0 03 20 00 	l.mtspr r3,r4,0x0
 60019b4:	44 00 48 00 	l.jr r9
 60019b8:	15 00 00 00 	l.nop 0x0

060019bc <disable_dmmu>:
 60019bc:	d7 e1 17 fc 	l.sw 0xfffffffc(r1),r2
 60019c0:	9c 40 ff df 	l.addi r2,r0,0xffffffdf
 60019c4:	9c 60 00 11 	l.addi r3,r0,0x11
 60019c8:	9c 21 ff fc 	l.addi r1,r1,0xfffffffc
 60019cc:	b4 83 00 00 	l.mfspr r4,r3,0x0
 60019d0:	e0 84 10 03 	l.and r4,r4,r2
 60019d4:	c0 03 20 00 	l.mtspr r3,r4,0x0
 60019d8:	9c 21 00 04 	l.addi r1,r1,0x4
 60019dc:	44 00 48 00 	l.jr r9
 60019e0:	84 41 ff fc 	l.lwz r2,0xfffffffc(r1)

060019e4 <enable_fp_xsr>:
 60019e4:	d7 e1 17 fc 	l.sw 0xfffffffc(r1),r2
 60019e8:	9c 40 f0 07 	l.addi r2,r0,0xfffff007
 60019ec:	9c 60 00 14 	l.addi r3,r0,0x14
 60019f0:	b4 83 00 00 	l.mfspr r4,r3,0x0
 60019f4:	e0 84 10 03 	l.and r4,r4,r2
 60019f8:	9c 21 ff fc 	l.addi r1,r1,0xfffffffc
 60019fc:	a8 84 00 01 	l.ori r4,r4,0x1
 6001a00:	c0 03 20 00 	l.mtspr r3,r4,0x0
 6001a04:	9c 21 00 04 	l.addi r1,r1,0x4
 6001a08:	44 00 48 00 	l.jr r9
 6001a0c:	84 41 ff fc 	l.lwz r2,0xfffffffc(r1)

06001a10 <set_fp_round_mode>:
 6001a10:	d7 e1 17 fc 	l.sw 0xfffffffc(r1),r2
 6001a14:	9c 40 ff f9 	l.addi r2,r0,0xfffffff9
 6001a18:	9c 80 00 14 	l.addi r4,r0,0x14
 6001a1c:	b4 a4 00 00 	l.mfspr r5,r4,0x0
 6001a20:	e0 a5 10 03 	l.and r5,r5,r2
 6001a24:	9c 21 ff fc 	l.addi r1,r1,0xfffffffc
 6001a28:	e0 65 18 04 	l.or r3,r5,r3
 6001a2c:	c0 04 18 00 	l.mtspr r4,r3,0x0
 6001a30:	9c 21 00 04 	l.addi r1,r1,0x4
 6001a34:	44 00 48 00 	l.jr r9
 6001a38:	84 41 ff fc 	l.lwz r2,0xfffffffc(r1)

06001a3c <get_fp_round_mode>:
 6001a3c:	9d 60 00 14 	l.addi r11,r0,0x14
 6001a40:	b5 6b 00 00 	l.mfspr r11,r11,0x0
 6001a44:	44 00 48 00 	l.jr r9
 6001a48:	a5 6b 00 06 	l.andi r11,r11,0x6

06001a4c <set_fp_round_precision>:
 6001a4c:	44 00 48 00 	l.jr r9
 6001a50:	15 00 00 00 	l.nop 0x0

06001a54 <mfgpr1>:
 6001a54:	e1 60 08 04 	l.or r11,r0,r1
 6001a58:	44 00 48 00 	l.jr r9
 6001a5c:	15 00 00 00 	l.nop 0x0

06001a60 <mfgpr9>:
 6001a60:	e1 60 48 04 	l.or r11,r0,r9
 6001a64:	44 00 48 00 	l.jr r9
 6001a68:	15 00 00 00 	l.nop 0x0

06001a6c <disable_icache>:
 6001a6c:	d7 e1 17 fc 	l.sw 0xfffffffc(r1),r2
 6001a70:	9c 40 ff ef 	l.addi r2,r0,0xffffffef
 6001a74:	9c 60 00 11 	l.addi r3,r0,0x11
 6001a78:	9c 21 ff fc 	l.addi r1,r1,0xfffffffc
 6001a7c:	b4 83 00 00 	l.mfspr r4,r3,0x0
 6001a80:	e0 84 10 03 	l.and r4,r4,r2
 6001a84:	c0 03 20 00 	l.mtspr r3,r4,0x0
 6001a88:	15 00 00 00 	l.nop 0x0
 6001a8c:	15 00 00 00 	l.nop 0x0
 6001a90:	15 00 00 00 	l.nop 0x0
 6001a94:	15 00 00 00 	l.nop 0x0
 6001a98:	15 00 00 00 	l.nop 0x0
 6001a9c:	15 00 00 00 	l.nop 0x0
 6001aa0:	15 00 00 00 	l.nop 0x0
 6001aa4:	15 00 00 00 	l.nop 0x0
 6001aa8:	15 00 00 00 	l.nop 0x0
 6001aac:	9c 21 00 04 	l.addi r1,r1,0x4
 6001ab0:	44 00 48 00 	l.jr r9
 6001ab4:	84 41 ff fc 	l.lwz r2,0xfffffffc(r1)

06001ab8 <disable_dcache>:
 6001ab8:	d7 e1 17 fc 	l.sw 0xfffffffc(r1),r2
 6001abc:	9c 40 ff f7 	l.addi r2,r0,0xfffffff7
 6001ac0:	9c 60 00 11 	l.addi r3,r0,0x11
 6001ac4:	9c 21 ff fc 	l.addi r1,r1,0xfffffffc
 6001ac8:	b4 83 00 00 	l.mfspr r4,r3,0x0
 6001acc:	e0 84 10 03 	l.and r4,r4,r2
 6001ad0:	c0 03 20 00 	l.mtspr r3,r4,0x0
 6001ad4:	15 00 00 00 	l.nop 0x0
 6001ad8:	15 00 00 00 	l.nop 0x0
 6001adc:	15 00 00 00 	l.nop 0x0
 6001ae0:	15 00 00 00 	l.nop 0x0
 6001ae4:	15 00 00 00 	l.nop 0x0
 6001ae8:	15 00 00 00 	l.nop 0x0
 6001aec:	15 00 00 00 	l.nop 0x0
 6001af0:	15 00 00 00 	l.nop 0x0
 6001af4:	15 00 00 00 	l.nop 0x0
 6001af8:	9c 21 00 04 	l.addi r1,r1,0x4
 6001afc:	44 00 48 00 	l.jr r9
 6001b00:	84 41 ff fc 	l.lwz r2,0xfffffffc(r1)

06001b04 <check_dcache>:
 6001b04:	9c 60 00 05 	l.addi r3,r0,0x5
 6001b08:	b4 63 00 00 	l.mfspr r3,r3,0x0
 6001b0c:	a5 63 00 78 	l.andi r11,r3,0x78
 6001b10:	9c 80 00 01 	l.addi r4,r0,0x1
 6001b14:	b9 6b 00 43 	l.srli r11,r11,0x3
 6001b18:	a4 a3 00 07 	l.andi r5,r3,0x7
 6001b1c:	a4 63 00 80 	l.andi r3,r3,0x80
 6001b20:	e0 a4 28 08 	l.sll r5,r4,r5
 6001b24:	e1 64 58 08 	l.sll r11,r4,r11
 6001b28:	bc 03 00 00 	l.sfeqi r3,0x0
 6001b2c:	10 00 00 03 	l.bf 6001b38 <check_dcache+0x34>
 6001b30:	9c 80 00 10 	l.addi r4,r0,0x10
 6001b34:	9c 80 00 20 	l.addi r4,r0,0x20
 6001b38:	e1 6b 2b 06 	l.mul r11,r11,r5
 6001b3c:	44 00 48 00 	l.jr r9
 6001b40:	e1 6b 23 06 	l.mul r11,r11,r4

06001b44 <get_dcache_block_size>:
 6001b44:	9c 60 00 05 	l.addi r3,r0,0x5
 6001b48:	b4 63 00 00 	l.mfspr r3,r3,0x0
 6001b4c:	a4 63 00 80 	l.andi r3,r3,0x80
 6001b50:	9d 60 00 10 	l.addi r11,r0,0x10
 6001b54:	b8 63 00 47 	l.srli r3,r3,0x7
 6001b58:	44 00 48 00 	l.jr r9
 6001b5c:	e1 6b 18 08 	l.sll r11,r11,r3

06001b60 <invalidate_dcache_range>:
 6001b60:	44 00 48 00 	l.jr r9
 6001b64:	15 00 00 00 	l.nop 0x0

06001b68 <invalidate_dcache_range_all>:
 6001b68:	44 00 48 00 	l.jr r9
 6001b6c:	15 00 00 00 	l.nop 0x0

06001b70 <enable_jtag_ctrl_exception>:
 6001b70:	9c 80 33 6d 	l.addi r4,r0,0x336d
 6001b74:	9c 60 30 14 	l.addi r3,r0,0x3014
 6001b78:	c0 03 20 00 	l.mtspr r3,r4,0x0
 6001b7c:	44 00 48 00 	l.jr r9
 6001b80:	15 00 00 00 	l.nop 0x0

06001b84 <disable_jtag_ctrl_exception>:
 6001b84:	9c 80 00 00 	l.addi r4,r0,0x0
 6001b88:	9c 60 30 14 	l.addi r3,r0,0x3014
 6001b8c:	c0 03 20 00 	l.mtspr r3,r4,0x0
 6001b90:	44 00 48 00 	l.jr r9
 6001b94:	15 00 00 00 	l.nop 0x0

06001b98 <enable_htb>:
 6001b98:	9c 80 00 07 	l.addi r4,r0,0x7
 6001b9c:	9c 60 77 00 	l.addi r3,r0,0x7700
 6001ba0:	c0 03 20 00 	l.mtspr r3,r4,0x0
 6001ba4:	44 00 48 00 	l.jr r9
 6001ba8:	15 00 00 00 	l.nop 0x0

06001bac <disable_htb>:
 6001bac:	d7 e1 17 fc 	l.sw 0xfffffffc(r1),r2
 6001bb0:	9c 40 ff fe 	l.addi r2,r0,0xfffffffe
 6001bb4:	9c 60 77 00 	l.addi r3,r0,0x7700
 6001bb8:	9c 21 ff fc 	l.addi r1,r1,0xfffffffc
 6001bbc:	b4 83 00 00 	l.mfspr r4,r3,0x0
 6001bc0:	e0 84 10 03 	l.and r4,r4,r2
 6001bc4:	c0 03 20 00 	l.mtspr r3,r4,0x0
 6001bc8:	9c 21 00 04 	l.addi r1,r1,0x4
 6001bcc:	44 00 48 00 	l.jr r9
 6001bd0:	84 41 ff fc 	l.lwz r2,0xfffffffc(r1)

06001bd4 <htb_enabled>:
 6001bd4:	9d 60 77 00 	l.addi r11,r0,0x7700
 6001bd8:	b5 6b 00 00 	l.mfspr r11,r11,0x0
 6001bdc:	44 00 48 00 	l.jr r9
 6001be0:	a5 6b 00 01 	l.andi r11,r11,0x1

06001be4 <enable_stb>:
 6001be4:	44 00 48 00 	l.jr r9
 6001be8:	15 00 00 00 	l.nop 0x0

06001bec <enable_hwp>:
 6001bec:	9c 63 00 10 	l.addi r3,r3,0x10
 6001bf0:	b4 83 00 00 	l.mfspr r4,r3,0x0
 6001bf4:	a8 84 00 39 	l.ori r4,r4,0x39
 6001bf8:	c0 03 20 00 	l.mtspr r3,r4,0x0
 6001bfc:	44 00 48 00 	l.jr r9
 6001c00:	15 00 00 00 	l.nop 0x0

06001c04 <disable_hwp>:
 6001c04:	d7 e1 17 fc 	l.sw 0xfffffffc(r1),r2
 6001c08:	9c 40 ff fe 	l.addi r2,r0,0xfffffffe
 6001c0c:	9c 63 00 10 	l.addi r3,r3,0x10
 6001c10:	9c 21 ff fc 	l.addi r1,r1,0xfffffffc
 6001c14:	b4 83 00 00 	l.mfspr r4,r3,0x0
 6001c18:	e0 84 10 03 	l.and r4,r4,r2
 6001c1c:	c0 03 20 00 	l.mtspr r3,r4,0x0
 6001c20:	9c 21 00 04 	l.addi r1,r1,0x4
 6001c24:	44 00 48 00 	l.jr r9
 6001c28:	84 41 ff fc 	l.lwz r2,0xfffffffc(r1)

06001c2c <hwp_enabled>:
 6001c2c:	9c 63 00 10 	l.addi r3,r3,0x10
 6001c30:	b5 63 00 00 	l.mfspr r11,r3,0x0
 6001c34:	44 00 48 00 	l.jr r9
 6001c38:	a5 6b 00 01 	l.andi r11,r11,0x1

06001c3c <set_hwp>:
 6001c3c:	e1 64 18 00 	l.add r11,r4,r3
 6001c40:	c0 0b 38 00 	l.mtspr r11,r7,0x0
 6001c44:	9d 6b 00 08 	l.addi r11,r11,0x8
 6001c48:	e0 a6 28 04 	l.or r5,r6,r5
 6001c4c:	c0 0b 28 00 	l.mtspr r11,r5,0x0
 6001c50:	9c 84 00 03 	l.addi r4,r4,0x3
 6001c54:	9c 63 00 10 	l.addi r3,r3,0x10
 6001c58:	e0 84 20 00 	l.add r4,r4,r4
 6001c5c:	b4 a3 00 00 	l.mfspr r5,r3,0x0
 6001c60:	e1 08 20 08 	l.sll r8,r8,r4
 6001c64:	e1 05 40 04 	l.or r8,r5,r8
 6001c68:	c0 03 40 00 	l.mtspr r3,r8,0x0
 6001c6c:	44 00 48 00 	l.jr r9
 6001c70:	15 00 00 00 	l.nop 0x0

06001c74 <enable_hwdt>:
 6001c74:	18 c0 00 03 	l.movhi r6,0x3
 6001c78:	9c a3 00 12 	l.addi r5,r3,0x12
 6001c7c:	a8 c6 0c 78 	l.ori r6,r6,0xc78
 6001c80:	e0 84 33 06 	l.mul r4,r4,r6
 6001c84:	c0 05 20 00 	l.mtspr r5,r4,0x0
 6001c88:	9c 63 00 10 	l.addi r3,r3,0x10
 6001c8c:	b4 83 00 00 	l.mfspr r4,r3,0x0
 6001c90:	a8 84 00 04 	l.ori r4,r4,0x4
 6001c94:	c0 03 20 00 	l.mtspr r3,r4,0x0
 6001c98:	44 00 48 00 	l.jr r9
 6001c9c:	15 00 00 00 	l.nop 0x0

06001ca0 <disable_hwdt>:
 6001ca0:	d7 e1 17 fc 	l.sw 0xfffffffc(r1),r2
 6001ca4:	9c 83 00 12 	l.addi r4,r3,0x12
 6001ca8:	9c 21 ff fc 	l.addi r1,r1,0xfffffffc
 6001cac:	9c a0 00 00 	l.addi r5,r0,0x0
 6001cb0:	c0 04 28 00 	l.mtspr r4,r5,0x0
 6001cb4:	9c 40 ff fb 	l.addi r2,r0,0xfffffffb
 6001cb8:	9c 63 00 10 	l.addi r3,r3,0x10
 6001cbc:	b4 83 00 00 	l.mfspr r4,r3,0x0
 6001cc0:	e0 84 10 03 	l.and r4,r4,r2
 6001cc4:	c0 03 20 00 	l.mtspr r3,r4,0x0
 6001cc8:	9c 21 00 04 	l.addi r1,r1,0x4
 6001ccc:	44 00 48 00 	l.jr r9
 6001cd0:	84 41 ff fc 	l.lwz r2,0xfffffffc(r1)

06001cd4 <print_hwp_all_info>:
 6001cd4:	44 00 48 00 	l.jr r9
 6001cd8:	15 00 00 00 	l.nop 0x0

06001cdc <print_hwp_info>:
 6001cdc:	44 00 48 00 	l.jr r9
 6001ce0:	15 00 00 00 	l.nop 0x0

06001ce4 <syscall_xsr>:
 6001ce4:	d7 e1 4f fc 	l.sw 0xfffffffc(r1),r9
 6001ce8:	d7 e1 17 f8 	l.sw 0xfffffff8(r1),r2
 6001cec:	9c 60 00 40 	l.addi r3,r0,0x40
 6001cf0:	07 ff fe de 	l.jal 6001868 <mfspr>
 6001cf4:	9c 21 ff f8 	l.addi r1,r1,0xfffffff8
 6001cf8:	9c 60 00 20 	l.addi r3,r0,0x20
 6001cfc:	07 ff fe db 	l.jal 6001868 <mfspr>
 6001d00:	a8 4b 00 00 	l.ori r2,r11,0x0
 6001d04:	84 8b ff fc 	l.lwz r4,0xfffffffc(r11)
 6001d08:	a4 64 ff ff 	l.andi r3,r4,0xffff
 6001d0c:	a4 84 00 01 	l.andi r4,r4,0x1
 6001d10:	bc 04 00 00 	l.sfeqi r4,0x0
 6001d14:	10 00 00 05 	l.bf 6001d28 <syscall_xsr+0x44>
 6001d18:	a4 83 00 02 	l.andi r4,r3,0x2
 6001d1c:	9c 80 ff fd 	l.addi r4,r0,0xfffffffd
 6001d20:	e0 42 20 03 	l.and r2,r2,r4
 6001d24:	a4 83 00 02 	l.andi r4,r3,0x2
 6001d28:	bc 04 00 00 	l.sfeqi r4,0x0
 6001d2c:	10 00 00 03 	l.bf 6001d38 <syscall_xsr+0x54>
 6001d30:	a4 83 00 04 	l.andi r4,r3,0x4
 6001d34:	a8 42 00 02 	l.ori r2,r2,0x2
 6001d38:	bc 04 00 00 	l.sfeqi r4,0x0
 6001d3c:	10 00 00 03 	l.bf 6001d48 <syscall_xsr+0x64>
 6001d40:	9c 80 ff fb 	l.addi r4,r0,0xfffffffb
 6001d44:	e0 42 20 03 	l.and r2,r2,r4
 6001d48:	a4 63 00 08 	l.andi r3,r3,0x8
 6001d4c:	bc 03 00 00 	l.sfeqi r3,0x0
 6001d50:	10 00 00 03 	l.bf 6001d5c <syscall_xsr+0x78>
 6001d54:	15 00 00 00 	l.nop 0x0
 6001d58:	a8 42 00 04 	l.ori r2,r2,0x4
 6001d5c:	9c 21 00 08 	l.addi r1,r1,0x8
 6001d60:	a8 82 00 00 	l.ori r4,r2,0x0
 6001d64:	9c 60 00 40 	l.addi r3,r0,0x40
 6001d68:	85 21 ff fc 	l.lwz r9,0xfffffffc(r1)
 6001d6c:	03 ff fe bc 	l.j 600185c <mtspr>
 6001d70:	84 41 ff f8 	l.lwz r2,0xfffffff8(r1)

06001d74 <buserr_xsr>:
 6001d74:	d7 e1 4f fc 	l.sw 0xfffffffc(r1),r9
 6001d78:	d7 e1 17 f4 	l.sw 0xfffffff4(r1),r2
 6001d7c:	d7 e1 77 f8 	l.sw 0xfffffff8(r1),r14
 6001d80:	07 ff ff 8b 	l.jal 6001bac <disable_htb>
 6001d84:	9c 21 ff e8 	l.addi r1,r1,0xffffffe8
 6001d88:	04 00 04 6a 	l.jal 6002f30 <CpuIdGet>
 6001d8c:	15 00 00 00 	l.nop 0x0
 6001d90:	9c 60 00 20 	l.addi r3,r0,0x20
 6001d94:	07 ff fe b5 	l.jal 6001868 <mfspr>
 6001d98:	a9 cb 00 00 	l.ori r14,r11,0x0
 6001d9c:	9c 60 00 30 	l.addi r3,r0,0x30
 6001da0:	07 ff fe b2 	l.jal 6001868 <mfspr>
 6001da4:	a8 4b 00 00 	l.ori r2,r11,0x0
 6001da8:	18 60 06 00 	l.movhi r3,0x600
 6001dac:	d4 01 70 00 	l.sw 0x0(r1),r14
 6001db0:	a8 63 10 48 	l.ori r3,r3,0x1048
 6001db4:	d4 01 10 04 	l.sw 0x4(r1),r2
 6001db8:	04 00 01 d9 	l.jal 600251c <_ecm_printf>
 6001dbc:	d4 01 58 08 	l.sw 0x8(r1),r11
 6001dc0:	18 60 06 00 	l.movhi r3,0x600
 6001dc4:	04 00 01 d6 	l.jal 600251c <_ecm_printf>
 6001dc8:	a8 63 10 8d 	l.ori r3,r3,0x108d
 6001dcc:	07 ff fe a7 	l.jal 6001868 <mfspr>
 6001dd0:	9c 60 60 11 	l.addi r3,r0,0x6011
 6001dd4:	bc 0b 00 00 	l.sfeqi r11,0x0
 6001dd8:	0c 00 00 07 	l.bnf 6001df4 <buserr_xsr+0x80>
 6001ddc:	9c 60 60 00 	l.addi r3,r0,0x6000
 6001de0:	07 ff fe a2 	l.jal 6001868 <mfspr>
 6001de4:	9c 60 68 11 	l.addi r3,r0,0x6811
 6001de8:	bc 0b 00 00 	l.sfeqi r11,0x0
 6001dec:	10 00 00 04 	l.bf 6001dfc <buserr_xsr+0x88>
 6001df0:	9c 60 68 00 	l.addi r3,r0,0x6800
 6001df4:	07 ff ff ba 	l.jal 6001cdc <print_hwp_info>
 6001df8:	15 00 00 00 	l.nop 0x0
 6001dfc:	9c 21 00 18 	l.addi r1,r1,0x18
 6001e00:	9c 60 ff ff 	l.addi r3,r0,0xffffffff
 6001e04:	85 21 ff fc 	l.lwz r9,0xfffffffc(r1)
 6001e08:	84 41 ff f4 	l.lwz r2,0xfffffff4(r1)
 6001e0c:	00 00 00 3a 	l.j 6001ef4 <exit>
 6001e10:	85 c1 ff f8 	l.lwz r14,0xfffffff8(r1)

06001e14 <get_xsr_str>:
 6001e14:	d7 e1 17 fc 	l.sw 0xfffffffc(r1),r2
 6001e18:	18 40 04 00 	l.movhi r2,0x400
 6001e1c:	b8 63 00 02 	l.slli r3,r3,0x2
 6001e20:	a8 42 7e 40 	l.ori r2,r2,0x7e40
 6001e24:	9c 21 ff fc 	l.addi r1,r1,0xfffffffc
 6001e28:	e0 63 10 00 	l.add r3,r3,r2
 6001e2c:	85 63 00 00 	l.lwz r11,0x0(r3)
 6001e30:	9c 21 00 04 	l.addi r1,r1,0x4
 6001e34:	44 00 48 00 	l.jr r9
 6001e38:	84 41 ff fc 	l.lwz r2,0xfffffffc(r1)

06001e3c <get_xsr>:
 6001e3c:	d7 e1 17 fc 	l.sw 0xfffffffc(r1),r2
 6001e40:	18 40 04 00 	l.movhi r2,0x400
 6001e44:	b8 63 00 02 	l.slli r3,r3,0x2
 6001e48:	a8 42 7e 7c 	l.ori r2,r2,0x7e7c
 6001e4c:	9c 21 ff fc 	l.addi r1,r1,0xfffffffc
 6001e50:	e0 63 10 00 	l.add r3,r3,r2
 6001e54:	85 63 00 00 	l.lwz r11,0x0(r3)
 6001e58:	9c 21 00 04 	l.addi r1,r1,0x4
 6001e5c:	44 00 48 00 	l.jr r9
 6001e60:	84 41 ff fc 	l.lwz r2,0xfffffffc(r1)

06001e64 <add_xsr>:
 6001e64:	d7 e1 17 fc 	l.sw 0xfffffffc(r1),r2
 6001e68:	18 40 04 00 	l.movhi r2,0x400
 6001e6c:	b8 63 00 02 	l.slli r3,r3,0x2
 6001e70:	a8 42 7e 7c 	l.ori r2,r2,0x7e7c
 6001e74:	9c 21 ff fc 	l.addi r1,r1,0xfffffffc
 6001e78:	e0 63 10 00 	l.add r3,r3,r2
 6001e7c:	d4 03 20 00 	l.sw 0x0(r3),r4
 6001e80:	9c 21 00 04 	l.addi r1,r1,0x4
 6001e84:	44 00 48 00 	l.jr r9
 6001e88:	84 41 ff fc 	l.lwz r2,0xfffffffc(r1)

06001e8c <sys_enable_timer>:
 6001e8c:	20 00 00 02 	l.sys 0x2
 6001e90:	44 00 48 00 	l.jr r9
 6001e94:	15 00 00 00 	l.nop 0x0

06001e98 <sys_disable_timer>:
 6001e98:	20 00 00 01 	l.sys 0x1
 6001e9c:	44 00 48 00 	l.jr r9
 6001ea0:	15 00 00 00 	l.nop 0x0

06001ea4 <sys_enable_ext_int>:
 6001ea4:	20 00 00 08 	l.sys 0x8
 6001ea8:	44 00 48 00 	l.jr r9
 6001eac:	15 00 00 00 	l.nop 0x0

06001eb0 <sys_disable_ext_int>:
 6001eb0:	20 00 00 04 	l.sys 0x4
 6001eb4:	44 00 48 00 	l.jr r9
 6001eb8:	15 00 00 00 	l.nop 0x0

06001ebc <sys_enable_int>:
 6001ebc:	20 00 00 0a 	l.sys 0xa
 6001ec0:	44 00 48 00 	l.jr r9
 6001ec4:	15 00 00 00 	l.nop 0x0

06001ec8 <sys_disable_int>:
 6001ec8:	20 00 00 05 	l.sys 0x5
 6001ecc:	44 00 48 00 	l.jr r9
 6001ed0:	15 00 00 00 	l.nop 0x0

06001ed4 <call>:
 6001ed4:	d7 e1 4f fc 	l.sw 0xfffffffc(r1),r9
 6001ed8:	9c 21 ff fc 	l.addi r1,r1,0xfffffffc
 6001edc:	48 00 18 00 	l.jalr r3
 6001ee0:	15 00 00 00 	l.nop 0x0
 6001ee4:	9c 21 00 04 	l.addi r1,r1,0x4
 6001ee8:	85 21 ff fc 	l.lwz r9,0xfffffffc(r1)
 6001eec:	44 00 48 00 	l.jr r9
 6001ef0:	15 00 00 00 	l.nop 0x0

06001ef4 <exit>:
 6001ef4:	d7 e1 4f fc 	l.sw 0xfffffffc(r1),r9
 6001ef8:	d7 e1 17 f8 	l.sw 0xfffffff8(r1),r2
 6001efc:	9c 21 ff f4 	l.addi r1,r1,0xfffffff4
 6001f00:	07 ff ff 2b 	l.jal 6001bac <disable_htb>
 6001f04:	a8 43 00 00 	l.ori r2,r3,0x0
 6001f08:	18 60 06 00 	l.movhi r3,0x600
 6001f0c:	d4 01 10 00 	l.sw 0x0(r1),r2
 6001f10:	04 00 01 83 	l.jal 600251c <_ecm_printf>
 6001f14:	a8 63 11 db 	l.ori r3,r3,0x11db
 6001f18:	07 ff ff 16 	l.jal 6001b70 <enable_jtag_ctrl_exception>
 6001f1c:	15 00 00 00 	l.nop 0x0
 6001f20:	21 00 00 00 	l.trap 0x0
 6001f24:	00 00 00 00 	l.j 6001f24 <exit+0x30>
 6001f28:	15 00 00 00 	l.nop 0x0

06001f2c <report>:
 6001f2c:	d7 e1 17 f8 	l.sw 0xfffffff8(r1),r2
 6001f30:	a8 43 00 00 	l.ori r2,r3,0x0
 6001f34:	18 60 06 00 	l.movhi r3,0x600
 6001f38:	d7 e1 4f fc 	l.sw 0xfffffffc(r1),r9
 6001f3c:	a8 63 11 e5 	l.ori r3,r3,0x11e5
 6001f40:	04 00 06 39 	l.jal 6003824 <Uart0_Str>
 6001f44:	9c 21 ff f8 	l.addi r1,r1,0xfffffff8
 6001f48:	04 00 06 5f 	l.jal 60038c4 <Uart0_Hex>
 6001f4c:	a8 62 00 00 	l.ori r3,r2,0x0
 6001f50:	18 60 06 00 	l.movhi r3,0x600
 6001f54:	9c 21 00 08 	l.addi r1,r1,0x8
 6001f58:	a8 63 10 c8 	l.ori r3,r3,0x10c8
 6001f5c:	85 21 ff fc 	l.lwz r9,0xfffffffc(r1)
 6001f60:	00 00 06 31 	l.j 6003824 <Uart0_Str>
 6001f64:	84 41 ff f8 	l.lwz r2,0xfffffff8(r1)

06001f68 <printf_null>:
 6001f68:	44 00 48 00 	l.jr r9
 6001f6c:	a9 63 00 00 	l.ori r11,r3,0x0

06001f70 <assert_failed>:
 6001f70:	d7 e1 4f fc 	l.sw 0xfffffffc(r1),r9
 6001f74:	d7 e1 17 f4 	l.sw 0xfffffff4(r1),r2
 6001f78:	d7 e1 77 f8 	l.sw 0xfffffff8(r1),r14
 6001f7c:	9c 21 ff ec 	l.addi r1,r1,0xffffffec
 6001f80:	a9 c3 00 00 	l.ori r14,r3,0x0
 6001f84:	07 ff ff 0a 	l.jal 6001bac <disable_htb>
 6001f88:	a8 44 00 00 	l.ori r2,r4,0x0
 6001f8c:	18 60 06 00 	l.movhi r3,0x600
 6001f90:	d4 01 70 00 	l.sw 0x0(r1),r14
 6001f94:	a8 63 11 e9 	l.ori r3,r3,0x11e9
 6001f98:	04 00 01 61 	l.jal 600251c <_ecm_printf>
 6001f9c:	d4 01 10 04 	l.sw 0x4(r1),r2
 6001fa0:	9c 21 00 14 	l.addi r1,r1,0x14
 6001fa4:	9c 60 ff ff 	l.addi r3,r0,0xffffffff
 6001fa8:	85 21 ff fc 	l.lwz r9,0xfffffffc(r1)
 6001fac:	84 41 ff f4 	l.lwz r2,0xfffffff4(r1)
 6001fb0:	03 ff ff d1 	l.j 6001ef4 <exit>
 6001fb4:	85 c1 ff f8 	l.lwz r14,0xfffffff8(r1)

06001fb8 <throwex>:
 6001fb8:	d7 e1 4f fc 	l.sw 0xfffffffc(r1),r9
 6001fbc:	d7 e1 17 ec 	l.sw 0xffffffec(r1),r2
 6001fc0:	d7 e1 77 f0 	l.sw 0xfffffff0(r1),r14
 6001fc4:	d7 e1 87 f4 	l.sw 0xfffffff4(r1),r16
 6001fc8:	d7 e1 97 f8 	l.sw 0xfffffff8(r1),r18
 6001fcc:	a8 44 00 00 	l.ori r2,r4,0x0
 6001fd0:	9c 21 ff d0 	l.addi r1,r1,0xffffffd0
 6001fd4:	18 80 06 00 	l.movhi r4,0x600
 6001fd8:	a9 c3 00 00 	l.ori r14,r3,0x0
 6001fdc:	aa 45 00 00 	l.ori r18,r5,0x0
 6001fe0:	9c 61 00 10 	l.addi r3,r1,0x10
 6001fe4:	a8 84 0f a0 	l.ori r4,r4,0xfa0
 6001fe8:	9c a0 00 0c 	l.addi r5,r0,0xc
 6001fec:	04 00 0a 3e 	l.jal 60048e4 <memcpy>
 6001ff0:	aa 06 00 00 	l.ori r16,r6,0x0
 6001ff4:	a4 6e 00 03 	l.andi r3,r14,0x3
 6001ff8:	9c 81 00 1c 	l.addi r4,r1,0x1c
 6001ffc:	b8 63 00 02 	l.slli r3,r3,0x2
 6002000:	d4 01 90 00 	l.sw 0x0(r1),r18
 6002004:	d4 01 80 04 	l.sw 0x4(r1),r16
 6002008:	e0 64 18 00 	l.add r3,r4,r3
 600200c:	84 63 ff f4 	l.lwz r3,0xfffffff4(r3)
 6002010:	d4 01 10 0c 	l.sw 0xc(r1),r2
 6002014:	d4 01 18 08 	l.sw 0x8(r1),r3
 6002018:	18 60 06 00 	l.movhi r3,0x600
 600201c:	04 00 01 40 	l.jal 600251c <_ecm_printf>
 6002020:	a8 63 12 03 	l.ori r3,r3,0x1203
 6002024:	9c 21 00 30 	l.addi r1,r1,0x30
 6002028:	85 21 ff fc 	l.lwz r9,0xfffffffc(r1)
 600202c:	84 41 ff ec 	l.lwz r2,0xffffffec(r1)
 6002030:	85 c1 ff f0 	l.lwz r14,0xfffffff0(r1)
 6002034:	86 01 ff f4 	l.lwz r16,0xfffffff4(r1)
 6002038:	44 00 48 00 	l.jr r9
 600203c:	86 41 ff f8 	l.lwz r18,0xfffffff8(r1)

06002040 <strrev>:
 6002040:	d7 e1 17 f8 	l.sw 0xfffffff8(r1),r2
 6002044:	d7 e1 4f fc 	l.sw 0xfffffffc(r1),r9
 6002048:	9c 21 ff f8 	l.addi r1,r1,0xfffffff8
 600204c:	04 00 0a ba 	l.jal 6004b34 <strlen>
 6002050:	a8 43 00 00 	l.ori r2,r3,0x0
 6002054:	9c ab ff ff 	l.addi r5,r11,0xffffffff
 6002058:	a8 82 00 00 	l.ori r4,r2,0x0
 600205c:	00 00 00 08 	l.j 600207c <strrev+0x3c>
 6002060:	e0 a2 28 00 	l.add r5,r2,r5
 6002064:	8c c4 00 00 	l.lbz r6,0x0(r4)
 6002068:	90 65 00 00 	l.lbs r3,0x0(r5)
 600206c:	d8 05 30 00 	l.sb 0x0(r5),r6
 6002070:	d8 04 18 00 	l.sb 0x0(r4),r3
 6002074:	9c a5 ff ff 	l.addi r5,r5,0xffffffff
 6002078:	9c 84 00 01 	l.addi r4,r4,0x1
 600207c:	e4 45 20 00 	l.sfgtu r5,r4
 6002080:	13 ff ff f9 	l.bf 6002064 <strrev+0x24>
 6002084:	a9 62 00 00 	l.ori r11,r2,0x0
 6002088:	9c 21 00 08 	l.addi r1,r1,0x8
 600208c:	85 21 ff fc 	l.lwz r9,0xfffffffc(r1)
 6002090:	44 00 48 00 	l.jr r9
 6002094:	84 41 ff f8 	l.lwz r2,0xfffffff8(r1)

06002098 <itoa>:
 6002098:	d7 e1 17 f0 	l.sw 0xfffffff0(r1),r2
 600209c:	d7 e1 77 f4 	l.sw 0xfffffff4(r1),r14
 60020a0:	d7 e1 87 f8 	l.sw 0xfffffff8(r1),r16
 60020a4:	d7 e1 4f fc 	l.sw 0xfffffffc(r1),r9
 60020a8:	9c 45 ff fe 	l.addi r2,r5,0xfffffffe
 60020ac:	9c 21 ff f0 	l.addi r1,r1,0xfffffff0
 60020b0:	a9 c4 00 00 	l.ori r14,r4,0x0
 60020b4:	bc a2 00 0e 	l.sfleui r2,0xe
 60020b8:	10 00 00 06 	l.bf 60020d0 <itoa+0x38>
 60020bc:	aa 06 00 00 	l.ori r16,r6,0x0
 60020c0:	9c 40 00 00 	l.addi r2,r0,0x0
 60020c4:	9d c0 00 00 	l.addi r14,r0,0x0
 60020c8:	00 00 00 1d 	l.j 600213c <itoa+0xa4>
 60020cc:	d8 04 10 00 	l.sb 0x0(r4),r2
 60020d0:	b8 43 00 9f 	l.srai r2,r3,0x1f
 60020d4:	e0 82 18 05 	l.xor r4,r2,r3
 60020d8:	e0 84 10 02 	l.sub r4,r4,r2
 60020dc:	a8 4e 00 00 	l.ori r2,r14,0x0
 60020e0:	e0 e4 2b 09 	l.div r7,r4,r5
 60020e4:	e0 c7 2b 06 	l.mul r6,r7,r5
 60020e8:	e0 84 30 02 	l.sub r4,r4,r6
 60020ec:	18 c0 04 00 	l.movhi r6,0x400
 60020f0:	bc 27 00 00 	l.sfnei r7,0x0
 60020f4:	a8 c6 7e b8 	l.ori r6,r6,0x7eb8
 60020f8:	e0 84 30 00 	l.add r4,r4,r6
 60020fc:	8c 84 00 00 	l.lbz r4,0x0(r4)
 6002100:	d8 02 20 00 	l.sb 0x0(r2),r4
 6002104:	9c 42 00 01 	l.addi r2,r2,0x1
 6002108:	13 ff ff f6 	l.bf 60020e0 <itoa+0x48>
 600210c:	a8 87 00 00 	l.ori r4,r7,0x0
 6002110:	bd 63 00 00 	l.sfgesi r3,0x0
 6002114:	10 00 00 05 	l.bf 6002128 <itoa+0x90>
 6002118:	9c c0 00 00 	l.addi r6,r0,0x0
 600211c:	9c 60 00 2d 	l.addi r3,r0,0x2d
 6002120:	d8 02 18 00 	l.sb 0x0(r2),r3
 6002124:	9c 42 00 01 	l.addi r2,r2,0x1
 6002128:	a8 6e 00 00 	l.ori r3,r14,0x0
 600212c:	d8 02 30 00 	l.sb 0x0(r2),r6
 6002130:	07 ff ff c4 	l.jal 6002040 <strrev>
 6002134:	e0 42 70 02 	l.sub r2,r2,r14
 6002138:	d4 10 10 00 	l.sw 0x0(r16),r2
 600213c:	9c 21 00 10 	l.addi r1,r1,0x10
 6002140:	a9 6e 00 00 	l.ori r11,r14,0x0
 6002144:	85 21 ff fc 	l.lwz r9,0xfffffffc(r1)
 6002148:	84 41 ff f0 	l.lwz r2,0xfffffff0(r1)
 600214c:	85 c1 ff f4 	l.lwz r14,0xfffffff4(r1)
 6002150:	44 00 48 00 	l.jr r9
 6002154:	86 01 ff f8 	l.lwz r16,0xfffffff8(r1)

06002158 <itoan>:
 6002158:	b8 e7 00 18 	l.slli r7,r7,0x18
 600215c:	d7 e1 17 fc 	l.sw 0xfffffffc(r1),r2
 6002160:	9d 65 ff fe 	l.addi r11,r5,0xfffffffe
 6002164:	9c 21 ff fc 	l.addi r1,r1,0xfffffffc
 6002168:	bc ab 00 0e 	l.sfleui r11,0xe
 600216c:	10 00 00 06 	l.bf 6002184 <itoan+0x2c>
 6002170:	b8 e7 00 98 	l.srai r7,r7,0x18
 6002174:	9c 40 00 00 	l.addi r2,r0,0x0
 6002178:	9d 60 00 00 	l.addi r11,r0,0x0
 600217c:	00 00 00 46 	l.j 6002294 <itoan+0x13c>
 6002180:	d8 04 10 00 	l.sb 0x0(r4),r2
 6002184:	bc 08 00 00 	l.sfeqi r8,0x0
 6002188:	10 00 00 08 	l.bf 60021a8 <itoan+0x50>
 600218c:	9d 64 00 20 	l.addi r11,r4,0x20
 6002190:	9d 00 00 00 	l.addi r8,r0,0x0
 6002194:	e5 63 40 00 	l.sfges r3,r8
 6002198:	10 00 00 05 	l.bf 60021ac <itoan+0x54>
 600219c:	9d 80 00 00 	l.addi r12,r0,0x0
 60021a0:	e0 60 18 02 	l.sub r3,r0,r3
 60021a4:	9d 00 00 01 	l.addi r8,r0,0x1
 60021a8:	9d 80 00 00 	l.addi r12,r0,0x0
 60021ac:	e1 a3 2b 0a 	l.divu r13,r3,r5
 60021b0:	e1 ed 2b 06 	l.mul r15,r13,r5
 60021b4:	18 40 04 00 	l.movhi r2,0x400
 60021b8:	e0 63 78 02 	l.sub r3,r3,r15
 60021bc:	a8 42 7e b8 	l.ori r2,r2,0x7eb8
 60021c0:	9d 8c 00 01 	l.addi r12,r12,0x1
 60021c4:	e0 63 10 00 	l.add r3,r3,r2
 60021c8:	bc 2d 00 00 	l.sfnei r13,0x0
 60021cc:	8c 63 00 00 	l.lbz r3,0x0(r3)
 60021d0:	d8 0b 18 00 	l.sb 0x0(r11),r3
 60021d4:	a8 6d 00 00 	l.ori r3,r13,0x0
 60021d8:	13 ff ff f5 	l.bf 60021ac <itoan+0x54>
 60021dc:	9d 6b 00 01 	l.addi r11,r11,0x1
 60021e0:	e0 c6 60 02 	l.sub r6,r6,r12
 60021e4:	e0 c6 40 02 	l.sub r6,r6,r8
 60021e8:	a5 08 00 ff 	l.andi r8,r8,0xff
 60021ec:	bc 08 00 00 	l.sfeqi r8,0x0
 60021f0:	10 00 00 0d 	l.bf 6002224 <itoan+0xcc>
 60021f4:	9d 60 00 00 	l.addi r11,r0,0x0
 60021f8:	ac 67 00 20 	l.xori r3,r7,0x20
 60021fc:	a4 63 00 ff 	l.andi r3,r3,0xff
 6002200:	bc 03 00 00 	l.sfeqi r3,0x0
 6002204:	10 00 00 08 	l.bf 6002224 <itoan+0xcc>
 6002208:	9c 40 00 2d 	l.addi r2,r0,0x2d
 600220c:	9d 60 00 01 	l.addi r11,r0,0x1
 6002210:	00 00 00 05 	l.j 6002224 <itoan+0xcc>
 6002214:	d8 04 10 00 	l.sb 0x0(r4),r2
 6002218:	9c c6 ff ff 	l.addi r6,r6,0xffffffff
 600221c:	d8 03 38 00 	l.sb 0x0(r3),r7
 6002220:	9d 6b 00 01 	l.addi r11,r11,0x1
 6002224:	bd 46 00 00 	l.sfgtsi r6,0x0
 6002228:	13 ff ff fc 	l.bf 6002218 <itoan+0xc0>
 600222c:	e0 64 58 00 	l.add r3,r4,r11
 6002230:	bc 08 00 00 	l.sfeqi r8,0x0
 6002234:	10 00 00 0c 	l.bf 6002264 <itoan+0x10c>
 6002238:	9c 6c 00 1f 	l.addi r3,r12,0x1f
 600223c:	ac e7 00 20 	l.xori r7,r7,0x20
 6002240:	a4 e7 00 ff 	l.andi r7,r7,0xff
 6002244:	9c e7 ff ff 	l.addi r7,r7,0xffffffff
 6002248:	bd 67 00 00 	l.sfgesi r7,0x0
 600224c:	10 00 00 06 	l.bf 6002264 <itoan+0x10c>
 6002250:	9c 40 00 2d 	l.addi r2,r0,0x2d
 6002254:	e0 64 58 00 	l.add r3,r4,r11
 6002258:	9d 6b 00 01 	l.addi r11,r11,0x1
 600225c:	d8 03 10 00 	l.sb 0x0(r3),r2
 6002260:	9c 6c 00 1f 	l.addi r3,r12,0x1f
 6002264:	e0 64 18 00 	l.add r3,r4,r3
 6002268:	8c 43 00 00 	l.lbz r2,0x0(r3)
 600226c:	e0 a4 58 00 	l.add r5,r4,r11
 6002270:	9d 8c ff ff 	l.addi r12,r12,0xffffffff
 6002274:	d8 05 10 00 	l.sb 0x0(r5),r2
 6002278:	9d 6b 00 01 	l.addi r11,r11,0x1
 600227c:	bd 4c 00 00 	l.sfgtsi r12,0x0
 6002280:	13 ff ff fa 	l.bf 6002268 <itoan+0x110>
 6002284:	9c 63 ff ff 	l.addi r3,r3,0xffffffff
 6002288:	e0 84 58 00 	l.add r4,r4,r11
 600228c:	9c 40 00 00 	l.addi r2,r0,0x0
 6002290:	d8 04 10 00 	l.sb 0x0(r4),r2
 6002294:	9c 21 00 04 	l.addi r1,r1,0x4
 6002298:	44 00 48 00 	l.jr r9
 600229c:	84 41 ff fc 	l.lwz r2,0xfffffffc(r1)

060022a0 <uitoan>:
 60022a0:	b8 e7 00 18 	l.slli r7,r7,0x18
 60022a4:	d7 e1 17 f4 	l.sw 0xfffffff4(r1),r2
 60022a8:	d7 e1 77 f8 	l.sw 0xfffffff8(r1),r14
 60022ac:	d7 e1 4f fc 	l.sw 0xfffffffc(r1),r9
 60022b0:	a9 c4 00 00 	l.ori r14,r4,0x0
 60022b4:	9c 85 ff fe 	l.addi r4,r5,0xfffffffe
 60022b8:	9c 21 ff f4 	l.addi r1,r1,0xfffffff4
 60022bc:	b8 e7 00 98 	l.srai r7,r7,0x18
 60022c0:	bc a4 00 0e 	l.sfleui r4,0xe
 60022c4:	10 00 00 06 	l.bf 60022dc <uitoan+0x3c>
 60022c8:	a8 4e 00 00 	l.ori r2,r14,0x0
 60022cc:	9c 40 00 00 	l.addi r2,r0,0x0
 60022d0:	9d 60 00 00 	l.addi r11,r0,0x0
 60022d4:	00 00 00 1b 	l.j 6002340 <uitoan+0xa0>
 60022d8:	d8 0e 10 00 	l.sb 0x0(r14),r2
 60022dc:	e0 83 2b 0a 	l.divu r4,r3,r5
 60022e0:	e1 04 2b 06 	l.mul r8,r4,r5
 60022e4:	e0 63 40 02 	l.sub r3,r3,r8
 60022e8:	19 00 04 00 	l.movhi r8,0x400
 60022ec:	bc 24 00 00 	l.sfnei r4,0x0
 60022f0:	a9 08 7e b8 	l.ori r8,r8,0x7eb8
 60022f4:	e0 63 40 00 	l.add r3,r3,r8
 60022f8:	8c 63 00 00 	l.lbz r3,0x0(r3)
 60022fc:	d8 02 18 00 	l.sb 0x0(r2),r3
 6002300:	9c 42 00 01 	l.addi r2,r2,0x1
 6002304:	13 ff ff f6 	l.bf 60022dc <uitoan+0x3c>
 6002308:	a8 64 00 00 	l.ori r3,r4,0x0
 600230c:	00 00 00 05 	l.j 6002320 <uitoan+0x80>
 6002310:	e0 62 70 02 	l.sub r3,r2,r14
 6002314:	d8 02 38 00 	l.sb 0x0(r2),r7
 6002318:	9c 63 00 01 	l.addi r3,r3,0x1
 600231c:	9c 42 00 01 	l.addi r2,r2,0x1
 6002320:	e5 83 30 00 	l.sflts r3,r6
 6002324:	13 ff ff fc 	l.bf 6002314 <uitoan+0x74>
 6002328:	15 00 00 00 	l.nop 0x0
 600232c:	9c 60 00 00 	l.addi r3,r0,0x0
 6002330:	d8 02 18 00 	l.sb 0x0(r2),r3
 6002334:	07 ff ff 43 	l.jal 6002040 <strrev>
 6002338:	a8 6e 00 00 	l.ori r3,r14,0x0
 600233c:	e1 62 70 02 	l.sub r11,r2,r14
 6002340:	9c 21 00 0c 	l.addi r1,r1,0xc
 6002344:	85 21 ff fc 	l.lwz r9,0xfffffffc(r1)
 6002348:	84 41 ff f4 	l.lwz r2,0xfffffff4(r1)
 600234c:	44 00 48 00 	l.jr r9
 6002350:	85 c1 ff f8 	l.lwz r14,0xfffffff8(r1)

06002354 <sprintf>:
 6002354:	d7 e1 4f fc 	l.sw 0xfffffffc(r1),r9
 6002358:	9c 21 ff fc 	l.addi r1,r1,0xfffffffc
 600235c:	a8 a4 00 00 	l.ori r5,r4,0x0
 6002360:	9c c1 00 04 	l.addi r6,r1,0x4
 6002364:	04 00 01 6d 	l.jal 6002918 <vsnprintf>
 6002368:	9c 80 ff ff 	l.addi r4,r0,0xffffffff
 600236c:	9c 21 00 04 	l.addi r1,r1,0x4
 6002370:	85 21 ff fc 	l.lwz r9,0xfffffffc(r1)
 6002374:	44 00 48 00 	l.jr r9
 6002378:	15 00 00 00 	l.nop 0x0

0600237c <snprintf>:
 600237c:	d7 e1 4f fc 	l.sw 0xfffffffc(r1),r9
 6002380:	9c 21 ff fc 	l.addi r1,r1,0xfffffffc
 6002384:	04 00 01 65 	l.jal 6002918 <vsnprintf>
 6002388:	9c c1 00 04 	l.addi r6,r1,0x4
 600238c:	9c 21 00 04 	l.addi r1,r1,0x4
 6002390:	85 21 ff fc 	l.lwz r9,0xfffffffc(r1)
 6002394:	44 00 48 00 	l.jr r9
 6002398:	15 00 00 00 	l.nop 0x0

0600239c <jtag_printf>:
 600239c:	d7 e1 17 ec 	l.sw 0xffffffec(r1),r2
 60023a0:	d7 e1 77 f0 	l.sw 0xfffffff0(r1),r14
 60023a4:	d7 e1 87 f4 	l.sw 0xfffffff4(r1),r16
 60023a8:	d7 e1 4f fc 	l.sw 0xfffffffc(r1),r9
 60023ac:	d7 e1 97 f8 	l.sw 0xfffffff8(r1),r18
 60023b0:	18 40 f9 40 	l.movhi r2,0xf940
 60023b4:	18 c0 f0 01 	l.movhi r6,0xf001
 60023b8:	84 42 00 00 	l.lwz r2,0x0(r2)
 60023bc:	9c 21 ff e8 	l.addi r1,r1,0xffffffe8
 60023c0:	a4 42 00 30 	l.andi r2,r2,0x30
 60023c4:	aa 03 00 00 	l.ori r16,r3,0x0
 60023c8:	a9 c4 00 00 	l.ori r14,r4,0x0
 60023cc:	bc 22 00 00 	l.sfnei r2,0x0
 60023d0:	10 00 00 0a 	l.bf 60023f8 <jtag_printf+0x5c>
 60023d4:	a8 c6 00 00 	l.ori r6,r6,0x0
 60023d8:	18 60 f7 6c 	l.movhi r3,0xf76c
 60023dc:	84 46 00 1c 	l.lwz r2,0x1c(r6)
 60023e0:	a8 63 00 01 	l.ori r3,r3,0x1
 60023e4:	9e 46 00 1c 	l.addi r18,r6,0x1c
 60023e8:	e0 42 18 00 	l.add r2,r2,r3
 60023ec:	84 66 00 1c 	l.lwz r3,0x1c(r6)
 60023f0:	00 00 00 09 	l.j 6002414 <jtag_printf+0x78>
 60023f4:	e0 42 20 00 	l.add r2,r2,r4
 60023f8:	18 60 f7 6a 	l.movhi r3,0xf76a
 60023fc:	84 46 00 24 	l.lwz r2,0x24(r6)
 6002400:	a8 63 00 01 	l.ori r3,r3,0x1
 6002404:	9e 46 00 24 	l.addi r18,r6,0x24
 6002408:	e0 42 18 00 	l.add r2,r2,r3
 600240c:	84 66 00 24 	l.lwz r3,0x24(r6)
 6002410:	e0 42 20 00 	l.add r2,r2,r4
 6002414:	bd 82 00 00 	l.sfltsi r2,0x0
 6002418:	10 00 00 22 	l.bf 60024a0 <jtag_printf+0x104>
 600241c:	a8 ae 00 00 	l.ori r5,r14,0x0
 6002420:	e1 ce 10 02 	l.sub r14,r14,r2
 6002424:	bd ae 00 00 	l.sflesi r14,0x0
 6002428:	10 00 00 04 	l.bf 6002438 <jtag_printf+0x9c>
 600242c:	a8 90 00 00 	l.ori r4,r16,0x0
 6002430:	04 00 04 1a 	l.jal 6003498 <DmaMemCpy_ip>
 6002434:	a8 ae 00 00 	l.ori r5,r14,0x0
 6002438:	18 60 f9 40 	l.movhi r3,0xf940
 600243c:	18 c0 f0 01 	l.movhi r6,0xf001
 6002440:	84 63 00 00 	l.lwz r3,0x0(r3)
 6002444:	a4 63 00 30 	l.andi r3,r3,0x30
 6002448:	bc 23 00 00 	l.sfnei r3,0x0
 600244c:	10 00 00 05 	l.bf 6002460 <jtag_printf+0xc4>
 6002450:	a8 c6 00 00 	l.ori r6,r6,0x0
 6002454:	84 66 00 18 	l.lwz r3,0x18(r6)
 6002458:	00 00 00 03 	l.j 6002464 <jtag_printf+0xc8>
 600245c:	15 00 00 00 	l.nop 0x0
 6002460:	84 66 00 20 	l.lwz r3,0x20(r6)
 6002464:	d4 01 18 00 	l.sw 0x0(r1),r3
 6002468:	bc 02 00 00 	l.sfeqi r2,0x0
 600246c:	10 00 00 09 	l.bf 6002490 <jtag_printf+0xf4>
 6002470:	15 00 00 00 	l.nop 0x0
 6002474:	84 61 00 00 	l.lwz r3,0x0(r1)
 6002478:	a8 a2 00 00 	l.ori r5,r2,0x0
 600247c:	04 00 04 07 	l.jal 6003498 <DmaMemCpy_ip>
 6002480:	e0 90 70 00 	l.add r4,r16,r14
 6002484:	84 61 00 00 	l.lwz r3,0x0(r1)
 6002488:	e0 42 18 00 	l.add r2,r2,r3
 600248c:	d4 01 10 00 	l.sw 0x0(r1),r2
 6002490:	84 41 00 00 	l.lwz r2,0x0(r1)
 6002494:	d4 12 10 00 	l.sw 0x0(r18),r2
 6002498:	00 00 00 08 	l.j 60024b8 <jtag_printf+0x11c>
 600249c:	9c 21 00 18 	l.addi r1,r1,0x18
 60024a0:	04 00 03 fe 	l.jal 6003498 <DmaMemCpy_ip>
 60024a4:	a8 90 00 00 	l.ori r4,r16,0x0
 60024a8:	84 52 00 00 	l.lwz r2,0x0(r18)
 60024ac:	e1 c2 70 00 	l.add r14,r2,r14
 60024b0:	d4 12 70 00 	l.sw 0x0(r18),r14
 60024b4:	9c 21 00 18 	l.addi r1,r1,0x18
 60024b8:	85 21 ff fc 	l.lwz r9,0xfffffffc(r1)
 60024bc:	84 41 ff ec 	l.lwz r2,0xffffffec(r1)
 60024c0:	85 c1 ff f0 	l.lwz r14,0xfffffff0(r1)
 60024c4:	86 01 ff f4 	l.lwz r16,0xfffffff4(r1)
 60024c8:	44 00 48 00 	l.jr r9
 60024cc:	86 41 ff f8 	l.lwz r18,0xfffffff8(r1)

060024d0 <_ecm_jprintf>:
 60024d0:	d7 e1 4f fc 	l.sw 0xfffffffc(r1),r9
 60024d4:	d7 e1 17 f4 	l.sw 0xfffffff4(r1),r2
 60024d8:	d7 e1 77 f8 	l.sw 0xfffffff8(r1),r14
 60024dc:	9c 21 fb f4 	l.addi r1,r1,0xfffffbf4
 60024e0:	a8 a3 00 00 	l.ori r5,r3,0x0
 60024e4:	9c c1 04 0c 	l.addi r6,r1,0x40c
 60024e8:	a8 61 00 00 	l.ori r3,r1,0x0
 60024ec:	04 00 01 0b 	l.jal 6002918 <vsnprintf>
 60024f0:	9c 80 04 00 	l.addi r4,r0,0x400
 60024f4:	a8 61 00 00 	l.ori r3,r1,0x0
 60024f8:	a8 8b 00 00 	l.ori r4,r11,0x0
 60024fc:	07 ff ff a8 	l.jal 600239c <jtag_printf>
 6002500:	a8 4b 00 00 	l.ori r2,r11,0x0
 6002504:	9c 21 04 0c 	l.addi r1,r1,0x40c
 6002508:	a9 62 00 00 	l.ori r11,r2,0x0
 600250c:	85 21 ff fc 	l.lwz r9,0xfffffffc(r1)
 6002510:	84 41 ff f4 	l.lwz r2,0xfffffff4(r1)
 6002514:	44 00 48 00 	l.jr r9
 6002518:	85 c1 ff f8 	l.lwz r14,0xfffffff8(r1)

0600251c <_ecm_printf>:
 600251c:	d7 e1 4f fc 	l.sw 0xfffffffc(r1),r9
 6002520:	d7 e1 17 f4 	l.sw 0xfffffff4(r1),r2
 6002524:	d7 e1 77 f8 	l.sw 0xfffffff8(r1),r14
 6002528:	9c 21 fb dc 	l.addi r1,r1,0xfffffbdc
 600252c:	a8 43 00 00 	l.ori r2,r3,0x0
 6002530:	9c 80 00 00 	l.addi r4,r0,0x0
 6002534:	a8 61 00 00 	l.ori r3,r1,0x0
 6002538:	04 00 09 2f 	l.jal 60049f4 <memset>
 600253c:	9c a0 04 00 	l.addi r5,r0,0x400
 6002540:	9c 60 00 02 	l.addi r3,r0,0x2
 6002544:	9c 80 ff b0 	l.addi r4,r0,0xffffffb0
 6002548:	d8 01 18 00 	l.sb 0x0(r1),r3
 600254c:	d8 01 20 01 	l.sb 0x1(r1),r4
 6002550:	a8 a2 00 00 	l.ori r5,r2,0x0
 6002554:	9c 61 00 03 	l.addi r3,r1,0x3
 6002558:	9c 80 03 fd 	l.addi r4,r0,0x3fd
 600255c:	04 00 00 ef 	l.jal 6002918 <vsnprintf>
 6002560:	9c c1 04 24 	l.addi r6,r1,0x424
 6002564:	bd ab 00 ff 	l.sflesi r11,0xff
 6002568:	10 00 00 14 	l.bf 60025b8 <_ecm_printf+0x9c>
 600256c:	a8 4b 00 00 	l.ori r2,r11,0x0
 6002570:	9d c1 04 00 	l.addi r14,r1,0x400
 6002574:	18 80 06 00 	l.movhi r4,0x600
 6002578:	9c a0 00 15 	l.addi r5,r0,0x15
 600257c:	a8 84 0f ac 	l.ori r4,r4,0xfac
 6002580:	04 00 08 d9 	l.jal 60048e4 <memcpy>
 6002584:	a8 6e 00 00 	l.ori r3,r14,0x0
 6002588:	04 00 04 a7 	l.jal 6003824 <Uart0_Str>
 600258c:	a8 6e 00 00 	l.ori r3,r14,0x0
 6002590:	04 00 04 cd 	l.jal 60038c4 <Uart0_Hex>
 6002594:	a8 62 00 00 	l.ori r3,r2,0x0
 6002598:	04 00 04 7d 	l.jal 600378c <Uart0_Tx>
 600259c:	9c 60 00 29 	l.addi r3,r0,0x29
 60025a0:	04 00 04 7b 	l.jal 600378c <Uart0_Tx>
 60025a4:	9c 60 00 0d 	l.addi r3,r0,0xd
 60025a8:	04 00 04 79 	l.jal 600378c <Uart0_Tx>
 60025ac:	9c 60 00 0a 	l.addi r3,r0,0xa
 60025b0:	04 00 04 77 	l.jal 600378c <Uart0_Tx>
 60025b4:	9c 60 00 03 	l.addi r3,r0,0x3
 60025b8:	9c 81 04 18 	l.addi r4,r1,0x418
 60025bc:	d8 01 10 02 	l.sb 0x2(r1),r2
 60025c0:	e0 64 10 00 	l.add r3,r4,r2
 60025c4:	9c 80 00 03 	l.addi r4,r0,0x3
 60025c8:	a9 c1 00 00 	l.ori r14,r1,0x0
 60025cc:	db e3 23 eb 	l.sb 0xfffffbeb(r3),r4
 60025d0:	9c 80 00 00 	l.addi r4,r0,0x0
 60025d4:	00 00 00 04 	l.j 60025e4 <_ecm_printf+0xc8>
 60025d8:	db e3 23 ec 	l.sb 0xfffffbec(r3),r4
 60025dc:	04 00 04 6c 	l.jal 600378c <Uart0_Tx>
 60025e0:	9d ce 00 01 	l.addi r14,r14,0x1
 60025e4:	90 6e 00 00 	l.lbs r3,0x0(r14)
 60025e8:	bc 23 00 00 	l.sfnei r3,0x0
 60025ec:	13 ff ff fc 	l.bf 60025dc <_ecm_printf+0xc0>
 60025f0:	a9 62 00 00 	l.ori r11,r2,0x0
 60025f4:	9c 21 04 24 	l.addi r1,r1,0x424
 60025f8:	85 21 ff fc 	l.lwz r9,0xfffffffc(r1)
 60025fc:	84 41 ff f4 	l.lwz r2,0xfffffff4(r1)
 6002600:	44 00 48 00 	l.jr r9
 6002604:	85 c1 ff f8 	l.lwz r14,0xfffffff8(r1)

06002608 <_printf>:
 6002608:	d7 e1 17 f4 	l.sw 0xfffffff4(r1),r2
 600260c:	d7 e1 4f fc 	l.sw 0xfffffffc(r1),r9
 6002610:	d7 e1 77 f8 	l.sw 0xfffffff8(r1),r14
 6002614:	9c 21 fb e0 	l.addi r1,r1,0xfffffbe0
 6002618:	a8 a3 00 00 	l.ori r5,r3,0x0
 600261c:	9c 80 04 00 	l.addi r4,r0,0x400
 6002620:	a8 61 00 00 	l.ori r3,r1,0x0
 6002624:	04 00 00 bd 	l.jal 6002918 <vsnprintf>
 6002628:	9c c1 04 20 	l.addi r6,r1,0x420
 600262c:	bd ab 03 ff 	l.sflesi r11,0x3ff
 6002630:	10 00 00 12 	l.bf 6002678 <_printf+0x70>
 6002634:	a8 4b 00 00 	l.ori r2,r11,0x0
 6002638:	9d c1 04 00 	l.addi r14,r1,0x400
 600263c:	18 80 06 00 	l.movhi r4,0x600
 6002640:	9c a0 00 12 	l.addi r5,r0,0x12
 6002644:	a8 84 12 2b 	l.ori r4,r4,0x122b
 6002648:	04 00 08 a7 	l.jal 60048e4 <memcpy>
 600264c:	a8 6e 00 00 	l.ori r3,r14,0x0
 6002650:	04 00 04 75 	l.jal 6003824 <Uart0_Str>
 6002654:	a8 6e 00 00 	l.ori r3,r14,0x0
 6002658:	04 00 04 9b 	l.jal 60038c4 <Uart0_Hex>
 600265c:	a8 62 00 00 	l.ori r3,r2,0x0
 6002660:	04 00 04 4b 	l.jal 600378c <Uart0_Tx>
 6002664:	9c 60 00 29 	l.addi r3,r0,0x29
 6002668:	04 00 04 49 	l.jal 600378c <Uart0_Tx>
 600266c:	9c 60 00 0d 	l.addi r3,r0,0xd
 6002670:	04 00 04 47 	l.jal 600378c <Uart0_Tx>
 6002674:	9c 60 00 0a 	l.addi r3,r0,0xa
 6002678:	00 00 00 04 	l.j 6002688 <_printf+0x80>
 600267c:	a9 c1 00 00 	l.ori r14,r1,0x0
 6002680:	04 00 04 43 	l.jal 600378c <Uart0_Tx>
 6002684:	9d ce 00 01 	l.addi r14,r14,0x1
 6002688:	90 6e 00 00 	l.lbs r3,0x0(r14)
 600268c:	bc 23 00 00 	l.sfnei r3,0x0
 6002690:	13 ff ff fc 	l.bf 6002680 <_printf+0x78>
 6002694:	a9 62 00 00 	l.ori r11,r2,0x0
 6002698:	9c 21 04 20 	l.addi r1,r1,0x420
 600269c:	85 21 ff fc 	l.lwz r9,0xfffffffc(r1)
 60026a0:	84 41 ff f4 	l.lwz r2,0xfffffff4(r1)
 60026a4:	44 00 48 00 	l.jr r9
 60026a8:	85 c1 ff f8 	l.lwz r14,0xfffffff8(r1)

060026ac <number>:
 60026ac:	d7 e1 17 fc 	l.sw 0xfffffffc(r1),r2
 60026b0:	a5 68 00 40 	l.andi r11,r8,0x40
 60026b4:	1a 20 06 00 	l.movhi r17,0x600
 60026b8:	9c 21 ff b8 	l.addi r1,r1,0xffffffb8
 60026bc:	bc 0b 00 00 	l.sfeqi r11,0x0
 60026c0:	10 00 00 04 	l.bf 60026d0 <number+0x24>
 60026c4:	aa 31 12 3d 	l.ori r17,r17,0x123d
 60026c8:	1a 20 06 00 	l.movhi r17,0x600
 60026cc:	aa 31 12 62 	l.ori r17,r17,0x1262
 60026d0:	a5 68 00 10 	l.andi r11,r8,0x10
 60026d4:	bc 0b 00 00 	l.sfeqi r11,0x0
 60026d8:	10 00 00 04 	l.bf 60026e8 <number+0x3c>
 60026dc:	9d 65 ff fe 	l.addi r11,r5,0xfffffffe
 60026e0:	9c 40 ff fe 	l.addi r2,r0,0xfffffffe
 60026e4:	e1 08 10 03 	l.and r8,r8,r2
 60026e8:	bc 4b 00 22 	l.sfgtui r11,0x22
 60026ec:	10 00 00 86 	l.bf 6002904 <number+0x258>
 60026f0:	a5 68 00 01 	l.andi r11,r8,0x1
 60026f4:	bc 0b 00 00 	l.sfeqi r11,0x0
 60026f8:	10 00 00 03 	l.bf 6002704 <number+0x58>
 60026fc:	9d a0 00 20 	l.addi r13,r0,0x20
 6002700:	9d a0 00 30 	l.addi r13,r0,0x30
 6002704:	a5 88 00 02 	l.andi r12,r8,0x2
 6002708:	bc 0c 00 00 	l.sfeqi r12,0x0
 600270c:	10 00 00 15 	l.bf 6002760 <number+0xb4>
 6002710:	a5 e8 00 20 	l.andi r15,r8,0x20
 6002714:	bd 64 00 00 	l.sfgesi r4,0x0
 6002718:	10 00 00 06 	l.bf 6002730 <number+0x84>
 600271c:	a5 68 00 04 	l.andi r11,r8,0x4
 6002720:	e0 80 20 02 	l.sub r4,r0,r4
 6002724:	9c c6 ff ff 	l.addi r6,r6,0xffffffff
 6002728:	00 00 00 0e 	l.j 6002760 <number+0xb4>
 600272c:	9d 80 00 2d 	l.addi r12,r0,0x2d
 6002730:	bc 0b 00 00 	l.sfeqi r11,0x0
 6002734:	10 00 00 04 	l.bf 6002744 <number+0x98>
 6002738:	9d 80 00 2b 	l.addi r12,r0,0x2b
 600273c:	00 00 00 08 	l.j 600275c <number+0xb0>
 6002740:	9c c6 ff ff 	l.addi r6,r6,0xffffffff
 6002744:	a5 88 00 08 	l.andi r12,r8,0x8
 6002748:	bc 0c 00 00 	l.sfeqi r12,0x0
 600274c:	10 00 00 05 	l.bf 6002760 <number+0xb4>
 6002750:	a5 e8 00 20 	l.andi r15,r8,0x20
 6002754:	9c c6 ff ff 	l.addi r6,r6,0xffffffff
 6002758:	9d 80 00 20 	l.addi r12,r0,0x20
 600275c:	a5 e8 00 20 	l.andi r15,r8,0x20
 6002760:	bc 0f 00 00 	l.sfeqi r15,0x0
 6002764:	10 00 00 0a 	l.bf 600278c <number+0xe0>
 6002768:	9d 60 00 00 	l.addi r11,r0,0x0
 600276c:	bc 25 00 10 	l.sfnei r5,0x10
 6002770:	10 00 00 04 	l.bf 6002780 <number+0xd4>
 6002774:	bc 25 00 08 	l.sfnei r5,0x8
 6002778:	00 00 00 05 	l.j 600278c <number+0xe0>
 600277c:	9c c6 ff fe 	l.addi r6,r6,0xfffffffe
 6002780:	10 00 00 03 	l.bf 600278c <number+0xe0>
 6002784:	9d 60 00 00 	l.addi r11,r0,0x0
 6002788:	9c c6 ff ff 	l.addi r6,r6,0xffffffff
 600278c:	e4 24 58 00 	l.sfne r4,r11
 6002790:	10 00 00 06 	l.bf 60027a8 <number+0xfc>
 6002794:	aa a1 00 00 	l.ori r21,r1,0x0
 6002798:	9c 40 00 30 	l.addi r2,r0,0x30
 600279c:	9d 60 00 01 	l.addi r11,r0,0x1
 60027a0:	00 00 00 0d 	l.j 60027d4 <number+0x128>
 60027a4:	d8 01 10 00 	l.sb 0x0(r1),r2
 60027a8:	e2 64 2b 0a 	l.divu r19,r4,r5
 60027ac:	e3 33 2b 06 	l.mul r25,r19,r5
 60027b0:	e0 84 c8 02 	l.sub r4,r4,r25
 60027b4:	e2 f5 58 00 	l.add r23,r21,r11
 60027b8:	e0 91 20 00 	l.add r4,r17,r4
 60027bc:	9d 6b 00 01 	l.addi r11,r11,0x1
 60027c0:	8c 84 00 00 	l.lbz r4,0x0(r4)
 60027c4:	d8 17 20 00 	l.sb 0x0(r23),r4
 60027c8:	bc 33 00 00 	l.sfnei r19,0x0
 60027cc:	13 ff ff f7 	l.bf 60027a8 <number+0xfc>
 60027d0:	a8 93 00 00 	l.ori r4,r19,0x0
 60027d4:	e5 6b 38 00 	l.sfges r11,r7
 60027d8:	10 00 00 03 	l.bf 60027e4 <number+0x138>
 60027dc:	a8 8b 00 00 	l.ori r4,r11,0x0
 60027e0:	a8 87 00 00 	l.ori r4,r7,0x0
 60027e4:	a4 e8 00 11 	l.andi r7,r8,0x11
 60027e8:	bc 27 00 00 	l.sfnei r7,0x0
 60027ec:	10 00 00 0b 	l.bf 6002818 <number+0x16c>
 60027f0:	e0 c6 20 02 	l.sub r6,r6,r4
 60027f4:	00 00 00 05 	l.j 6002808 <number+0x15c>
 60027f8:	9c c6 ff ff 	l.addi r6,r6,0xffffffff
 60027fc:	d8 03 10 00 	l.sb 0x0(r3),r2
 6002800:	9c 63 00 01 	l.addi r3,r3,0x1
 6002804:	9c c6 ff ff 	l.addi r6,r6,0xffffffff
 6002808:	9c e6 00 01 	l.addi r7,r6,0x1
 600280c:	bd 47 00 00 	l.sfgtsi r7,0x0
 6002810:	13 ff ff fb 	l.bf 60027fc <number+0x150>
 6002814:	9c 40 00 20 	l.addi r2,r0,0x20
 6002818:	bc 0c 00 00 	l.sfeqi r12,0x0
 600281c:	10 00 00 04 	l.bf 600282c <number+0x180>
 6002820:	bc 0f 00 00 	l.sfeqi r15,0x0
 6002824:	d8 03 60 00 	l.sb 0x0(r3),r12
 6002828:	9c 63 00 01 	l.addi r3,r3,0x1
 600282c:	10 00 00 0e 	l.bf 6002864 <number+0x1b8>
 6002830:	bc 25 00 08 	l.sfnei r5,0x8
 6002834:	10 00 00 06 	l.bf 600284c <number+0x1a0>
 6002838:	bc 25 00 10 	l.sfnei r5,0x10
 600283c:	9c 40 00 30 	l.addi r2,r0,0x30
 6002840:	d8 03 10 00 	l.sb 0x0(r3),r2
 6002844:	00 00 00 08 	l.j 6002864 <number+0x1b8>
 6002848:	9c 63 00 01 	l.addi r3,r3,0x1
 600284c:	10 00 00 06 	l.bf 6002864 <number+0x1b8>
 6002850:	9c 40 00 30 	l.addi r2,r0,0x30
 6002854:	d8 03 10 00 	l.sb 0x0(r3),r2
 6002858:	9c 40 00 78 	l.addi r2,r0,0x78
 600285c:	d8 03 10 01 	l.sb 0x1(r3),r2
 6002860:	9c 63 00 02 	l.addi r3,r3,0x2
 6002864:	a5 08 00 10 	l.andi r8,r8,0x10
 6002868:	bc 28 00 00 	l.sfnei r8,0x0
 600286c:	10 00 00 11 	l.bf 60028b0 <number+0x204>
 6002870:	e5 8b 20 00 	l.sflts r11,r4
 6002874:	00 00 00 05 	l.j 6002888 <number+0x1dc>
 6002878:	9c c6 ff ff 	l.addi r6,r6,0xffffffff
 600287c:	d8 03 68 00 	l.sb 0x0(r3),r13
 6002880:	9c 63 00 01 	l.addi r3,r3,0x1
 6002884:	9c c6 ff ff 	l.addi r6,r6,0xffffffff
 6002888:	9c a6 00 01 	l.addi r5,r6,0x1
 600288c:	bd 45 00 00 	l.sfgtsi r5,0x0
 6002890:	13 ff ff fb 	l.bf 600287c <number+0x1d0>
 6002894:	e5 8b 20 00 	l.sflts r11,r4
 6002898:	00 00 00 06 	l.j 60028b0 <number+0x204>
 600289c:	15 00 00 00 	l.nop 0x0
 60028a0:	9c 84 ff ff 	l.addi r4,r4,0xffffffff
 60028a4:	d8 03 10 00 	l.sb 0x0(r3),r2
 60028a8:	9c 63 00 01 	l.addi r3,r3,0x1
 60028ac:	e5 8b 20 00 	l.sflts r11,r4
 60028b0:	13 ff ff fc 	l.bf 60028a0 <number+0x1f4>
 60028b4:	9c 40 00 30 	l.addi r2,r0,0x30
 60028b8:	a8 81 00 00 	l.ori r4,r1,0x0
 60028bc:	9d 6b ff ff 	l.addi r11,r11,0xffffffff
 60028c0:	e0 a4 58 00 	l.add r5,r4,r11
 60028c4:	bd 4b 00 00 	l.sfgtsi r11,0x0
 60028c8:	8c a5 00 00 	l.lbz r5,0x0(r5)
 60028cc:	d8 03 28 00 	l.sb 0x0(r3),r5
 60028d0:	13 ff ff fb 	l.bf 60028bc <number+0x210>
 60028d4:	9c 63 00 01 	l.addi r3,r3,0x1
 60028d8:	00 00 00 07 	l.j 60028f4 <number+0x248>
 60028dc:	bd 46 00 00 	l.sfgtsi r6,0x0
 60028e0:	9c 40 00 20 	l.addi r2,r0,0x20
 60028e4:	9c c6 ff ff 	l.addi r6,r6,0xffffffff
 60028e8:	d8 03 10 00 	l.sb 0x0(r3),r2
 60028ec:	9c 63 00 01 	l.addi r3,r3,0x1
 60028f0:	bd 46 00 00 	l.sfgtsi r6,0x0
 60028f4:	13 ff ff fb 	l.bf 60028e0 <number+0x234>
 60028f8:	15 00 00 00 	l.nop 0x0
 60028fc:	00 00 00 04 	l.j 600290c <number+0x260>
 6002900:	9c 21 00 48 	l.addi r1,r1,0x48
 6002904:	9c 60 00 00 	l.addi r3,r0,0x0
 6002908:	9c 21 00 48 	l.addi r1,r1,0x48
 600290c:	a9 63 00 00 	l.ori r11,r3,0x0
 6002910:	44 00 48 00 	l.jr r9
 6002914:	84 41 ff fc 	l.lwz r2,0xfffffffc(r1)

06002918 <vsnprintf>:
 6002918:	d7 e1 17 dc 	l.sw 0xffffffdc(r1),r2
 600291c:	d7 e1 77 e0 	l.sw 0xffffffe0(r1),r14
 6002920:	d7 e1 87 e4 	l.sw 0xffffffe4(r1),r16
 6002924:	d7 e1 d7 f8 	l.sw 0xfffffff8(r1),r26
 6002928:	d7 e1 4f fc 	l.sw 0xfffffffc(r1),r9
 600292c:	d7 e1 97 e8 	l.sw 0xffffffe8(r1),r18
 6002930:	d7 e1 a7 ec 	l.sw 0xffffffec(r1),r20
 6002934:	d7 e1 b7 f0 	l.sw 0xfffffff0(r1),r22
 6002938:	d7 e1 c7 f4 	l.sw 0xfffffff4(r1),r24
 600293c:	ab 43 00 00 	l.ori r26,r3,0x0
 6002940:	9c 21 ff dc 	l.addi r1,r1,0xffffffdc
 6002944:	aa 05 00 00 	l.ori r16,r5,0x0
 6002948:	a9 86 00 00 	l.ori r12,r6,0x0
 600294c:	9d c4 ff ff 	l.addi r14,r4,0xffffffff
 6002950:	00 00 01 4a 	l.j 6002e78 <vsnprintf+0x560>
 6002954:	a8 43 00 00 	l.ori r2,r3,0x0
 6002958:	10 00 01 1e 	l.bf 6002dd0 <vsnprintf+0x4b8>
 600295c:	9e 40 00 00 	l.addi r18,r0,0x0
 6002960:	9e 10 00 01 	l.addi r16,r16,0x1
 6002964:	90 90 00 00 	l.lbs r4,0x0(r16)
 6002968:	bc 04 00 2b 	l.sfeqi r4,0x2b
 600296c:	10 00 00 13 	l.bf 60029b8 <vsnprintf+0xa0>
 6002970:	bd 44 00 2b 	l.sfgtsi r4,0x2b
 6002974:	10 00 00 09 	l.bf 6002998 <vsnprintf+0x80>
 6002978:	bc 04 00 2d 	l.sfeqi r4,0x2d
 600297c:	bc 04 00 20 	l.sfeqi r4,0x20
 6002980:	10 00 00 10 	l.bf 60029c0 <vsnprintf+0xa8>
 6002984:	bc 04 00 23 	l.sfeqi r4,0x23
 6002988:	0c 00 00 14 	l.bnf 60029d8 <vsnprintf+0xc0>
 600298c:	15 00 00 00 	l.nop 0x0
 6002990:	00 00 00 0e 	l.j 60029c8 <vsnprintf+0xb0>
 6002994:	aa 52 00 20 	l.ori r18,r18,0x20
 6002998:	10 00 00 06 	l.bf 60029b0 <vsnprintf+0x98>
 600299c:	bc 04 00 30 	l.sfeqi r4,0x30
 60029a0:	0c 00 00 0e 	l.bnf 60029d8 <vsnprintf+0xc0>
 60029a4:	15 00 00 00 	l.nop 0x0
 60029a8:	00 00 00 0a 	l.j 60029d0 <vsnprintf+0xb8>
 60029ac:	aa 52 00 01 	l.ori r18,r18,0x1
 60029b0:	03 ff ff ec 	l.j 6002960 <vsnprintf+0x48>
 60029b4:	aa 52 00 10 	l.ori r18,r18,0x10
 60029b8:	03 ff ff ea 	l.j 6002960 <vsnprintf+0x48>
 60029bc:	aa 52 00 04 	l.ori r18,r18,0x4
 60029c0:	03 ff ff e8 	l.j 6002960 <vsnprintf+0x48>
 60029c4:	aa 52 00 08 	l.ori r18,r18,0x8
 60029c8:	03 ff ff e7 	l.j 6002964 <vsnprintf+0x4c>
 60029cc:	9e 10 00 01 	l.addi r16,r16,0x1
 60029d0:	03 ff ff e5 	l.j 6002964 <vsnprintf+0x4c>
 60029d4:	9e 10 00 01 	l.addi r16,r16,0x1
 60029d8:	9c 64 ff d0 	l.addi r3,r4,0xffffffd0
 60029dc:	a4 63 00 ff 	l.andi r3,r3,0xff
 60029e0:	bc 43 00 09 	l.sfgtui r3,0x9
 60029e4:	0c 00 00 08 	l.bnf 6002a04 <vsnprintf+0xec>
 60029e8:	9e 80 00 00 	l.addi r20,r0,0x0
 60029ec:	00 00 00 0e 	l.j 6002a24 <vsnprintf+0x10c>
 60029f0:	9e 80 ff ff 	l.addi r20,r0,0xffffffff
 60029f4:	ba 94 00 03 	l.slli r20,r20,0x3
 60029f8:	9e 10 00 01 	l.addi r16,r16,0x1
 60029fc:	e2 84 a0 00 	l.add r20,r4,r20
 6002a00:	e2 83 a0 00 	l.add r20,r3,r20
 6002a04:	90 70 00 00 	l.lbs r3,0x0(r16)
 6002a08:	9c 63 ff d0 	l.addi r3,r3,0xffffffd0
 6002a0c:	a4 83 00 ff 	l.andi r4,r3,0xff
 6002a10:	bc a4 00 09 	l.sfleui r4,0x9
 6002a14:	13 ff ff f8 	l.bf 60029f4 <vsnprintf+0xdc>
 6002a18:	e0 94 a0 00 	l.add r4,r20,r20
 6002a1c:	00 00 00 0d 	l.j 6002a50 <vsnprintf+0x138>
 6002a20:	90 70 00 00 	l.lbs r3,0x0(r16)
 6002a24:	bc 24 00 2a 	l.sfnei r4,0x2a
 6002a28:	10 00 00 09 	l.bf 6002a4c <vsnprintf+0x134>
 6002a2c:	15 00 00 00 	l.nop 0x0
 6002a30:	86 8c 00 00 	l.lwz r20,0x0(r12)
 6002a34:	9e 10 00 01 	l.addi r16,r16,0x1
 6002a38:	bd 74 00 00 	l.sfgesi r20,0x0
 6002a3c:	10 00 00 04 	l.bf 6002a4c <vsnprintf+0x134>
 6002a40:	9d 8c 00 04 	l.addi r12,r12,0x4
 6002a44:	e2 80 a0 02 	l.sub r20,r0,r20
 6002a48:	aa 52 00 10 	l.ori r18,r18,0x10
 6002a4c:	90 70 00 00 	l.lbs r3,0x0(r16)
 6002a50:	bc 23 00 2e 	l.sfnei r3,0x2e
 6002a54:	10 00 00 1e 	l.bf 6002acc <vsnprintf+0x1b4>
 6002a58:	9c e0 ff ff 	l.addi r7,r0,0xffffffff
 6002a5c:	9e 10 00 01 	l.addi r16,r16,0x1
 6002a60:	90 70 00 00 	l.lbs r3,0x0(r16)
 6002a64:	9c 83 ff d0 	l.addi r4,r3,0xffffffd0
 6002a68:	a4 84 00 ff 	l.andi r4,r4,0xff
 6002a6c:	bc 44 00 09 	l.sfgtui r4,0x9
 6002a70:	0c 00 00 09 	l.bnf 6002a94 <vsnprintf+0x17c>
 6002a74:	9c e0 00 00 	l.addi r7,r0,0x0
 6002a78:	00 00 00 0e 	l.j 6002ab0 <vsnprintf+0x198>
 6002a7c:	9c e0 ff ff 	l.addi r7,r0,0xffffffff
 6002a80:	b8 e7 00 03 	l.slli r7,r7,0x3
 6002a84:	9e 10 00 01 	l.addi r16,r16,0x1
 6002a88:	e0 e4 38 00 	l.add r7,r4,r7
 6002a8c:	e0 e3 38 00 	l.add r7,r3,r7
 6002a90:	90 70 00 00 	l.lbs r3,0x0(r16)
 6002a94:	9c 63 ff d0 	l.addi r3,r3,0xffffffd0
 6002a98:	a4 83 00 ff 	l.andi r4,r3,0xff
 6002a9c:	bc a4 00 09 	l.sfleui r4,0x9
 6002aa0:	13 ff ff f8 	l.bf 6002a80 <vsnprintf+0x168>
 6002aa4:	e0 87 38 00 	l.add r4,r7,r7
 6002aa8:	00 00 00 0a 	l.j 6002ad0 <vsnprintf+0x1b8>
 6002aac:	9c c0 00 01 	l.addi r6,r0,0x1
 6002ab0:	bc 23 00 2a 	l.sfnei r3,0x2a
 6002ab4:	10 00 00 07 	l.bf 6002ad0 <vsnprintf+0x1b8>
 6002ab8:	9c c0 00 01 	l.addi r6,r0,0x1
 6002abc:	84 ec 00 00 	l.lwz r7,0x0(r12)
 6002ac0:	9e 10 00 01 	l.addi r16,r16,0x1
 6002ac4:	00 00 00 03 	l.j 6002ad0 <vsnprintf+0x1b8>
 6002ac8:	9d 8c 00 04 	l.addi r12,r12,0x4
 6002acc:	9c c0 00 00 	l.addi r6,r0,0x0
 6002ad0:	90 b0 00 00 	l.lbs r5,0x0(r16)
 6002ad4:	ac 65 00 6c 	l.xori r3,r5,0x6c
 6002ad8:	a4 63 00 ff 	l.andi r3,r3,0xff
 6002adc:	9c 63 ff ff 	l.addi r3,r3,0xffffffff
 6002ae0:	bd 83 00 00 	l.sfltsi r3,0x0
 6002ae4:	10 00 00 0d 	l.bf 6002b18 <vsnprintf+0x200>
 6002ae8:	a8 85 00 00 	l.ori r4,r5,0x0
 6002aec:	ac 65 00 68 	l.xori r3,r5,0x68
 6002af0:	a4 63 00 ff 	l.andi r3,r3,0xff
 6002af4:	9c 63 ff ff 	l.addi r3,r3,0xffffffff
 6002af8:	bd 83 00 00 	l.sfltsi r3,0x0
 6002afc:	10 00 00 07 	l.bf 6002b18 <vsnprintf+0x200>
 6002b00:	bc 05 00 4c 	l.sfeqi r5,0x4c
 6002b04:	10 00 00 05 	l.bf 6002b18 <vsnprintf+0x200>
 6002b08:	bc 25 00 49 	l.sfnei r5,0x49
 6002b0c:	10 00 00 04 	l.bf 6002b1c <vsnprintf+0x204>
 6002b10:	9c 80 ff ff 	l.addi r4,r0,0xffffffff
 6002b14:	a8 85 00 00 	l.ori r4,r5,0x0
 6002b18:	9e 10 00 01 	l.addi r16,r16,0x1
 6002b1c:	90 70 00 00 	l.lbs r3,0x0(r16)
 6002b20:	9c a3 ff a8 	l.addi r5,r3,0xffffffa8
 6002b24:	a4 a5 00 ff 	l.andi r5,r5,0xff
 6002b28:	bc 45 00 20 	l.sfgtui r5,0x20
 6002b2c:	10 00 00 89 	l.bf 6002d50 <vsnprintf+0x438>
 6002b30:	19 00 06 00 	l.movhi r8,0x600
 6002b34:	b8 a5 00 02 	l.slli r5,r5,0x2
 6002b38:	a9 08 0f c4 	l.ori r8,r8,0xfc4
 6002b3c:	e0 a5 40 00 	l.add r5,r5,r8
 6002b40:	84 a5 00 00 	l.lwz r5,0x0(r5)
 6002b44:	44 00 28 00 	l.jr r5
 6002b48:	15 00 00 00 	l.nop 0x0
 6002b4c:	a6 52 00 10 	l.andi r18,r18,0x10
 6002b50:	bc 32 00 00 	l.sfnei r18,0x0
 6002b54:	10 00 00 13 	l.bf 6002ba0 <vsnprintf+0x288>
 6002b58:	15 00 00 00 	l.nop 0x0
 6002b5c:	00 00 00 06 	l.j 6002b74 <vsnprintf+0x25c>
 6002b60:	9e 94 ff ff 	l.addi r20,r20,0xffffffff
 6002b64:	9d ce ff ff 	l.addi r14,r14,0xffffffff
 6002b68:	d8 02 18 00 	l.sb 0x0(r2),r3
 6002b6c:	9c 42 00 01 	l.addi r2,r2,0x1
 6002b70:	9e 94 ff ff 	l.addi r20,r20,0xffffffff
 6002b74:	bd b4 00 00 	l.sflesi r20,0x0
 6002b78:	10 00 00 06 	l.bf 6002b90 <vsnprintf+0x278>
 6002b7c:	bc 2e 00 00 	l.sfnei r14,0x0
 6002b80:	13 ff ff f9 	l.bf 6002b64 <vsnprintf+0x24c>
 6002b84:	9c 60 00 20 	l.addi r3,r0,0x20
 6002b88:	00 00 00 10 	l.j 6002bc8 <vsnprintf+0x2b0>
 6002b8c:	9e 94 ff ff 	l.addi r20,r20,0xffffffff
 6002b90:	bc 0e 00 00 	l.sfeqi r14,0x0
 6002b94:	10 00 00 0d 	l.bf 6002bc8 <vsnprintf+0x2b0>
 6002b98:	9e 94 ff ff 	l.addi r20,r20,0xffffffff
 6002b9c:	9e 94 00 01 	l.addi r20,r20,0x1
 6002ba0:	84 6c 00 00 	l.lwz r3,0x0(r12)
 6002ba4:	9d ce ff ff 	l.addi r14,r14,0xffffffff
 6002ba8:	d8 02 18 00 	l.sb 0x0(r2),r3
 6002bac:	9d 8c 00 04 	l.addi r12,r12,0x4
 6002bb0:	00 00 00 05 	l.j 6002bc4 <vsnprintf+0x2ac>
 6002bb4:	9c 42 00 01 	l.addi r2,r2,0x1
 6002bb8:	9d ce ff ff 	l.addi r14,r14,0xffffffff
 6002bbc:	d8 02 40 00 	l.sb 0x0(r2),r8
 6002bc0:	9c 42 00 01 	l.addi r2,r2,0x1
 6002bc4:	9e 94 ff ff 	l.addi r20,r20,0xffffffff
 6002bc8:	bd b4 00 00 	l.sflesi r20,0x0
 6002bcc:	10 00 00 a8 	l.bf 6002e6c <vsnprintf+0x554>
 6002bd0:	bc 2e 00 00 	l.sfnei r14,0x0
 6002bd4:	13 ff ff f9 	l.bf 6002bb8 <vsnprintf+0x2a0>
 6002bd8:	9d 00 00 20 	l.addi r8,r0,0x20
 6002bdc:	00 00 00 a5 	l.j 6002e70 <vsnprintf+0x558>
 6002be0:	aa cc 00 00 	l.ori r22,r12,0x0
 6002be4:	bd 67 00 00 	l.sfgesi r7,0x0
 6002be8:	10 00 00 05 	l.bf 6002bfc <vsnprintf+0x2e4>
 6002bec:	bc 06 00 00 	l.sfeqi r6,0x0
 6002bf0:	10 00 00 03 	l.bf 6002bfc <vsnprintf+0x2e4>
 6002bf4:	15 00 00 00 	l.nop 0x0
 6002bf8:	9c e0 00 00 	l.addi r7,r0,0x0
 6002bfc:	87 0c 00 00 	l.lwz r24,0x0(r12)
 6002c00:	bc 18 00 00 	l.sfeqi r24,0x0
 6002c04:	0c 00 00 04 	l.bnf 6002c14 <vsnprintf+0x2fc>
 6002c08:	9e cc 00 04 	l.addi r22,r12,0x4
 6002c0c:	1b 00 06 00 	l.movhi r24,0x600
 6002c10:	ab 18 12 87 	l.ori r24,r24,0x1287
 6002c14:	a8 78 00 00 	l.ori r3,r24,0x0
 6002c18:	a8 87 00 00 	l.ori r4,r7,0x0
 6002c1c:	04 00 08 4f 	l.jal 6004d58 <strnlen>
 6002c20:	a6 52 00 10 	l.andi r18,r18,0x10
 6002c24:	bc 32 00 00 	l.sfnei r18,0x0
 6002c28:	10 00 00 15 	l.bf 6002c7c <vsnprintf+0x364>
 6002c2c:	9c 80 00 00 	l.addi r4,r0,0x0
 6002c30:	00 00 00 06 	l.j 6002c48 <vsnprintf+0x330>
 6002c34:	9e 94 ff ff 	l.addi r20,r20,0xffffffff
 6002c38:	9d ce ff ff 	l.addi r14,r14,0xffffffff
 6002c3c:	d8 02 18 00 	l.sb 0x0(r2),r3
 6002c40:	9c 42 00 01 	l.addi r2,r2,0x1
 6002c44:	9e 94 ff ff 	l.addi r20,r20,0xffffffff
 6002c48:	9c 74 00 01 	l.addi r3,r20,0x1
 6002c4c:	e5 6b 18 00 	l.sfges r11,r3
 6002c50:	10 00 00 04 	l.bf 6002c60 <vsnprintf+0x348>
 6002c54:	bc 2e 00 00 	l.sfnei r14,0x0
 6002c58:	13 ff ff f8 	l.bf 6002c38 <vsnprintf+0x320>
 6002c5c:	9c 60 00 20 	l.addi r3,r0,0x20
 6002c60:	00 00 00 07 	l.j 6002c7c <vsnprintf+0x364>
 6002c64:	9c 80 00 00 	l.addi r4,r0,0x0
 6002c68:	9d ce ff ff 	l.addi r14,r14,0xffffffff
 6002c6c:	8c 63 00 00 	l.lbz r3,0x0(r3)
 6002c70:	9c 84 00 01 	l.addi r4,r4,0x1
 6002c74:	d8 02 18 00 	l.sb 0x0(r2),r3
 6002c78:	9c 42 00 01 	l.addi r2,r2,0x1
 6002c7c:	e0 60 70 02 	l.sub r3,r0,r14
 6002c80:	e0 63 70 04 	l.or r3,r3,r14
 6002c84:	bd 63 00 00 	l.sfgesi r3,0x0
 6002c88:	10 00 00 0f 	l.bf 6002cc4 <vsnprintf+0x3ac>
 6002c8c:	e5 84 58 00 	l.sflts r4,r11
 6002c90:	10 00 00 03 	l.bf 6002c9c <vsnprintf+0x384>
 6002c94:	9c 60 00 01 	l.addi r3,r0,0x1
 6002c98:	9c 60 00 00 	l.addi r3,r0,0x0
 6002c9c:	a4 63 00 ff 	l.andi r3,r3,0xff
 6002ca0:	bc 23 00 00 	l.sfnei r3,0x0
 6002ca4:	13 ff ff f1 	l.bf 6002c68 <vsnprintf+0x350>
 6002ca8:	e0 78 20 00 	l.add r3,r24,r4
 6002cac:	00 00 00 07 	l.j 6002cc8 <vsnprintf+0x3b0>
 6002cb0:	e5 6b a0 00 	l.sfges r11,r20
 6002cb4:	9d 00 00 20 	l.addi r8,r0,0x20
 6002cb8:	9d ce ff ff 	l.addi r14,r14,0xffffffff
 6002cbc:	d8 02 40 00 	l.sb 0x0(r2),r8
 6002cc0:	9c 42 00 01 	l.addi r2,r2,0x1
 6002cc4:	e5 6b a0 00 	l.sfges r11,r20
 6002cc8:	10 00 00 6a 	l.bf 6002e70 <vsnprintf+0x558>
 6002ccc:	bc 2e 00 00 	l.sfnei r14,0x0
 6002cd0:	13 ff ff f9 	l.bf 6002cb4 <vsnprintf+0x39c>
 6002cd4:	9e 94 ff ff 	l.addi r20,r20,0xffffffff
 6002cd8:	00 00 00 67 	l.j 6002e74 <vsnprintf+0x55c>
 6002cdc:	9e 10 00 01 	l.addi r16,r16,0x1
 6002ce0:	bd 67 00 00 	l.sfgesi r7,0x0
 6002ce4:	10 00 00 06 	l.bf 6002cfc <vsnprintf+0x3e4>
 6002ce8:	bc 34 ff ff 	l.sfnei r20,0xffffffff
 6002cec:	bc 06 00 00 	l.sfeqi r6,0x0
 6002cf0:	10 00 00 03 	l.bf 6002cfc <vsnprintf+0x3e4>
 6002cf4:	bc 34 ff ff 	l.sfnei r20,0xffffffff
 6002cf8:	9c e0 00 00 	l.addi r7,r0,0x0
 6002cfc:	10 00 00 04 	l.bf 6002d0c <vsnprintf+0x3f4>
 6002d00:	15 00 00 00 	l.nop 0x0
 6002d04:	aa 52 00 01 	l.ori r18,r18,0x1
 6002d08:	9e 80 00 08 	l.addi r20,r0,0x8
 6002d0c:	9e cc 00 04 	l.addi r22,r12,0x4
 6002d10:	a8 62 00 00 	l.ori r3,r2,0x0
 6002d14:	84 8c 00 00 	l.lwz r4,0x0(r12)
 6002d18:	00 00 00 50 	l.j 6002e58 <vsnprintf+0x540>
 6002d1c:	9c a0 00 10 	l.addi r5,r0,0x10
 6002d20:	e0 62 d0 02 	l.sub r3,r2,r26
 6002d24:	84 8c 00 00 	l.lwz r4,0x0(r12)
 6002d28:	9e cc 00 04 	l.addi r22,r12,0x4
 6002d2c:	00 00 00 51 	l.j 6002e70 <vsnprintf+0x558>
 6002d30:	d4 04 18 00 	l.sw 0x0(r4),r3
 6002d34:	00 00 00 30 	l.j 6002df4 <vsnprintf+0x4dc>
 6002d38:	9c a0 00 08 	l.addi r5,r0,0x8
 6002d3c:	00 00 00 2d 	l.j 6002df0 <vsnprintf+0x4d8>
 6002d40:	aa 52 00 02 	l.ori r18,r18,0x2
 6002d44:	aa 52 00 40 	l.ori r18,r18,0x40
 6002d48:	00 00 00 2b 	l.j 6002df4 <vsnprintf+0x4dc>
 6002d4c:	9c a0 00 10 	l.addi r5,r0,0x10
 6002d50:	ac 63 00 25 	l.xori r3,r3,0x25
 6002d54:	a4 63 00 ff 	l.andi r3,r3,0xff
 6002d58:	bc 03 00 00 	l.sfeqi r3,0x0
 6002d5c:	10 00 00 07 	l.bf 6002d78 <vsnprintf+0x460>
 6002d60:	e0 60 70 02 	l.sub r3,r0,r14
 6002d64:	9c 60 00 25 	l.addi r3,r0,0x25
 6002d68:	9d ce ff ff 	l.addi r14,r14,0xffffffff
 6002d6c:	d8 02 18 00 	l.sb 0x0(r2),r3
 6002d70:	9c 42 00 01 	l.addi r2,r2,0x1
 6002d74:	e0 60 70 02 	l.sub r3,r0,r14
 6002d78:	e0 63 70 04 	l.or r3,r3,r14
 6002d7c:	bd 63 00 00 	l.sfgesi r3,0x0
 6002d80:	10 00 00 0b 	l.bf 6002dac <vsnprintf+0x494>
 6002d84:	ac 84 00 6c 	l.xori r4,r4,0x6c
 6002d88:	e0 60 20 02 	l.sub r3,r0,r4
 6002d8c:	e0 83 20 04 	l.or r4,r3,r4
 6002d90:	bd 84 00 00 	l.sfltsi r4,0x0
 6002d94:	10 00 00 07 	l.bf 6002db0 <vsnprintf+0x498>
 6002d98:	e0 80 70 02 	l.sub r4,r0,r14
 6002d9c:	9d 00 00 6c 	l.addi r8,r0,0x6c
 6002da0:	9d ce ff ff 	l.addi r14,r14,0xffffffff
 6002da4:	d8 02 40 00 	l.sb 0x0(r2),r8
 6002da8:	9c 42 00 01 	l.addi r2,r2,0x1
 6002dac:	e0 80 70 02 	l.sub r4,r0,r14
 6002db0:	e0 84 70 04 	l.or r4,r4,r14
 6002db4:	bd 64 00 00 	l.sfgesi r4,0x0
 6002db8:	10 00 00 0a 	l.bf 6002de0 <vsnprintf+0x4c8>
 6002dbc:	90 70 00 00 	l.lbs r3,0x0(r16)
 6002dc0:	a4 83 00 ff 	l.andi r4,r3,0xff
 6002dc4:	bc 04 00 00 	l.sfeqi r4,0x0
 6002dc8:	10 00 00 06 	l.bf 6002de0 <vsnprintf+0x4c8>
 6002dcc:	15 00 00 00 	l.nop 0x0
 6002dd0:	d8 02 18 00 	l.sb 0x0(r2),r3
 6002dd4:	9d ce ff ff 	l.addi r14,r14,0xffffffff
 6002dd8:	00 00 00 25 	l.j 6002e6c <vsnprintf+0x554>
 6002ddc:	9c 42 00 01 	l.addi r2,r2,0x1
 6002de0:	00 00 00 23 	l.j 6002e6c <vsnprintf+0x554>
 6002de4:	9e 10 ff ff 	l.addi r16,r16,0xffffffff
 6002de8:	00 00 00 03 	l.j 6002df4 <vsnprintf+0x4dc>
 6002dec:	9c a0 00 02 	l.addi r5,r0,0x2
 6002df0:	9c a0 00 0a 	l.addi r5,r0,0xa
 6002df4:	bc 24 00 6c 	l.sfnei r4,0x6c
 6002df8:	0c 00 00 0f 	l.bnf 6002e34 <vsnprintf+0x51c>
 6002dfc:	9e cc 00 04 	l.addi r22,r12,0x4
 6002e00:	bc 24 00 68 	l.sfnei r4,0x68
 6002e04:	10 00 00 0b 	l.bf 6002e30 <vsnprintf+0x518>
 6002e08:	a4 72 00 02 	l.andi r3,r18,0x2
 6002e0c:	bc 03 00 00 	l.sfeqi r3,0x0
 6002e10:	9e cc 00 04 	l.addi r22,r12,0x4
 6002e14:	10 00 00 05 	l.bf 6002e28 <vsnprintf+0x510>
 6002e18:	84 8c 00 00 	l.lwz r4,0x0(r12)
 6002e1c:	b8 84 00 10 	l.slli r4,r4,0x10
 6002e20:	00 00 00 06 	l.j 6002e38 <vsnprintf+0x520>
 6002e24:	b8 84 00 90 	l.srai r4,r4,0x10
 6002e28:	00 00 00 04 	l.j 6002e38 <vsnprintf+0x520>
 6002e2c:	a4 84 ff ff 	l.andi r4,r4,0xffff
 6002e30:	9e cc 00 04 	l.addi r22,r12,0x4
 6002e34:	84 8c 00 00 	l.lwz r4,0x0(r12)
 6002e38:	bd 67 00 00 	l.sfgesi r7,0x0
 6002e3c:	10 00 00 07 	l.bf 6002e58 <vsnprintf+0x540>
 6002e40:	a8 62 00 00 	l.ori r3,r2,0x0
 6002e44:	bc 06 00 00 	l.sfeqi r6,0x0
 6002e48:	10 00 00 05 	l.bf 6002e5c <vsnprintf+0x544>
 6002e4c:	a8 d4 00 00 	l.ori r6,r20,0x0
 6002e50:	9c e0 00 00 	l.addi r7,r0,0x0
 6002e54:	a8 62 00 00 	l.ori r3,r2,0x0
 6002e58:	a8 d4 00 00 	l.ori r6,r20,0x0
 6002e5c:	07 ff fe 14 	l.jal 60026ac <number>
 6002e60:	a9 12 00 00 	l.ori r8,r18,0x0
 6002e64:	00 00 00 03 	l.j 6002e70 <vsnprintf+0x558>
 6002e68:	a8 4b 00 00 	l.ori r2,r11,0x0
 6002e6c:	aa cc 00 00 	l.ori r22,r12,0x0
 6002e70:	9e 10 00 01 	l.addi r16,r16,0x1
 6002e74:	a9 96 00 00 	l.ori r12,r22,0x0
 6002e78:	90 70 00 00 	l.lbs r3,0x0(r16)
 6002e7c:	a4 83 00 ff 	l.andi r4,r3,0xff
 6002e80:	bc 04 00 00 	l.sfeqi r4,0x0
 6002e84:	10 00 00 06 	l.bf 6002e9c <vsnprintf+0x584>
 6002e88:	e0 80 70 02 	l.sub r4,r0,r14
 6002e8c:	e0 84 70 04 	l.or r4,r4,r14
 6002e90:	bd 84 00 00 	l.sfltsi r4,0x0
 6002e94:	13 ff fe b1 	l.bf 6002958 <vsnprintf+0x40>
 6002e98:	bc 23 00 25 	l.sfnei r3,0x25
 6002e9c:	9c 60 00 00 	l.addi r3,r0,0x0
 6002ea0:	e1 62 d0 02 	l.sub r11,r2,r26
 6002ea4:	d8 02 18 00 	l.sb 0x0(r2),r3
 6002ea8:	9c 21 00 24 	l.addi r1,r1,0x24
 6002eac:	85 21 ff fc 	l.lwz r9,0xfffffffc(r1)
 6002eb0:	84 41 ff dc 	l.lwz r2,0xffffffdc(r1)
 6002eb4:	85 c1 ff e0 	l.lwz r14,0xffffffe0(r1)
 6002eb8:	86 01 ff e4 	l.lwz r16,0xffffffe4(r1)
 6002ebc:	86 41 ff e8 	l.lwz r18,0xffffffe8(r1)
 6002ec0:	86 81 ff ec 	l.lwz r20,0xffffffec(r1)
 6002ec4:	86 c1 ff f0 	l.lwz r22,0xfffffff0(r1)
 6002ec8:	87 01 ff f4 	l.lwz r24,0xfffffff4(r1)
 6002ecc:	44 00 48 00 	l.jr r9
 6002ed0:	87 41 ff f8 	l.lwz r26,0xfffffff8(r1)

06002ed4 <hw_wait_us>:
 6002ed4:	d7 e1 77 f8 	l.sw 0xfffffff8(r1),r14
 6002ed8:	9d c0 00 c7 	l.addi r14,r0,0xc7
 6002edc:	d7 e1 17 f4 	l.sw 0xfffffff4(r1),r2
 6002ee0:	d7 e1 4f fc 	l.sw 0xfffffffc(r1),r9
 6002ee4:	e1 c3 73 06 	l.mul r14,r3,r14
 6002ee8:	9c 21 ff f4 	l.addi r1,r1,0xfffffff4
 6002eec:	07 ff fa 5f 	l.jal 6001868 <mfspr>
 6002ef0:	9c 60 76 00 	l.addi r3,r0,0x7600
 6002ef4:	a8 4b 00 00 	l.ori r2,r11,0x0
 6002ef8:	07 ff fa 5c 	l.jal 6001868 <mfspr>
 6002efc:	9c 60 76 00 	l.addi r3,r0,0x7600
 6002f00:	e4 6b 10 00 	l.sfgeu r11,r2
 6002f04:	10 00 00 03 	l.bf 6002f10 <hw_wait_us+0x3c>
 6002f08:	e0 8b 10 02 	l.sub r4,r11,r2
 6002f0c:	e0 80 20 02 	l.sub r4,r0,r4
 6002f10:	e4 84 70 00 	l.sfltu r4,r14
 6002f14:	13 ff ff f9 	l.bf 6002ef8 <hw_wait_us+0x24>
 6002f18:	15 00 00 00 	l.nop 0x0
 6002f1c:	9c 21 00 0c 	l.addi r1,r1,0xc
 6002f20:	85 21 ff fc 	l.lwz r9,0xfffffffc(r1)
 6002f24:	84 41 ff f4 	l.lwz r2,0xfffffff4(r1)
 6002f28:	44 00 48 00 	l.jr r9
 6002f2c:	85 c1 ff f8 	l.lwz r14,0xfffffff8(r1)

06002f30 <CpuIdGet>:
 6002f30:	18 60 f9 40 	l.movhi r3,0xf940
 6002f34:	85 63 00 00 	l.lwz r11,0x0(r3)
 6002f38:	b9 6b 00 44 	l.srli r11,r11,0x4
 6002f3c:	44 00 48 00 	l.jr r9
 6002f40:	a5 6b 00 03 	l.andi r11,r11,0x3

06002f44 <GetKey>:
 6002f44:	d7 e1 17 fc 	l.sw 0xfffffffc(r1),r2
 6002f48:	18 40 f9 40 	l.movhi r2,0xf940
 6002f4c:	9c 21 ff fc 	l.addi r1,r1,0xfffffffc
 6002f50:	a8 42 00 40 	l.ori r2,r2,0x40
 6002f54:	e0 63 10 00 	l.add r3,r3,r2
 6002f58:	85 63 00 00 	l.lwz r11,0x0(r3)
 6002f5c:	9c 21 00 04 	l.addi r1,r1,0x4
 6002f60:	a5 6b 00 ff 	l.andi r11,r11,0xff
 6002f64:	44 00 48 00 	l.jr r9
 6002f68:	84 41 ff fc 	l.lwz r2,0xfffffffc(r1)

06002f6c <ReleaseKey>:
 6002f6c:	d7 e1 17 fc 	l.sw 0xfffffffc(r1),r2
 6002f70:	18 40 f9 40 	l.movhi r2,0xf940
 6002f74:	9c 21 ff fc 	l.addi r1,r1,0xfffffffc
 6002f78:	a8 42 00 40 	l.ori r2,r2,0x40
 6002f7c:	e0 63 10 00 	l.add r3,r3,r2
 6002f80:	9c 40 00 00 	l.addi r2,r0,0x0
 6002f84:	d4 03 10 00 	l.sw 0x0(r3),r2
 6002f88:	9c 21 00 04 	l.addi r1,r1,0x4
 6002f8c:	44 00 48 00 	l.jr r9
 6002f90:	84 41 ff fc 	l.lwz r2,0xfffffffc(r1)

06002f94 <WaitXus>:
 6002f94:	d7 e1 4f fc 	l.sw 0xfffffffc(r1),r9
 6002f98:	9c 21 ff fc 	l.addi r1,r1,0xfffffffc
 6002f9c:	9c 21 00 04 	l.addi r1,r1,0x4
 6002fa0:	85 21 ff fc 	l.lwz r9,0xfffffffc(r1)
 6002fa4:	03 ff ff cc 	l.j 6002ed4 <hw_wait_us>
 6002fa8:	15 00 00 00 	l.nop 0x0

06002fac <WaitXms>:
 6002fac:	9c 80 03 e8 	l.addi r4,r0,0x3e8
 6002fb0:	d7 e1 4f fc 	l.sw 0xfffffffc(r1),r9
 6002fb4:	9c 21 ff fc 	l.addi r1,r1,0xfffffffc
 6002fb8:	9c 21 00 04 	l.addi r1,r1,0x4
 6002fbc:	85 21 ff fc 	l.lwz r9,0xfffffffc(r1)
 6002fc0:	03 ff ff c5 	l.j 6002ed4 <hw_wait_us>
 6002fc4:	e0 63 23 06 	l.mul r3,r3,r4

06002fc8 <DdrInit>:
 6002fc8:	d7 e1 17 f8 	l.sw 0xfffffff8(r1),r2
 6002fcc:	18 40 f9 50 	l.movhi r2,0xf950
 6002fd0:	d7 e1 4f fc 	l.sw 0xfffffffc(r1),r9
 6002fd4:	a8 62 00 0c 	l.ori r3,r2,0xc
 6002fd8:	a8 42 00 1c 	l.ori r2,r2,0x1c
 6002fdc:	84 83 00 00 	l.lwz r4,0x0(r3)
 6002fe0:	9c 21 ff f8 	l.addi r1,r1,0xfffffff8
 6002fe4:	a8 84 00 20 	l.ori r4,r4,0x20
 6002fe8:	d4 03 20 00 	l.sw 0x0(r3),r4
 6002fec:	18 80 40 00 	l.movhi r4,0x4000
 6002ff0:	84 62 00 00 	l.lwz r3,0x0(r2)
 6002ff4:	e0 63 20 04 	l.or r3,r3,r4
 6002ff8:	d4 02 18 00 	l.sw 0x0(r2),r3
 6002ffc:	18 40 f9 30 	l.movhi r2,0xf930
 6003000:	18 60 88 88 	l.movhi r3,0x8888
 6003004:	a8 82 00 14 	l.ori r4,r2,0x14
 6003008:	a8 63 88 88 	l.ori r3,r3,0x8888
 600300c:	d4 04 18 00 	l.sw 0x0(r4),r3
 6003010:	a8 82 00 18 	l.ori r4,r2,0x18
 6003014:	d4 04 18 00 	l.sw 0x0(r4),r3
 6003018:	a8 82 00 1c 	l.ori r4,r2,0x1c
 600301c:	d4 04 18 00 	l.sw 0x0(r4),r3
 6003020:	a8 82 00 20 	l.ori r4,r2,0x20
 6003024:	d4 04 18 00 	l.sw 0x0(r4),r3
 6003028:	a8 82 00 24 	l.ori r4,r2,0x24
 600302c:	d4 04 18 00 	l.sw 0x0(r4),r3
 6003030:	18 80 03 a7 	l.movhi r4,0x3a7
 6003034:	a8 62 00 0c 	l.ori r3,r2,0xc
 6003038:	a8 84 27 12 	l.ori r4,r4,0x2712
 600303c:	d4 03 20 00 	l.sw 0x0(r3),r4
 6003040:	18 80 00 01 	l.movhi r4,0x1
 6003044:	a8 62 00 10 	l.ori r3,r2,0x10
 6003048:	a8 84 20 48 	l.ori r4,r4,0x2048
 600304c:	d4 03 20 00 	l.sw 0x0(r3),r4
 6003050:	18 80 03 00 	l.movhi r4,0x300
 6003054:	a8 62 00 08 	l.ori r3,r2,0x8
 6003058:	a8 84 02 80 	l.ori r4,r4,0x280
 600305c:	a8 42 00 04 	l.ori r2,r2,0x4
 6003060:	d4 03 20 00 	l.sw 0x0(r3),r4
 6003064:	07 ff ff cc 	l.jal 6002f94 <WaitXus>
 6003068:	9c 60 00 c8 	l.addi r3,r0,0xc8
 600306c:	18 60 80 3e 	l.movhi r3,0x803e
 6003070:	d4 02 18 00 	l.sw 0x0(r2),r3
 6003074:	84 62 00 00 	l.lwz r3,0x0(r2)
 6003078:	bd 83 00 00 	l.sfltsi r3,0x0
 600307c:	13 ff ff fe 	l.bf 6003074 <DdrInit+0xac>
 6003080:	15 00 00 00 	l.nop 0x0
 6003084:	07 ff ff c4 	l.jal 6002f94 <WaitXus>
 6003088:	9c 60 00 c8 	l.addi r3,r0,0xc8
 600308c:	18 60 80 24 	l.movhi r3,0x8024
 6003090:	a8 63 04 00 	l.ori r3,r3,0x400
 6003094:	d4 02 18 00 	l.sw 0x0(r2),r3
 6003098:	84 62 00 00 	l.lwz r3,0x0(r2)
 600309c:	bd 83 00 00 	l.sfltsi r3,0x0
 60030a0:	13 ff ff fe 	l.bf 6003098 <DdrInit+0xd0>
 60030a4:	15 00 00 00 	l.nop 0x0
 60030a8:	07 ff ff bb 	l.jal 6002f94 <WaitXus>
 60030ac:	9c 60 00 0a 	l.addi r3,r0,0xa
 60030b0:	18 60 80 22 	l.movhi r3,0x8022
 60030b4:	d4 02 18 00 	l.sw 0x0(r2),r3
 60030b8:	84 62 00 00 	l.lwz r3,0x0(r2)
 60030bc:	bd 83 00 00 	l.sfltsi r3,0x0
 60030c0:	13 ff ff fe 	l.bf 60030b8 <DdrInit+0xf0>
 60030c4:	18 60 80 22 	l.movhi r3,0x8022
 60030c8:	d4 02 18 00 	l.sw 0x0(r2),r3
 60030cc:	84 62 00 00 	l.lwz r3,0x0(r2)
 60030d0:	bd 83 00 00 	l.sfltsi r3,0x0
 60030d4:	13 ff ff fe 	l.bf 60030cc <DdrInit+0x104>
 60030d8:	15 00 00 00 	l.nop 0x0
 60030dc:	07 ff ff ae 	l.jal 6002f94 <WaitXus>
 60030e0:	9c 60 00 01 	l.addi r3,r0,0x1
 60030e4:	18 60 80 20 	l.movhi r3,0x8020
 60030e8:	a8 63 00 32 	l.ori r3,r3,0x32
 60030ec:	d4 02 18 00 	l.sw 0x0(r2),r3
 60030f0:	84 62 00 00 	l.lwz r3,0x0(r2)
 60030f4:	bd 83 00 00 	l.sfltsi r3,0x0
 60030f8:	13 ff ff fe 	l.bf 60030f0 <DdrInit+0x128>
 60030fc:	18 60 80 20 	l.movhi r3,0x8020
 6003100:	a8 63 40 00 	l.ori r3,r3,0x4000
 6003104:	d4 02 18 00 	l.sw 0x0(r2),r3
 6003108:	a8 62 00 00 	l.ori r3,r2,0x0
 600310c:	84 83 00 00 	l.lwz r4,0x0(r3)
 6003110:	bd 84 00 00 	l.sfltsi r4,0x0
 6003114:	13 ff ff fe 	l.bf 600310c <DdrInit+0x144>
 6003118:	18 40 f9 30 	l.movhi r2,0xf930
 600311c:	84 62 00 00 	l.lwz r3,0x0(r2)
 6003120:	9c 80 f0 00 	l.addi r4,r0,0xfffff000
 6003124:	e0 63 20 03 	l.and r3,r3,r4
 6003128:	18 80 80 00 	l.movhi r4,0x8000
 600312c:	a8 63 05 fe 	l.ori r3,r3,0x5fe
 6003130:	d4 02 18 00 	l.sw 0x0(r2),r3
 6003134:	84 62 00 00 	l.lwz r3,0x0(r2)
 6003138:	e0 63 20 04 	l.or r3,r3,r4
 600313c:	d4 02 18 00 	l.sw 0x0(r2),r3
 6003140:	9c 21 00 08 	l.addi r1,r1,0x8
 6003144:	85 21 ff fc 	l.lwz r9,0xfffffffc(r1)
 6003148:	44 00 48 00 	l.jr r9
 600314c:	84 41 ff f8 	l.lwz r2,0xfffffff8(r1)

06003150 <DmaEi>:
 6003150:	18 60 f1 00 	l.movhi r3,0xf100
 6003154:	84 83 00 00 	l.lwz r4,0x0(r3)
 6003158:	a8 84 00 04 	l.ori r4,r4,0x4
 600315c:	d4 03 20 00 	l.sw 0x0(r3),r4
 6003160:	44 00 48 00 	l.jr r9
 6003164:	15 00 00 00 	l.nop 0x0

06003168 <DmaDi>:
 6003168:	d7 e1 17 fc 	l.sw 0xfffffffc(r1),r2
 600316c:	18 60 f1 00 	l.movhi r3,0xf100
 6003170:	9c 40 ff fb 	l.addi r2,r0,0xfffffffb
 6003174:	84 83 00 00 	l.lwz r4,0x0(r3)
 6003178:	9c 21 ff fc 	l.addi r1,r1,0xfffffffc
 600317c:	e0 84 10 03 	l.and r4,r4,r2
 6003180:	d4 03 20 00 	l.sw 0x0(r3),r4
 6003184:	9c 21 00 04 	l.addi r1,r1,0x4
 6003188:	44 00 48 00 	l.jr r9
 600318c:	84 41 ff fc 	l.lwz r2,0xfffffffc(r1)

06003190 <DmaMemCpy_isr>:
 6003190:	d7 e1 17 fc 	l.sw 0xfffffffc(r1),r2
 6003194:	18 e0 f1 00 	l.movhi r7,0xf100
 6003198:	9c 21 ff fc 	l.addi r1,r1,0xfffffffc
 600319c:	85 07 00 00 	l.lwz r8,0x0(r7)
 60031a0:	a5 08 00 01 	l.andi r8,r8,0x1
 60031a4:	bc 28 00 00 	l.sfnei r8,0x0
 60031a8:	13 ff ff fd 	l.bf 600319c <DmaMemCpy_isr+0xc>
 60031ac:	18 c0 f1 00 	l.movhi r6,0xf100
 60031b0:	84 e6 00 00 	l.lwz r7,0x0(r6)
 60031b4:	9c 40 ff cf 	l.addi r2,r0,0xffffffcf
 60031b8:	e0 e7 10 03 	l.and r7,r7,r2
 60031bc:	d4 06 38 00 	l.sw 0x0(r6),r7
 60031c0:	a8 e6 00 08 	l.ori r7,r6,0x8
 60031c4:	d4 07 18 00 	l.sw 0x0(r7),r3
 60031c8:	a8 66 00 04 	l.ori r3,r6,0x4
 60031cc:	d4 03 20 00 	l.sw 0x0(r3),r4
 60031d0:	a8 66 00 0c 	l.ori r3,r6,0xc
 60031d4:	d4 03 28 00 	l.sw 0x0(r3),r5
 60031d8:	84 66 00 00 	l.lwz r3,0x0(r6)
 60031dc:	a8 63 00 01 	l.ori r3,r3,0x1
 60031e0:	d4 06 18 00 	l.sw 0x0(r6),r3
 60031e4:	84 66 00 00 	l.lwz r3,0x0(r6)
 60031e8:	a4 63 00 01 	l.andi r3,r3,0x1
 60031ec:	bc 23 00 00 	l.sfnei r3,0x0
 60031f0:	13 ff ff fd 	l.bf 60031e4 <DmaMemCpy_isr+0x54>
 60031f4:	15 00 00 00 	l.nop 0x0
 60031f8:	9c 21 00 04 	l.addi r1,r1,0x4
 60031fc:	44 00 48 00 	l.jr r9
 6003200:	84 41 ff fc 	l.lwz r2,0xfffffffc(r1)

06003204 <DmaMemCpy_isr_async>:
 6003204:	d7 e1 17 fc 	l.sw 0xfffffffc(r1),r2
 6003208:	18 e0 f1 00 	l.movhi r7,0xf100
 600320c:	9c 21 ff fc 	l.addi r1,r1,0xfffffffc
 6003210:	85 07 00 00 	l.lwz r8,0x0(r7)
 6003214:	a5 08 00 01 	l.andi r8,r8,0x1
 6003218:	bc 28 00 00 	l.sfnei r8,0x0
 600321c:	13 ff ff fd 	l.bf 6003210 <DmaMemCpy_isr_async+0xc>
 6003220:	18 c0 f1 00 	l.movhi r6,0xf100
 6003224:	84 e6 00 00 	l.lwz r7,0x0(r6)
 6003228:	9c 40 ff cf 	l.addi r2,r0,0xffffffcf
 600322c:	e0 e7 10 03 	l.and r7,r7,r2
 6003230:	d4 06 38 00 	l.sw 0x0(r6),r7
 6003234:	a8 e6 00 08 	l.ori r7,r6,0x8
 6003238:	d4 07 18 00 	l.sw 0x0(r7),r3
 600323c:	a8 66 00 04 	l.ori r3,r6,0x4
 6003240:	d4 03 20 00 	l.sw 0x0(r3),r4
 6003244:	a8 66 00 0c 	l.ori r3,r6,0xc
 6003248:	d4 03 28 00 	l.sw 0x0(r3),r5
 600324c:	84 66 00 00 	l.lwz r3,0x0(r6)
 6003250:	a8 63 00 01 	l.ori r3,r3,0x1
 6003254:	d4 06 18 00 	l.sw 0x0(r6),r3
 6003258:	9c 21 00 04 	l.addi r1,r1,0x4
 600325c:	44 00 48 00 	l.jr r9
 6003260:	84 41 ff fc 	l.lwz r2,0xfffffffc(r1)

06003264 <DmaMemSet_isr>:
 6003264:	d7 e1 17 fc 	l.sw 0xfffffffc(r1),r2
 6003268:	a4 84 00 ff 	l.andi r4,r4,0xff
 600326c:	9c 21 ff fc 	l.addi r1,r1,0xfffffffc
 6003270:	18 e0 f1 00 	l.movhi r7,0xf100
 6003274:	85 07 00 00 	l.lwz r8,0x0(r7)
 6003278:	a5 08 00 01 	l.andi r8,r8,0x1
 600327c:	bc 28 00 00 	l.sfnei r8,0x0
 6003280:	13 ff ff fd 	l.bf 6003274 <DmaMemSet_isr+0x10>
 6003284:	18 c0 f1 00 	l.movhi r6,0xf100
 6003288:	84 e6 00 00 	l.lwz r7,0x0(r6)
 600328c:	9c 40 ff cf 	l.addi r2,r0,0xffffffcf
 6003290:	e0 e7 10 03 	l.and r7,r7,r2
 6003294:	a8 e7 00 10 	l.ori r7,r7,0x10
 6003298:	d4 06 38 00 	l.sw 0x0(r6),r7
 600329c:	a8 e6 00 08 	l.ori r7,r6,0x8
 60032a0:	d4 07 18 00 	l.sw 0x0(r7),r3
 60032a4:	a8 66 00 0c 	l.ori r3,r6,0xc
 60032a8:	d4 03 28 00 	l.sw 0x0(r3),r5
 60032ac:	d8 06 20 02 	l.sb 0x2(r6),r4
 60032b0:	84 66 00 00 	l.lwz r3,0x0(r6)
 60032b4:	a8 63 00 01 	l.ori r3,r3,0x1
 60032b8:	d4 06 18 00 	l.sw 0x0(r6),r3
 60032bc:	84 66 00 00 	l.lwz r3,0x0(r6)
 60032c0:	a4 63 00 01 	l.andi r3,r3,0x1
 60032c4:	bc 23 00 00 	l.sfnei r3,0x0
 60032c8:	13 ff ff fd 	l.bf 60032bc <DmaMemSet_isr+0x58>
 60032cc:	15 00 00 00 	l.nop 0x0
 60032d0:	9c 21 00 04 	l.addi r1,r1,0x4
 60032d4:	44 00 48 00 	l.jr r9
 60032d8:	84 41 ff fc 	l.lwz r2,0xfffffffc(r1)

060032dc <DmaDChkSum_isr_async>:
 60032dc:	d7 e1 17 fc 	l.sw 0xfffffffc(r1),r2
 60032e0:	18 c0 f1 00 	l.movhi r6,0xf100
 60032e4:	9c 21 ff fc 	l.addi r1,r1,0xfffffffc
 60032e8:	84 e6 00 00 	l.lwz r7,0x0(r6)
 60032ec:	a4 e7 00 01 	l.andi r7,r7,0x1
 60032f0:	bc 27 00 00 	l.sfnei r7,0x0
 60032f4:	13 ff ff fd 	l.bf 60032e8 <DmaDChkSum_isr_async+0xc>
 60032f8:	18 a0 f1 00 	l.movhi r5,0xf100
 60032fc:	a8 c5 00 04 	l.ori r6,r5,0x4
 6003300:	9c 40 ff cf 	l.addi r2,r0,0xffffffcf
 6003304:	d4 06 18 00 	l.sw 0x0(r6),r3
 6003308:	a8 65 00 0c 	l.ori r3,r5,0xc
 600330c:	d4 03 20 00 	l.sw 0x0(r3),r4
 6003310:	84 65 00 00 	l.lwz r3,0x0(r5)
 6003314:	e0 63 10 03 	l.and r3,r3,r2
 6003318:	a8 63 00 20 	l.ori r3,r3,0x20
 600331c:	d4 05 18 00 	l.sw 0x0(r5),r3
 6003320:	84 65 00 00 	l.lwz r3,0x0(r5)
 6003324:	a8 63 00 40 	l.ori r3,r3,0x40
 6003328:	d4 05 18 00 	l.sw 0x0(r5),r3
 600332c:	84 65 00 00 	l.lwz r3,0x0(r5)
 6003330:	a8 63 00 01 	l.ori r3,r3,0x1
 6003334:	d4 05 18 00 	l.sw 0x0(r5),r3
 6003338:	9c 21 00 04 	l.addi r1,r1,0x4
 600333c:	44 00 48 00 	l.jr r9
 6003340:	84 41 ff fc 	l.lwz r2,0xfffffffc(r1)

06003344 <DmaDChkSum_isr>:
 6003344:	d7 e1 17 fc 	l.sw 0xfffffffc(r1),r2
 6003348:	18 e0 f1 00 	l.movhi r7,0xf100
 600334c:	9c 21 ff fc 	l.addi r1,r1,0xfffffffc
 6003350:	85 07 00 00 	l.lwz r8,0x0(r7)
 6003354:	a5 08 00 01 	l.andi r8,r8,0x1
 6003358:	bc 28 00 00 	l.sfnei r8,0x0
 600335c:	13 ff ff fd 	l.bf 6003350 <DmaDChkSum_isr+0xc>
 6003360:	18 c0 f1 00 	l.movhi r6,0xf100
 6003364:	a8 e6 00 04 	l.ori r7,r6,0x4
 6003368:	9c 40 ff cf 	l.addi r2,r0,0xffffffcf
 600336c:	d4 07 18 00 	l.sw 0x0(r7),r3
 6003370:	a8 66 00 0c 	l.ori r3,r6,0xc
 6003374:	d4 03 20 00 	l.sw 0x0(r3),r4
 6003378:	84 66 00 00 	l.lwz r3,0x0(r6)
 600337c:	e0 63 10 03 	l.and r3,r3,r2
 6003380:	a8 63 00 20 	l.ori r3,r3,0x20
 6003384:	d4 06 18 00 	l.sw 0x0(r6),r3
 6003388:	84 66 00 00 	l.lwz r3,0x0(r6)
 600338c:	a8 63 00 40 	l.ori r3,r3,0x40
 6003390:	d4 06 18 00 	l.sw 0x0(r6),r3
 6003394:	84 66 00 00 	l.lwz r3,0x0(r6)
 6003398:	a8 63 00 01 	l.ori r3,r3,0x1
 600339c:	d4 06 18 00 	l.sw 0x0(r6),r3
 60033a0:	84 66 00 00 	l.lwz r3,0x0(r6)
 60033a4:	a4 63 00 01 	l.andi r3,r3,0x1
 60033a8:	bc 23 00 00 	l.sfnei r3,0x0
 60033ac:	13 ff ff fd 	l.bf 60033a0 <DmaDChkSum_isr+0x5c>
 60033b0:	15 00 00 00 	l.nop 0x0
 60033b4:	15 00 00 00 	l.nop 0x0
 60033b8:	18 60 f1 00 	l.movhi r3,0xf100
 60033bc:	a8 63 00 10 	l.ori r3,r3,0x10
 60033c0:	94 83 00 02 	l.lhz r4,0x2(r3)
 60033c4:	94 63 00 02 	l.lhz r3,0x2(r3)
 60033c8:	b8 84 00 08 	l.slli r4,r4,0x8
 60033cc:	b8 63 00 48 	l.srli r3,r3,0x8
 60033d0:	9c 21 00 04 	l.addi r1,r1,0x4
 60033d4:	e0 64 18 04 	l.or r3,r4,r3
 60033d8:	84 41 ff fc 	l.lwz r2,0xfffffffc(r1)
 60033dc:	44 00 48 00 	l.jr r9
 60033e0:	dc 05 18 00 	l.sh 0x0(r5),r3

060033e4 <DmaMemCpy_ip_async>:
 60033e4:	d7 e1 17 ec 	l.sw 0xffffffec(r1),r2
 60033e8:	d7 e1 77 f0 	l.sw 0xfffffff0(r1),r14
 60033ec:	d7 e1 87 f4 	l.sw 0xfffffff4(r1),r16
 60033f0:	d7 e1 4f fc 	l.sw 0xfffffffc(r1),r9
 60033f4:	d7 e1 97 f8 	l.sw 0xfffffff8(r1),r18
 60033f8:	aa 03 00 00 	l.ori r16,r3,0x0
 60033fc:	9c 21 ff ec 	l.addi r1,r1,0xffffffec
 6003400:	a9 c4 00 00 	l.ori r14,r4,0x0
 6003404:	bc a5 08 00 	l.sfleui r5,0x800
 6003408:	10 00 00 1a 	l.bf 6003470 <DmaMemCpy_ip_async+0x8c>
 600340c:	a8 45 00 00 	l.ori r2,r5,0x0
 6003410:	e0 63 20 04 	l.or r3,r3,r4
 6003414:	a4 63 00 03 	l.andi r3,r3,0x3
 6003418:	bc 03 00 00 	l.sfeqi r3,0x0
 600341c:	10 00 00 16 	l.bf 6003474 <DmaMemCpy_ip_async+0x90>
 6003420:	a8 70 00 00 	l.ori r3,r16,0x0
 6003424:	9e 40 00 00 	l.addi r18,r0,0x0
 6003428:	e0 70 90 00 	l.add r3,r16,r18
 600342c:	e0 8e 90 00 	l.add r4,r14,r18
 6003430:	9c a0 08 00 	l.addi r5,r0,0x800
 6003434:	07 ff ff 57 	l.jal 6003190 <DmaMemCpy_isr>
 6003438:	9e 52 08 00 	l.addi r18,r18,0x800
 600343c:	e0 62 90 02 	l.sub r3,r2,r18
 6003440:	bc 43 08 00 	l.sfgtui r3,0x800
 6003444:	13 ff ff f9 	l.bf 6003428 <DmaMemCpy_ip_async+0x44>
 6003448:	9c a2 f7 ff 	l.addi r5,r2,0xfffff7ff
 600344c:	9c 60 f8 00 	l.addi r3,r0,0xfffff800
 6003450:	9c 8e 08 00 	l.addi r4,r14,0x800
 6003454:	e0 a5 18 03 	l.and r5,r5,r3
 6003458:	9c 42 f8 00 	l.addi r2,r2,0xfffff800
 600345c:	9c 70 08 00 	l.addi r3,r16,0x800
 6003460:	e0 84 28 00 	l.add r4,r4,r5
 6003464:	e0 63 28 00 	l.add r3,r3,r5
 6003468:	00 00 00 05 	l.j 600347c <DmaMemCpy_ip_async+0x98>
 600346c:	e0 a2 28 02 	l.sub r5,r2,r5
 6003470:	a8 70 00 00 	l.ori r3,r16,0x0
 6003474:	a8 8e 00 00 	l.ori r4,r14,0x0
 6003478:	a8 a2 00 00 	l.ori r5,r2,0x0
 600347c:	9c 21 00 14 	l.addi r1,r1,0x14
 6003480:	85 21 ff fc 	l.lwz r9,0xfffffffc(r1)
 6003484:	84 41 ff ec 	l.lwz r2,0xffffffec(r1)
 6003488:	85 c1 ff f0 	l.lwz r14,0xfffffff0(r1)
 600348c:	86 01 ff f4 	l.lwz r16,0xfffffff4(r1)
 6003490:	03 ff ff 5d 	l.j 6003204 <DmaMemCpy_isr_async>
 6003494:	86 41 ff f8 	l.lwz r18,0xfffffff8(r1)

06003498 <DmaMemCpy_ip>:
 6003498:	d7 e1 17 ec 	l.sw 0xffffffec(r1),r2
 600349c:	d7 e1 77 f0 	l.sw 0xfffffff0(r1),r14
 60034a0:	d7 e1 87 f4 	l.sw 0xfffffff4(r1),r16
 60034a4:	d7 e1 4f fc 	l.sw 0xfffffffc(r1),r9
 60034a8:	d7 e1 97 f8 	l.sw 0xfffffff8(r1),r18
 60034ac:	aa 03 00 00 	l.ori r16,r3,0x0
 60034b0:	9c 21 ff ec 	l.addi r1,r1,0xffffffec
 60034b4:	a9 c4 00 00 	l.ori r14,r4,0x0
 60034b8:	bc a5 08 00 	l.sfleui r5,0x800
 60034bc:	10 00 00 1d 	l.bf 6003530 <DmaMemCpy_ip+0x98>
 60034c0:	a8 45 00 00 	l.ori r2,r5,0x0
 60034c4:	e0 63 20 04 	l.or r3,r3,r4
 60034c8:	a4 63 00 03 	l.andi r3,r3,0x3
 60034cc:	bc 03 00 00 	l.sfeqi r3,0x0
 60034d0:	10 00 00 19 	l.bf 6003534 <DmaMemCpy_ip+0x9c>
 60034d4:	a8 70 00 00 	l.ori r3,r16,0x0
 60034d8:	9e 40 00 00 	l.addi r18,r0,0x0
 60034dc:	e0 70 90 00 	l.add r3,r16,r18
 60034e0:	e0 8e 90 00 	l.add r4,r14,r18
 60034e4:	9c a0 08 00 	l.addi r5,r0,0x800
 60034e8:	07 ff ff 2a 	l.jal 6003190 <DmaMemCpy_isr>
 60034ec:	9e 52 08 00 	l.addi r18,r18,0x800
 60034f0:	e0 62 90 02 	l.sub r3,r2,r18
 60034f4:	bc 43 08 00 	l.sfgtui r3,0x800
 60034f8:	13 ff ff fa 	l.bf 60034e0 <DmaMemCpy_ip+0x48>
 60034fc:	e0 70 90 00 	l.add r3,r16,r18
 6003500:	9c a2 f7 ff 	l.addi r5,r2,0xfffff7ff
 6003504:	9c 60 f8 00 	l.addi r3,r0,0xfffff800
 6003508:	9c 8e 08 00 	l.addi r4,r14,0x800
 600350c:	e0 a5 18 03 	l.and r5,r5,r3
 6003510:	9c 42 f8 00 	l.addi r2,r2,0xfffff800
 6003514:	9c 70 08 00 	l.addi r3,r16,0x800
 6003518:	e0 84 28 00 	l.add r4,r4,r5
 600351c:	e0 63 28 00 	l.add r3,r3,r5
 6003520:	07 ff ff 39 	l.jal 6003204 <DmaMemCpy_isr_async>
 6003524:	e0 a2 28 02 	l.sub r5,r2,r5
 6003528:	00 00 00 09 	l.j 600354c <DmaMemCpy_ip+0xb4>
 600352c:	18 40 f1 00 	l.movhi r2,0xf100
 6003530:	a8 70 00 00 	l.ori r3,r16,0x0
 6003534:	a8 8e 00 00 	l.ori r4,r14,0x0
 6003538:	07 ff ff 33 	l.jal 6003204 <DmaMemCpy_isr_async>
 600353c:	a8 a2 00 00 	l.ori r5,r2,0x0
 6003540:	bc 02 00 00 	l.sfeqi r2,0x0
 6003544:	10 00 00 07 	l.bf 6003560 <DmaMemCpy_ip+0xc8>
 6003548:	18 40 f1 00 	l.movhi r2,0xf100
 600354c:	84 62 00 00 	l.lwz r3,0x0(r2)
 6003550:	a4 63 00 01 	l.andi r3,r3,0x1
 6003554:	bc 23 00 00 	l.sfnei r3,0x0
 6003558:	13 ff ff fd 	l.bf 600354c <DmaMemCpy_ip+0xb4>
 600355c:	15 00 00 00 	l.nop 0x0
 6003560:	9c 21 00 14 	l.addi r1,r1,0x14
 6003564:	85 21 ff fc 	l.lwz r9,0xfffffffc(r1)
 6003568:	84 41 ff ec 	l.lwz r2,0xffffffec(r1)
 600356c:	85 c1 ff f0 	l.lwz r14,0xfffffff0(r1)
 6003570:	86 01 ff f4 	l.lwz r16,0xfffffff4(r1)
 6003574:	44 00 48 00 	l.jr r9
 6003578:	86 41 ff f8 	l.lwz r18,0xfffffff8(r1)

0600357c <DmaMemSet_ip>:
 600357c:	d7 e1 4f fc 	l.sw 0xfffffffc(r1),r9
 6003580:	9c 21 ff fc 	l.addi r1,r1,0xfffffffc
 6003584:	9c 21 00 04 	l.addi r1,r1,0x4
 6003588:	85 21 ff fc 	l.lwz r9,0xfffffffc(r1)
 600358c:	03 ff ff 36 	l.j 6003264 <DmaMemSet_isr>
 6003590:	a4 84 00 ff 	l.andi r4,r4,0xff

06003594 <DmaDChkSum_ip>:
 6003594:	d7 e1 17 f8 	l.sw 0xfffffff8(r1),r2
 6003598:	d7 e1 4f fc 	l.sw 0xfffffffc(r1),r9
 600359c:	9c 21 ff f8 	l.addi r1,r1,0xfffffff8
 60035a0:	07 ff ff 4f 	l.jal 60032dc <DmaDChkSum_isr_async>
 60035a4:	a8 45 00 00 	l.ori r2,r5,0x0
 60035a8:	18 60 f1 00 	l.movhi r3,0xf100
 60035ac:	84 83 00 00 	l.lwz r4,0x0(r3)
 60035b0:	a4 84 00 01 	l.andi r4,r4,0x1
 60035b4:	bc 24 00 00 	l.sfnei r4,0x0
 60035b8:	13 ff ff fd 	l.bf 60035ac <DmaDChkSum_ip+0x18>
 60035bc:	15 00 00 00 	l.nop 0x0
 60035c0:	15 00 00 00 	l.nop 0x0
 60035c4:	18 60 f1 00 	l.movhi r3,0xf100
 60035c8:	a8 63 00 10 	l.ori r3,r3,0x10
 60035cc:	94 83 00 02 	l.lhz r4,0x2(r3)
 60035d0:	94 63 00 02 	l.lhz r3,0x2(r3)
 60035d4:	b8 84 00 08 	l.slli r4,r4,0x8
 60035d8:	b8 63 00 48 	l.srli r3,r3,0x8
 60035dc:	e0 64 18 04 	l.or r3,r4,r3
 60035e0:	dc 02 18 00 	l.sh 0x0(r2),r3
 60035e4:	9c 21 00 08 	l.addi r1,r1,0x8
 60035e8:	85 21 ff fc 	l.lwz r9,0xfffffffc(r1)
 60035ec:	44 00 48 00 	l.jr r9
 60035f0:	84 41 ff f8 	l.lwz r2,0xfffffff8(r1)

060035f4 <DmaUChkSum_ip>:
 60035f4:	d7 e1 17 f8 	l.sw 0xfffffff8(r1),r2
 60035f8:	d7 e1 4f fc 	l.sw 0xfffffffc(r1),r9
 60035fc:	a8 e3 00 00 	l.ori r7,r3,0x0
 6003600:	9c 21 ff f8 	l.addi r1,r1,0xfffffff8
 6003604:	a8 c4 00 00 	l.ori r6,r4,0x0
 6003608:	bc 05 00 00 	l.sfeqi r5,0x0
 600360c:	10 00 00 08 	l.bf 600362c <DmaUChkSum_ip+0x38>
 6003610:	a8 45 00 00 	l.ori r2,r5,0x0
 6003614:	18 60 f9 00 	l.movhi r3,0xf900
 6003618:	9c a0 ff f8 	l.addi r5,r0,0xfffffff8
 600361c:	84 83 00 00 	l.lwz r4,0x0(r3)
 6003620:	e0 84 28 03 	l.and r4,r4,r5
 6003624:	a8 84 00 01 	l.ori r4,r4,0x1
 6003628:	d4 03 20 00 	l.sw 0x0(r3),r4
 600362c:	18 60 96 00 	l.movhi r3,0x9600
 6003630:	a8 87 00 00 	l.ori r4,r7,0x0
 6003634:	07 ff fe d7 	l.jal 6003190 <DmaMemCpy_isr>
 6003638:	a8 a6 00 00 	l.ori r5,r6,0x0
 600363c:	bc 02 00 00 	l.sfeqi r2,0x0
 6003640:	10 00 00 0d 	l.bf 6003674 <DmaUChkSum_ip+0x80>
 6003644:	18 60 f9 00 	l.movhi r3,0xf900
 6003648:	a8 83 00 14 	l.ori r4,r3,0x14
 600364c:	94 a4 00 02 	l.lhz r5,0x2(r4)
 6003650:	94 84 00 02 	l.lhz r4,0x2(r4)
 6003654:	b8 a5 00 08 	l.slli r5,r5,0x8
 6003658:	b8 84 00 48 	l.srli r4,r4,0x8
 600365c:	e0 85 20 04 	l.or r4,r5,r4
 6003660:	dc 02 20 00 	l.sh 0x0(r2),r4
 6003664:	9c 80 ff f8 	l.addi r4,r0,0xfffffff8
 6003668:	84 43 00 00 	l.lwz r2,0x0(r3)
 600366c:	e0 42 20 03 	l.and r2,r2,r4
 6003670:	d4 03 10 00 	l.sw 0x0(r3),r2
 6003674:	9c 21 00 08 	l.addi r1,r1,0x8
 6003678:	85 21 ff fc 	l.lwz r9,0xfffffffc(r1)
 600367c:	44 00 48 00 	l.jr r9
 6003680:	84 41 ff f8 	l.lwz r2,0xfffffff8(r1)

06003684 <Uart0_Init>:
 6003684:	d7 e1 17 fc 	l.sw 0xfffffffc(r1),r2
 6003688:	18 40 0b e8 	l.movhi r2,0xbe8
 600368c:	b8 a3 00 03 	l.slli r5,r3,0x3
 6003690:	a8 42 b4 c0 	l.ori r2,r2,0xb4c0
 6003694:	b8 63 00 04 	l.slli r3,r3,0x4
 6003698:	e0 a5 10 00 	l.add r5,r5,r2
 600369c:	18 80 f8 00 	l.movhi r4,0xf800
 60036a0:	e0 a5 1b 0a 	l.divu r5,r5,r3
 60036a4:	18 40 00 0f 	l.movhi r2,0xf
 60036a8:	9c a5 ff ff 	l.addi r5,r5,0xffffffff
 60036ac:	84 64 00 00 	l.lwz r3,0x0(r4)
 60036b0:	a8 42 ff ff 	l.ori r2,r2,0xffff
 60036b4:	b8 a5 00 14 	l.slli r5,r5,0x14
 60036b8:	e0 63 10 03 	l.and r3,r3,r2
 60036bc:	9c 40 ef ff 	l.addi r2,r0,0xffffefff
 60036c0:	e0 63 28 04 	l.or r3,r3,r5
 60036c4:	9c 21 ff fc 	l.addi r1,r1,0xfffffffc
 60036c8:	d4 04 18 00 	l.sw 0x0(r4),r3
 60036cc:	84 64 00 00 	l.lwz r3,0x0(r4)
 60036d0:	e0 63 10 03 	l.and r3,r3,r2
 60036d4:	9c 40 f7 ff 	l.addi r2,r0,0xfffff7ff
 60036d8:	d4 04 18 00 	l.sw 0x0(r4),r3
 60036dc:	84 64 00 00 	l.lwz r3,0x0(r4)
 60036e0:	e0 63 10 03 	l.and r3,r3,r2
 60036e4:	9c 40 ff f7 	l.addi r2,r0,0xfffffff7
 60036e8:	d4 04 18 00 	l.sw 0x0(r4),r3
 60036ec:	84 64 00 00 	l.lwz r3,0x0(r4)
 60036f0:	e0 63 10 03 	l.and r3,r3,r2
 60036f4:	9c 40 fe ff 	l.addi r2,r0,0xfffffeff
 60036f8:	d4 04 18 00 	l.sw 0x0(r4),r3
 60036fc:	84 64 00 00 	l.lwz r3,0x0(r4)
 6003700:	e0 63 10 03 	l.and r3,r3,r2
 6003704:	d4 04 18 00 	l.sw 0x0(r4),r3
 6003708:	84 64 00 00 	l.lwz r3,0x0(r4)
 600370c:	a8 63 20 00 	l.ori r3,r3,0x2000
 6003710:	d4 04 18 00 	l.sw 0x0(r4),r3
 6003714:	9c 21 00 04 	l.addi r1,r1,0x4
 6003718:	44 00 48 00 	l.jr r9
 600371c:	84 41 ff fc 	l.lwz r2,0xfffffffc(r1)

06003720 <Uart0_Deinit>:
 6003720:	d7 e1 17 fc 	l.sw 0xfffffffc(r1),r2
 6003724:	18 60 f8 00 	l.movhi r3,0xf800
 6003728:	18 40 00 0f 	l.movhi r2,0xf
 600372c:	84 83 00 00 	l.lwz r4,0x0(r3)
 6003730:	a8 42 ff ff 	l.ori r2,r2,0xffff
 6003734:	9c 21 ff fc 	l.addi r1,r1,0xfffffffc
 6003738:	e0 84 10 03 	l.and r4,r4,r2
 600373c:	9c 40 ef ff 	l.addi r2,r0,0xffffefff
 6003740:	d4 03 20 00 	l.sw 0x0(r3),r4
 6003744:	84 83 00 00 	l.lwz r4,0x0(r3)
 6003748:	e0 84 10 03 	l.and r4,r4,r2
 600374c:	9c 40 f7 ff 	l.addi r2,r0,0xfffff7ff
 6003750:	d4 03 20 00 	l.sw 0x0(r3),r4
 6003754:	84 83 00 00 	l.lwz r4,0x0(r3)
 6003758:	e0 84 10 03 	l.and r4,r4,r2
 600375c:	9c 40 ff f7 	l.addi r2,r0,0xfffffff7
 6003760:	d4 03 20 00 	l.sw 0x0(r3),r4
 6003764:	84 83 00 00 	l.lwz r4,0x0(r3)
 6003768:	e0 84 10 03 	l.and r4,r4,r2
 600376c:	9c 40 fe ff 	l.addi r2,r0,0xfffffeff
 6003770:	d4 03 20 00 	l.sw 0x0(r3),r4
 6003774:	84 83 00 00 	l.lwz r4,0x0(r3)
 6003778:	e0 84 10 03 	l.and r4,r4,r2
 600377c:	d4 03 20 00 	l.sw 0x0(r3),r4
 6003780:	9c 21 00 04 	l.addi r1,r1,0x4
 6003784:	44 00 48 00 	l.jr r9
 6003788:	84 41 ff fc 	l.lwz r2,0xfffffffc(r1)

0600378c <Uart0_Tx>:
 600378c:	b8 63 00 18 	l.slli r3,r3,0x18
 6003790:	18 80 f8 00 	l.movhi r4,0xf800
 6003794:	b8 63 00 98 	l.srai r3,r3,0x18
 6003798:	84 a4 00 00 	l.lwz r5,0x0(r4)
 600379c:	a4 a5 00 20 	l.andi r5,r5,0x20
 60037a0:	bc 25 00 00 	l.sfnei r5,0x0
 60037a4:	13 ff ff fd 	l.bf 6003798 <Uart0_Tx+0xc>
 60037a8:	15 00 00 00 	l.nop 0x0
 60037ac:	18 80 f8 00 	l.movhi r4,0xf800
 60037b0:	a4 63 00 ff 	l.andi r3,r3,0xff
 60037b4:	a8 84 00 04 	l.ori r4,r4,0x4
 60037b8:	d8 04 18 02 	l.sb 0x2(r4),r3
 60037bc:	44 00 48 00 	l.jr r9
 60037c0:	15 00 00 00 	l.nop 0x0

060037c4 <Uart0_Rx>:
 60037c4:	18 80 f8 00 	l.movhi r4,0xf800
 60037c8:	84 a4 00 00 	l.lwz r5,0x0(r4)
 60037cc:	a4 a5 00 02 	l.andi r5,r5,0x2
 60037d0:	bc 25 00 00 	l.sfnei r5,0x0
 60037d4:	13 ff ff fd 	l.bf 60037c8 <Uart0_Rx+0x4>
 60037d8:	15 00 00 00 	l.nop 0x0
 60037dc:	18 80 f8 00 	l.movhi r4,0xf800
 60037e0:	a8 84 00 04 	l.ori r4,r4,0x4
 60037e4:	8c 84 00 03 	l.lbz r4,0x3(r4)
 60037e8:	44 00 48 00 	l.jr r9
 60037ec:	d8 03 20 00 	l.sb 0x0(r3),r4

060037f0 <Uart0_RxExist>:
 60037f0:	18 60 f8 00 	l.movhi r3,0xf800
 60037f4:	84 63 00 00 	l.lwz r3,0x0(r3)
 60037f8:	a4 63 00 02 	l.andi r3,r3,0x2
 60037fc:	e1 60 18 02 	l.sub r11,r0,r3
 6003800:	e0 6b 18 04 	l.or r3,r11,r3
 6003804:	ad 63 ff ff 	l.xori r11,r3,0xffffffff
 6003808:	44 00 48 00 	l.jr r9
 600380c:	b9 6b 00 5f 	l.srli r11,r11,0x1f

06003810 <Uart0_GetByte>:
 6003810:	18 60 f8 00 	l.movhi r3,0xf800
 6003814:	a8 63 00 04 	l.ori r3,r3,0x4
 6003818:	8d 63 00 03 	l.lbz r11,0x3(r3)
 600381c:	44 00 48 00 	l.jr r9
 6003820:	15 00 00 00 	l.nop 0x0

06003824 <Uart0_Str>:
 6003824:	d7 e1 17 f8 	l.sw 0xfffffff8(r1),r2
 6003828:	d7 e1 4f fc 	l.sw 0xfffffffc(r1),r9
 600382c:	a8 43 00 00 	l.ori r2,r3,0x0
 6003830:	00 00 00 0a 	l.j 6003858 <Uart0_Str+0x34>
 6003834:	9c 21 ff f8 	l.addi r1,r1,0xfffffff8
 6003838:	bc 23 00 0a 	l.sfnei r3,0xa
 600383c:	10 00 00 04 	l.bf 600384c <Uart0_Str+0x28>
 6003840:	15 00 00 00 	l.nop 0x0
 6003844:	07 ff ff d2 	l.jal 600378c <Uart0_Tx>
 6003848:	9c 60 00 0d 	l.addi r3,r0,0xd
 600384c:	90 62 00 00 	l.lbs r3,0x0(r2)
 6003850:	07 ff ff cf 	l.jal 600378c <Uart0_Tx>
 6003854:	9c 42 00 01 	l.addi r2,r2,0x1
 6003858:	90 62 00 00 	l.lbs r3,0x0(r2)
 600385c:	bc 23 00 00 	l.sfnei r3,0x0
 6003860:	13 ff ff f6 	l.bf 6003838 <Uart0_Str+0x14>
 6003864:	15 00 00 00 	l.nop 0x0
 6003868:	9c 21 00 08 	l.addi r1,r1,0x8
 600386c:	85 21 ff fc 	l.lwz r9,0xfffffffc(r1)
 6003870:	44 00 48 00 	l.jr r9
 6003874:	84 41 ff f8 	l.lwz r2,0xfffffff8(r1)

06003878 <Uart0_Byte>:
 6003878:	d7 e1 77 f8 	l.sw 0xfffffff8(r1),r14
 600387c:	a5 c3 00 ff 	l.andi r14,r3,0xff
 6003880:	d7 e1 17 f4 	l.sw 0xfffffff4(r1),r2
 6003884:	18 40 04 00 	l.movhi r2,0x400
 6003888:	b8 6e 00 44 	l.srli r3,r14,0x4
 600388c:	a8 42 7e cc 	l.ori r2,r2,0x7ecc
 6003890:	d7 e1 4f fc 	l.sw 0xfffffffc(r1),r9
 6003894:	e0 62 18 00 	l.add r3,r2,r3
 6003898:	a5 ce 00 0f 	l.andi r14,r14,0xf
 600389c:	90 63 00 00 	l.lbs r3,0x0(r3)
 60038a0:	9c 21 ff f4 	l.addi r1,r1,0xfffffff4
 60038a4:	07 ff ff ba 	l.jal 600378c <Uart0_Tx>
 60038a8:	e0 42 70 00 	l.add r2,r2,r14
 60038ac:	90 62 00 00 	l.lbs r3,0x0(r2)
 60038b0:	9c 21 00 0c 	l.addi r1,r1,0xc
 60038b4:	85 21 ff fc 	l.lwz r9,0xfffffffc(r1)
 60038b8:	84 41 ff f4 	l.lwz r2,0xfffffff4(r1)
 60038bc:	03 ff ff b4 	l.j 600378c <Uart0_Tx>
 60038c0:	85 c1 ff f8 	l.lwz r14,0xfffffff8(r1)

060038c4 <Uart0_Hex>:
 60038c4:	d7 e1 17 f4 	l.sw 0xfffffff4(r1),r2
 60038c8:	d7 e1 77 f8 	l.sw 0xfffffff8(r1),r14
 60038cc:	d7 e1 4f fc 	l.sw 0xfffffffc(r1),r9
 60038d0:	a9 c3 00 00 	l.ori r14,r3,0x0
 60038d4:	9c 21 ff f4 	l.addi r1,r1,0xfffffff4
 60038d8:	9c 40 00 1c 	l.addi r2,r0,0x1c
 60038dc:	e0 6e 10 88 	l.sra r3,r14,r2
 60038e0:	18 80 04 00 	l.movhi r4,0x400
 60038e4:	9c 42 ff fc 	l.addi r2,r2,0xfffffffc
 60038e8:	a8 84 7e cc 	l.ori r4,r4,0x7ecc
 60038ec:	a4 63 00 0f 	l.andi r3,r3,0xf
 60038f0:	e0 63 20 00 	l.add r3,r3,r4
 60038f4:	07 ff ff a6 	l.jal 600378c <Uart0_Tx>
 60038f8:	90 63 00 00 	l.lbs r3,0x0(r3)
 60038fc:	bc 22 ff fc 	l.sfnei r2,0xfffffffc
 6003900:	13 ff ff f7 	l.bf 60038dc <Uart0_Hex+0x18>
 6003904:	15 00 00 00 	l.nop 0x0
 6003908:	9c 21 00 0c 	l.addi r1,r1,0xc
 600390c:	85 21 ff fc 	l.lwz r9,0xfffffffc(r1)
 6003910:	84 41 ff f4 	l.lwz r2,0xfffffff4(r1)
 6003914:	44 00 48 00 	l.jr r9
 6003918:	85 c1 ff f8 	l.lwz r14,0xfffffff8(r1)

0600391c <Uart0_Dec>:
 600391c:	d7 e1 17 f0 	l.sw 0xfffffff0(r1),r2
 6003920:	d7 e1 87 f8 	l.sw 0xfffffff8(r1),r16
 6003924:	9c 40 00 64 	l.addi r2,r0,0x64
 6003928:	a6 03 00 ff 	l.andi r16,r3,0xff
 600392c:	d7 e1 77 f4 	l.sw 0xfffffff4(r1),r14
 6003930:	e0 50 13 0a 	l.divu r2,r16,r2
 6003934:	19 c0 04 00 	l.movhi r14,0x400
 6003938:	d7 e1 4f fc 	l.sw 0xfffffffc(r1),r9
 600393c:	a9 ce 7e cc 	l.ori r14,r14,0x7ecc
 6003940:	9c 21 ff f0 	l.addi r1,r1,0xfffffff0
 6003944:	e0 4e 10 00 	l.add r2,r14,r2
 6003948:	07 ff ff 91 	l.jal 600378c <Uart0_Tx>
 600394c:	90 62 00 00 	l.lbs r3,0x0(r2)
 6003950:	9c 60 00 0a 	l.addi r3,r0,0xa
 6003954:	e0 50 1b 0a 	l.divu r2,r16,r3
 6003958:	a4 82 00 ff 	l.andi r4,r2,0xff
 600395c:	e0 64 1b 0a 	l.divu r3,r4,r3
 6003960:	e0 a3 18 00 	l.add r5,r3,r3
 6003964:	b8 63 00 03 	l.slli r3,r3,0x3
 6003968:	e0 65 18 00 	l.add r3,r5,r3
 600396c:	e0 84 18 02 	l.sub r4,r4,r3
 6003970:	a4 84 00 ff 	l.andi r4,r4,0xff
 6003974:	e0 8e 20 00 	l.add r4,r14,r4
 6003978:	07 ff ff 85 	l.jal 600378c <Uart0_Tx>
 600397c:	90 64 00 00 	l.lbs r3,0x0(r4)
 6003980:	e0 62 10 00 	l.add r3,r2,r2
 6003984:	b8 42 00 03 	l.slli r2,r2,0x3
 6003988:	e0 43 10 00 	l.add r2,r3,r2
 600398c:	e2 10 10 02 	l.sub r16,r16,r2
 6003990:	a6 10 00 ff 	l.andi r16,r16,0xff
 6003994:	e1 ce 80 00 	l.add r14,r14,r16
 6003998:	90 6e 00 00 	l.lbs r3,0x0(r14)
 600399c:	9c 21 00 10 	l.addi r1,r1,0x10
 60039a0:	85 21 ff fc 	l.lwz r9,0xfffffffc(r1)
 60039a4:	84 41 ff f0 	l.lwz r2,0xfffffff0(r1)
 60039a8:	85 c1 ff f4 	l.lwz r14,0xfffffff4(r1)
 60039ac:	03 ff ff 78 	l.j 600378c <Uart0_Tx>
 60039b0:	86 01 ff f8 	l.lwz r16,0xfffffff8(r1)

060039b4 <Uart0_Printf>:
 60039b4:	d7 e1 4f fc 	l.sw 0xfffffffc(r1),r9
 60039b8:	d7 e1 17 f8 	l.sw 0xfffffff8(r1),r2
 60039bc:	9c 21 ff f8 	l.addi r1,r1,0xfffffff8
 60039c0:	07 ff ff 99 	l.jal 6003824 <Uart0_Str>
 60039c4:	a8 44 00 00 	l.ori r2,r4,0x0
 60039c8:	07 ff ff bf 	l.jal 60038c4 <Uart0_Hex>
 60039cc:	a8 62 00 00 	l.ori r3,r2,0x0
 60039d0:	07 ff ff 6f 	l.jal 600378c <Uart0_Tx>
 60039d4:	9c 60 00 0d 	l.addi r3,r0,0xd
 60039d8:	9c 21 00 08 	l.addi r1,r1,0x8
 60039dc:	9c 60 00 0a 	l.addi r3,r0,0xa
 60039e0:	85 21 ff fc 	l.lwz r9,0xfffffffc(r1)
 60039e4:	03 ff ff 6a 	l.j 600378c <Uart0_Tx>
 60039e8:	84 41 ff f8 	l.lwz r2,0xfffffff8(r1)

060039ec <FlsRead>:
 60039ec:	d7 e1 4f fc 	l.sw 0xfffffffc(r1),r9
 60039f0:	d7 e1 17 f4 	l.sw 0xfffffff4(r1),r2
 60039f4:	d7 e1 77 f8 	l.sw 0xfffffff8(r1),r14
 60039f8:	9c 21 ff f4 	l.addi r1,r1,0xfffffff4
 60039fc:	a8 43 00 00 	l.ori r2,r3,0x0
 6003a00:	07 ff fe a6 	l.jal 6003498 <DmaMemCpy_ip>
 6003a04:	a9 c5 00 00 	l.ori r14,r5,0x0
 6003a08:	e0 82 70 00 	l.add r4,r2,r14
 6003a0c:	07 ff f8 55 	l.jal 6001b60 <invalidate_dcache_range>
 6003a10:	a8 62 00 00 	l.ori r3,r2,0x0
 6003a14:	9c 21 00 0c 	l.addi r1,r1,0xc
 6003a18:	9d 60 00 01 	l.addi r11,r0,0x1
 6003a1c:	85 21 ff fc 	l.lwz r9,0xfffffffc(r1)
 6003a20:	84 41 ff f4 	l.lwz r2,0xfffffff4(r1)
 6003a24:	44 00 48 00 	l.jr r9
 6003a28:	85 c1 ff f8 	l.lwz r14,0xfffffff8(r1)

06003a2c <FlsWrite>:
 6003a2c:	d7 e1 4f fc 	l.sw 0xfffffffc(r1),r9
 6003a30:	07 ff fe 9a 	l.jal 6003498 <DmaMemCpy_ip>
 6003a34:	9c 21 ff fc 	l.addi r1,r1,0xfffffffc
 6003a38:	9c 21 00 04 	l.addi r1,r1,0x4
 6003a3c:	85 21 ff fc 	l.lwz r9,0xfffffffc(r1)
 6003a40:	44 00 48 00 	l.jr r9
 6003a44:	9d 60 00 01 	l.addi r11,r0,0x1

06003a48 <SflsWriteEn>:
 6003a48:	18 60 f9 20 	l.movhi r3,0xf920
 6003a4c:	d7 e1 17 fc 	l.sw 0xfffffffc(r1),r2
 6003a50:	a8 83 00 0c 	l.ori r4,r3,0xc
 6003a54:	9c 40 00 06 	l.addi r2,r0,0x6
 6003a58:	a8 63 00 14 	l.ori r3,r3,0x14
 6003a5c:	d8 04 10 00 	l.sb 0x0(r4),r2
 6003a60:	18 40 00 02 	l.movhi r2,0x2
 6003a64:	84 84 00 00 	l.lwz r4,0x0(r4)
 6003a68:	9c 21 ff fc 	l.addi r1,r1,0xfffffffc
 6003a6c:	b8 84 00 48 	l.srli r4,r4,0x8
 6003a70:	a4 84 03 00 	l.andi r4,r4,0x300
 6003a74:	e0 84 10 04 	l.or r4,r4,r2
 6003a78:	d4 03 20 00 	l.sw 0x0(r3),r4
 6003a7c:	84 83 00 00 	l.lwz r4,0x0(r3)
 6003a80:	18 40 00 02 	l.movhi r2,0x2
 6003a84:	e0 84 10 03 	l.and r4,r4,r2
 6003a88:	bc 24 00 00 	l.sfnei r4,0x0
 6003a8c:	13 ff ff fc 	l.bf 6003a7c <SflsWriteEn+0x34>
 6003a90:	15 00 00 00 	l.nop 0x0
 6003a94:	9c 21 00 04 	l.addi r1,r1,0x4
 6003a98:	44 00 48 00 	l.jr r9
 6003a9c:	84 41 ff fc 	l.lwz r2,0xfffffffc(r1)

06003aa0 <SflsEraseSect>:
 6003aa0:	d7 e1 17 f8 	l.sw 0xfffffff8(r1),r2
 6003aa4:	d7 e1 4f fc 	l.sw 0xfffffffc(r1),r9
 6003aa8:	9c 21 ff f8 	l.addi r1,r1,0xfffffff8
 6003aac:	07 ff ff e7 	l.jal 6003a48 <SflsWriteEn>
 6003ab0:	a8 43 00 00 	l.ori r2,r3,0x0
 6003ab4:	18 80 f9 20 	l.movhi r4,0xf920
 6003ab8:	9c 60 00 20 	l.addi r3,r0,0x20
 6003abc:	a8 a4 00 0c 	l.ori r5,r4,0xc
 6003ac0:	19 00 00 ff 	l.movhi r8,0xff
 6003ac4:	d8 05 18 00 	l.sb 0x0(r5),r3
 6003ac8:	a9 08 ff ff 	l.ori r8,r8,0xffff
 6003acc:	a8 64 00 10 	l.ori r3,r4,0x10
 6003ad0:	e0 e2 40 03 	l.and r7,r2,r8
 6003ad4:	84 c3 00 00 	l.lwz r6,0x0(r3)
 6003ad8:	19 00 fe 00 	l.movhi r8,0xfe00
 6003adc:	a8 84 00 14 	l.ori r4,r4,0x14
 6003ae0:	e0 c6 40 03 	l.and r6,r6,r8
 6003ae4:	e0 c6 38 04 	l.or r6,r6,r7
 6003ae8:	d4 03 30 00 	l.sw 0x0(r3),r6
 6003aec:	84 c5 00 00 	l.lwz r6,0x0(r5)
 6003af0:	84 65 00 00 	l.lwz r3,0x0(r5)
 6003af4:	b8 a6 00 48 	l.srli r5,r6,0x8
 6003af8:	b8 63 00 4a 	l.srli r3,r3,0xa
 6003afc:	a4 a5 03 00 	l.andi r5,r5,0x300
 6003b00:	a4 63 00 c0 	l.andi r3,r3,0xc0
 6003b04:	e0 65 18 04 	l.or r3,r5,r3
 6003b08:	18 a0 00 02 	l.movhi r5,0x2
 6003b0c:	a8 a5 48 00 	l.ori r5,r5,0x4800
 6003b10:	e0 63 28 04 	l.or r3,r3,r5
 6003b14:	d4 04 18 00 	l.sw 0x0(r4),r3
 6003b18:	84 64 00 00 	l.lwz r3,0x0(r4)
 6003b1c:	19 00 00 02 	l.movhi r8,0x2
 6003b20:	e0 63 40 03 	l.and r3,r3,r8
 6003b24:	bc 23 00 00 	l.sfnei r3,0x0
 6003b28:	13 ff ff fc 	l.bf 6003b18 <SflsEraseSect+0x78>
 6003b2c:	18 a0 06 00 	l.movhi r5,0x600
 6003b30:	18 80 f9 ff 	l.movhi r4,0xf9ff
 6003b34:	a8 84 f0 00 	l.ori r4,r4,0xf000
 6003b38:	9c 21 00 08 	l.addi r1,r1,0x8
 6003b3c:	e0 62 20 03 	l.and r3,r2,r4
 6003b40:	85 21 ff fc 	l.lwz r9,0xfffffffc(r1)
 6003b44:	e0 63 28 04 	l.or r3,r3,r5
 6003b48:	84 41 ff f8 	l.lwz r2,0xfffffff8(r1)
 6003b4c:	03 ff f8 05 	l.j 6001b60 <invalidate_dcache_range>
 6003b50:	9c 83 10 00 	l.addi r4,r3,0x1000

06003b54 <FlsErase>:
 6003b54:	d7 e1 4f fc 	l.sw 0xfffffffc(r1),r9
 6003b58:	9c 21 ff fc 	l.addi r1,r1,0xfffffffc
 6003b5c:	9c 21 00 04 	l.addi r1,r1,0x4
 6003b60:	85 21 ff fc 	l.lwz r9,0xfffffffc(r1)
 6003b64:	03 ff ff cf 	l.j 6003aa0 <SflsEraseSect>
 6003b68:	15 00 00 00 	l.nop 0x0

06003b6c <SflsEraseBlock>:
 6003b6c:	d7 e1 17 f8 	l.sw 0xfffffff8(r1),r2
 6003b70:	d7 e1 4f fc 	l.sw 0xfffffffc(r1),r9
 6003b74:	9c 21 ff f8 	l.addi r1,r1,0xfffffff8
 6003b78:	07 ff ff b4 	l.jal 6003a48 <SflsWriteEn>
 6003b7c:	a8 43 00 00 	l.ori r2,r3,0x0
 6003b80:	18 80 f9 20 	l.movhi r4,0xf920
 6003b84:	9c 60 ff d8 	l.addi r3,r0,0xffffffd8
 6003b88:	a8 a4 00 0c 	l.ori r5,r4,0xc
 6003b8c:	a8 c4 00 10 	l.ori r6,r4,0x10
 6003b90:	d8 05 18 00 	l.sb 0x0(r5),r3
 6003b94:	18 60 00 ff 	l.movhi r3,0xff
 6003b98:	a8 84 00 14 	l.ori r4,r4,0x14
 6003b9c:	a8 63 ff ff 	l.ori r3,r3,0xffff
 6003ba0:	e0 e2 18 03 	l.and r7,r2,r3
 6003ba4:	84 66 00 00 	l.lwz r3,0x0(r6)
 6003ba8:	18 40 fe 00 	l.movhi r2,0xfe00
 6003bac:	e0 63 10 03 	l.and r3,r3,r2
 6003bb0:	18 40 00 02 	l.movhi r2,0x2
 6003bb4:	e0 63 38 04 	l.or r3,r3,r7
 6003bb8:	a8 42 48 00 	l.ori r2,r2,0x4800
 6003bbc:	d4 06 18 00 	l.sw 0x0(r6),r3
 6003bc0:	84 c5 00 00 	l.lwz r6,0x0(r5)
 6003bc4:	84 65 00 00 	l.lwz r3,0x0(r5)
 6003bc8:	b8 a6 00 48 	l.srli r5,r6,0x8
 6003bcc:	b8 63 00 4a 	l.srli r3,r3,0xa
 6003bd0:	a4 a5 03 00 	l.andi r5,r5,0x300
 6003bd4:	a4 63 00 c0 	l.andi r3,r3,0xc0
 6003bd8:	e0 65 18 04 	l.or r3,r5,r3
 6003bdc:	e0 63 10 04 	l.or r3,r3,r2
 6003be0:	d4 04 18 00 	l.sw 0x0(r4),r3
 6003be4:	84 44 00 00 	l.lwz r2,0x0(r4)
 6003be8:	18 60 00 02 	l.movhi r3,0x2
 6003bec:	e0 42 18 03 	l.and r2,r2,r3
 6003bf0:	bc 22 00 00 	l.sfnei r2,0x0
 6003bf4:	13 ff ff fc 	l.bf 6003be4 <SflsEraseBlock+0x78>
 6003bf8:	15 00 00 00 	l.nop 0x0
 6003bfc:	9c 21 00 08 	l.addi r1,r1,0x8
 6003c00:	85 21 ff fc 	l.lwz r9,0xfffffffc(r1)
 6003c04:	44 00 48 00 	l.jr r9
 6003c08:	84 41 ff f8 	l.lwz r2,0xfffffff8(r1)

06003c0c <SflsEraseAll>:
 6003c0c:	d7 e1 17 f8 	l.sw 0xfffffff8(r1),r2
 6003c10:	d7 e1 4f fc 	l.sw 0xfffffffc(r1),r9
 6003c14:	9c 21 ff f8 	l.addi r1,r1,0xfffffff8
 6003c18:	07 ff ff 8c 	l.jal 6003a48 <SflsWriteEn>
 6003c1c:	9c 40 ff c7 	l.addi r2,r0,0xffffffc7
 6003c20:	18 60 f9 20 	l.movhi r3,0xf920
 6003c24:	a8 83 00 0c 	l.ori r4,r3,0xc
 6003c28:	a8 63 00 14 	l.ori r3,r3,0x14
 6003c2c:	d8 04 10 00 	l.sb 0x0(r4),r2
 6003c30:	18 40 00 02 	l.movhi r2,0x2
 6003c34:	84 84 00 00 	l.lwz r4,0x0(r4)
 6003c38:	a8 42 08 00 	l.ori r2,r2,0x800
 6003c3c:	b8 84 00 48 	l.srli r4,r4,0x8
 6003c40:	a4 84 03 00 	l.andi r4,r4,0x300
 6003c44:	e0 84 10 04 	l.or r4,r4,r2
 6003c48:	d4 03 20 00 	l.sw 0x0(r3),r4
 6003c4c:	84 83 00 00 	l.lwz r4,0x0(r3)
 6003c50:	18 40 00 02 	l.movhi r2,0x2
 6003c54:	e0 84 10 03 	l.and r4,r4,r2
 6003c58:	bc 24 00 00 	l.sfnei r4,0x0
 6003c5c:	13 ff ff fc 	l.bf 6003c4c <SflsEraseAll+0x40>
 6003c60:	15 00 00 00 	l.nop 0x0
 6003c64:	9c 21 00 08 	l.addi r1,r1,0x8
 6003c68:	85 21 ff fc 	l.lwz r9,0xfffffffc(r1)
 6003c6c:	44 00 48 00 	l.jr r9
 6003c70:	84 41 ff f8 	l.lwz r2,0xfffffff8(r1)

06003c74 <SflsWriteReg>:
 6003c74:	d7 e1 17 f8 	l.sw 0xfffffff8(r1),r2
 6003c78:	d7 e1 4f fc 	l.sw 0xfffffffc(r1),r9
 6003c7c:	9c 21 ff f8 	l.addi r1,r1,0xfffffff8
 6003c80:	07 ff ff 72 	l.jal 6003a48 <SflsWriteEn>
 6003c84:	a4 43 00 ff 	l.andi r2,r3,0xff
 6003c88:	18 80 f9 20 	l.movhi r4,0xf920
 6003c8c:	9c 60 00 01 	l.addi r3,r0,0x1
 6003c90:	a8 a4 00 0c 	l.ori r5,r4,0xc
 6003c94:	d8 05 18 00 	l.sb 0x0(r5),r3
 6003c98:	b8 62 00 18 	l.slli r3,r2,0x18
 6003c9c:	18 40 00 02 	l.movhi r2,0x2
 6003ca0:	d4 04 18 00 	l.sw 0x0(r4),r3
 6003ca4:	a8 42 1c 00 	l.ori r2,r2,0x1c00
 6003ca8:	84 c5 00 00 	l.lwz r6,0x0(r5)
 6003cac:	84 65 00 00 	l.lwz r3,0x0(r5)
 6003cb0:	b8 a6 00 48 	l.srli r5,r6,0x8
 6003cb4:	b8 63 00 4c 	l.srli r3,r3,0xc
 6003cb8:	a8 84 00 14 	l.ori r4,r4,0x14
 6003cbc:	a4 a5 03 00 	l.andi r5,r5,0x300
 6003cc0:	a4 63 00 30 	l.andi r3,r3,0x30
 6003cc4:	e0 65 18 04 	l.or r3,r5,r3
 6003cc8:	e0 63 10 04 	l.or r3,r3,r2
 6003ccc:	d4 04 18 00 	l.sw 0x0(r4),r3
 6003cd0:	84 44 00 00 	l.lwz r2,0x0(r4)
 6003cd4:	18 60 00 02 	l.movhi r3,0x2
 6003cd8:	e0 42 18 03 	l.and r2,r2,r3
 6003cdc:	bc 22 00 00 	l.sfnei r2,0x0
 6003ce0:	13 ff ff fc 	l.bf 6003cd0 <SflsWriteReg+0x5c>
 6003ce4:	15 00 00 00 	l.nop 0x0
 6003ce8:	9c 21 00 08 	l.addi r1,r1,0x8
 6003cec:	85 21 ff fc 	l.lwz r9,0xfffffffc(r1)
 6003cf0:	44 00 48 00 	l.jr r9
 6003cf4:	84 41 ff f8 	l.lwz r2,0xfffffff8(r1)

06003cf8 <SflsReadReg>:
 6003cf8:	18 80 f9 20 	l.movhi r4,0xf920
 6003cfc:	d7 e1 17 fc 	l.sw 0xfffffffc(r1),r2
 6003d00:	a8 64 00 0c 	l.ori r3,r4,0xc
 6003d04:	9c 40 00 05 	l.addi r2,r0,0x5
 6003d08:	9c 21 ff fc 	l.addi r1,r1,0xfffffffc
 6003d0c:	d8 03 10 00 	l.sb 0x0(r3),r2
 6003d10:	18 40 00 02 	l.movhi r2,0x2
 6003d14:	84 a3 00 00 	l.lwz r5,0x0(r3)
 6003d18:	84 63 00 00 	l.lwz r3,0x0(r3)
 6003d1c:	b8 a5 00 48 	l.srli r5,r5,0x8
 6003d20:	b8 63 00 4c 	l.srli r3,r3,0xc
 6003d24:	a8 42 10 00 	l.ori r2,r2,0x1000
 6003d28:	a4 a5 03 00 	l.andi r5,r5,0x300
 6003d2c:	a4 63 00 30 	l.andi r3,r3,0x30
 6003d30:	e0 a5 18 04 	l.or r5,r5,r3
 6003d34:	a8 64 00 14 	l.ori r3,r4,0x14
 6003d38:	e0 a5 10 04 	l.or r5,r5,r2
 6003d3c:	d4 03 28 00 	l.sw 0x0(r3),r5
 6003d40:	84 83 00 00 	l.lwz r4,0x0(r3)
 6003d44:	18 40 00 02 	l.movhi r2,0x2
 6003d48:	e0 84 10 03 	l.and r4,r4,r2
 6003d4c:	bc 24 00 00 	l.sfnei r4,0x0
 6003d50:	13 ff ff fc 	l.bf 6003d40 <SflsReadReg+0x48>
 6003d54:	15 00 00 00 	l.nop 0x0
 6003d58:	18 60 f9 20 	l.movhi r3,0xf920
 6003d5c:	a8 63 00 04 	l.ori r3,r3,0x4
 6003d60:	85 63 00 00 	l.lwz r11,0x0(r3)
 6003d64:	9c 21 00 04 	l.addi r1,r1,0x4
 6003d68:	b9 6b 00 58 	l.srli r11,r11,0x18
 6003d6c:	44 00 48 00 	l.jr r9
 6003d70:	84 41 ff fc 	l.lwz r2,0xfffffffc(r1)

06003d74 <SflsInit>:
 6003d74:	d7 e1 17 f0 	l.sw 0xfffffff0(r1),r2
 6003d78:	18 40 f9 60 	l.movhi r2,0xf960
 6003d7c:	d7 e1 4f fc 	l.sw 0xfffffffc(r1),r9
 6003d80:	d7 e1 77 f4 	l.sw 0xfffffff4(r1),r14
 6003d84:	d7 e1 87 f8 	l.sw 0xfffffff8(r1),r16
 6003d88:	a8 62 00 34 	l.ori r3,r2,0x34
 6003d8c:	18 a0 ff f3 	l.movhi r5,0xfff3
 6003d90:	84 83 00 00 	l.lwz r4,0x0(r3)
 6003d94:	a8 a5 ff ff 	l.ori r5,r5,0xffff
 6003d98:	a8 42 00 2c 	l.ori r2,r2,0x2c
 6003d9c:	e0 84 28 03 	l.and r4,r4,r5
 6003da0:	18 a0 00 04 	l.movhi r5,0x4
 6003da4:	9c 21 ff e4 	l.addi r1,r1,0xffffffe4
 6003da8:	e0 84 28 04 	l.or r4,r4,r5
 6003dac:	18 a0 ff fc 	l.movhi r5,0xfffc
 6003db0:	d4 03 20 00 	l.sw 0x0(r3),r4
 6003db4:	a8 a5 ff ff 	l.ori r5,r5,0xffff
 6003db8:	84 83 00 00 	l.lwz r4,0x0(r3)
 6003dbc:	e0 84 28 03 	l.and r4,r4,r5
 6003dc0:	18 a0 00 01 	l.movhi r5,0x1
 6003dc4:	e0 84 28 04 	l.or r4,r4,r5
 6003dc8:	18 a0 ff ff 	l.movhi r5,0xffff
 6003dcc:	d4 03 20 00 	l.sw 0x0(r3),r4
 6003dd0:	a8 a5 3f ff 	l.ori r5,r5,0x3fff
 6003dd4:	84 83 00 00 	l.lwz r4,0x0(r3)
 6003dd8:	e0 84 28 03 	l.and r4,r4,r5
 6003ddc:	9c a0 cf ff 	l.addi r5,r0,0xffffcfff
 6003de0:	a8 84 40 00 	l.ori r4,r4,0x4000
 6003de4:	d4 03 20 00 	l.sw 0x0(r3),r4
 6003de8:	84 83 00 00 	l.lwz r4,0x0(r3)
 6003dec:	e0 84 28 03 	l.and r4,r4,r5
 6003df0:	9c a0 f3 ff 	l.addi r5,r0,0xfffff3ff
 6003df4:	a8 84 10 00 	l.ori r4,r4,0x1000
 6003df8:	d4 03 20 00 	l.sw 0x0(r3),r4
 6003dfc:	84 83 00 00 	l.lwz r4,0x0(r3)
 6003e00:	e0 84 28 03 	l.and r4,r4,r5
 6003e04:	9c a0 fc ff 	l.addi r5,r0,0xfffffcff
 6003e08:	a8 84 04 00 	l.ori r4,r4,0x400
 6003e0c:	d4 03 20 00 	l.sw 0x0(r3),r4
 6003e10:	84 83 00 00 	l.lwz r4,0x0(r3)
 6003e14:	e0 84 28 03 	l.and r4,r4,r5
 6003e18:	9c a0 ff 9f 	l.addi r5,r0,0xffffff9f
 6003e1c:	a8 84 01 00 	l.ori r4,r4,0x100
 6003e20:	d4 03 20 00 	l.sw 0x0(r3),r4
 6003e24:	9c 80 e1 ff 	l.addi r4,r0,0xffffe1ff
 6003e28:	84 62 00 00 	l.lwz r3,0x0(r2)
 6003e2c:	e0 63 20 03 	l.and r3,r3,r4
 6003e30:	a8 63 18 00 	l.ori r3,r3,0x1800
 6003e34:	d4 02 18 00 	l.sw 0x0(r2),r3
 6003e38:	18 40 f9 20 	l.movhi r2,0xf920
 6003e3c:	a8 62 00 0c 	l.ori r3,r2,0xc
 6003e40:	a8 42 00 14 	l.ori r2,r2,0x14
 6003e44:	d8 03 28 00 	l.sb 0x0(r3),r5
 6003e48:	18 60 f0 02 	l.movhi r3,0xf002
 6003e4c:	a8 63 10 02 	l.ori r3,r3,0x1002
 6003e50:	d4 02 18 00 	l.sw 0x0(r2),r3
 6003e54:	84 62 00 00 	l.lwz r3,0x0(r2)
 6003e58:	18 80 00 02 	l.movhi r4,0x2
 6003e5c:	e0 63 20 03 	l.and r3,r3,r4
 6003e60:	bc 23 00 00 	l.sfnei r3,0x0
 6003e64:	13 ff ff fc 	l.bf 6003e54 <SflsInit+0xe0>
 6003e68:	18 a0 00 ff 	l.movhi r5,0xff
 6003e6c:	18 40 f9 20 	l.movhi r2,0xf920
 6003e70:	a8 42 00 04 	l.ori r2,r2,0x4
 6003e74:	18 60 06 00 	l.movhi r3,0x600
 6003e78:	86 02 00 00 	l.lwz r16,0x0(r2)
 6003e7c:	85 c2 00 00 	l.lwz r14,0x0(r2)
 6003e80:	84 42 00 00 	l.lwz r2,0x0(r2)
 6003e84:	e1 ce 28 03 	l.and r14,r14,r5
 6003e88:	a4 42 ff 00 	l.andi r2,r2,0xff00
 6003e8c:	ba 10 00 58 	l.srli r16,r16,0x18
 6003e90:	b9 ce 00 50 	l.srli r14,r14,0x10
 6003e94:	b8 42 00 48 	l.srli r2,r2,0x8
 6003e98:	a8 63 13 ea 	l.ori r3,r3,0x13ea
 6003e9c:	d4 01 80 00 	l.sw 0x0(r1),r16
 6003ea0:	d4 01 70 04 	l.sw 0x4(r1),r14
 6003ea4:	07 ff f9 9e 	l.jal 600251c <_ecm_printf>
 6003ea8:	d4 01 10 08 	l.sw 0x8(r1),r2
 6003eac:	bc 10 00 9d 	l.sfeqi r16,0x9d
 6003eb0:	10 00 00 13 	l.bf 6003efc <SflsInit+0x188>
 6003eb4:	bc 50 00 9d 	l.sfgtui r16,0x9d
 6003eb8:	10 00 00 07 	l.bf 6003ed4 <SflsInit+0x160>
 6003ebc:	bc 10 00 c2 	l.sfeqi r16,0xc2
 6003ec0:	bc 10 00 1c 	l.sfeqi r16,0x1c
 6003ec4:	0c 00 00 1c 	l.bnf 6003f34 <SflsInit+0x1c0>
 6003ec8:	a8 6e 00 00 	l.ori r3,r14,0x0
 6003ecc:	00 00 00 08 	l.j 6003eec <SflsInit+0x178>
 6003ed0:	15 00 00 00 	l.nop 0x0
 6003ed4:	10 00 00 0f 	l.bf 6003f10 <SflsInit+0x19c>
 6003ed8:	bc 10 00 ef 	l.sfeqi r16,0xef
 6003edc:	0c 00 00 16 	l.bnf 6003f34 <SflsInit+0x1c0>
 6003ee0:	a8 6e 00 00 	l.ori r3,r14,0x0
 6003ee4:	00 00 00 10 	l.j 6003f24 <SflsInit+0x1b0>
 6003ee8:	15 00 00 00 	l.nop 0x0
 6003eec:	07 80 0e 24 	l.jal 400777c <Sfls_EON>
 6003ef0:	a8 82 00 00 	l.ori r4,r2,0x0
 6003ef4:	00 00 00 1e 	l.j 6003f6c <SflsInit+0x1f8>
 6003ef8:	9c 21 00 1c 	l.addi r1,r1,0x1c
 6003efc:	a8 6e 00 00 	l.ori r3,r14,0x0
 6003f00:	07 80 0f 1e 	l.jal 4007b78 <Sfls_ISSI>
 6003f04:	a8 82 00 00 	l.ori r4,r2,0x0
 6003f08:	00 00 00 19 	l.j 6003f6c <SflsInit+0x1f8>
 6003f0c:	9c 21 00 1c 	l.addi r1,r1,0x1c
 6003f10:	a8 6e 00 00 	l.ori r3,r14,0x0
 6003f14:	07 80 0e 78 	l.jal 40078f4 <Sfls_Macronix>
 6003f18:	a8 82 00 00 	l.ori r4,r2,0x0
 6003f1c:	00 00 00 14 	l.j 6003f6c <SflsInit+0x1f8>
 6003f20:	9c 21 00 1c 	l.addi r1,r1,0x1c
 6003f24:	07 80 0d 85 	l.jal 4007538 <Sfls_Winbond>
 6003f28:	a8 82 00 00 	l.ori r4,r2,0x0
 6003f2c:	00 00 00 10 	l.j 6003f6c <SflsInit+0x1f8>
 6003f30:	9c 21 00 1c 	l.addi r1,r1,0x1c
 6003f34:	18 60 06 00 	l.movhi r3,0x600
 6003f38:	18 40 f9 20 	l.movhi r2,0xf920
 6003f3c:	a8 63 14 14 	l.ori r3,r3,0x1414
 6003f40:	07 ff f9 77 	l.jal 600251c <_ecm_printf>
 6003f44:	a8 42 00 14 	l.ori r2,r2,0x14
 6003f48:	18 60 10 02 	l.movhi r3,0x1002
 6003f4c:	d4 02 18 00 	l.sw 0x0(r2),r3
 6003f50:	84 62 00 00 	l.lwz r3,0x0(r2)
 6003f54:	18 80 00 02 	l.movhi r4,0x2
 6003f58:	e0 63 20 03 	l.and r3,r3,r4
 6003f5c:	bc 23 00 00 	l.sfnei r3,0x0
 6003f60:	13 ff ff fc 	l.bf 6003f50 <SflsInit+0x1dc>
 6003f64:	15 00 00 00 	l.nop 0x0
 6003f68:	9c 21 00 1c 	l.addi r1,r1,0x1c
 6003f6c:	18 60 06 00 	l.movhi r3,0x600
 6003f70:	85 21 ff fc 	l.lwz r9,0xfffffffc(r1)
 6003f74:	a8 63 10 c8 	l.ori r3,r3,0x10c8
 6003f78:	84 41 ff f0 	l.lwz r2,0xfffffff0(r1)
 6003f7c:	85 c1 ff f4 	l.lwz r14,0xfffffff4(r1)
 6003f80:	03 ff f9 67 	l.j 600251c <_ecm_printf>
 6003f84:	86 01 ff f8 	l.lwz r16,0xfffffff8(r1)

06003f88 <UserSave>:
 6003f88:	d7 e1 77 f8 	l.sw 0xfffffff8(r1),r14
 6003f8c:	d7 e1 4f fc 	l.sw 0xfffffffc(r1),r9
 6003f90:	d7 e1 17 f4 	l.sw 0xfffffff4(r1),r2
 6003f94:	a9 c3 00 00 	l.ori r14,r3,0x0
 6003f98:	9c 21 ff f0 	l.addi r1,r1,0xfffffff0
 6003f9c:	07 ff f6 33 	l.jal 6001868 <mfspr>
 6003fa0:	9c 60 00 1f 	l.addi r3,r0,0x1f
 6003fa4:	18 60 f9 40 	l.movhi r3,0xf940
 6003fa8:	a8 63 00 40 	l.ori r3,r3,0x40
 6003fac:	84 43 00 00 	l.lwz r2,0x0(r3)
 6003fb0:	bc 22 00 00 	l.sfnei r2,0x0
 6003fb4:	13 ff ff fe 	l.bf 6003fac <UserSave+0x24>
 6003fb8:	bc 0e 00 01 	l.sfeqi r14,0x1
 6003fbc:	0c 00 00 0c 	l.bnf 6003fec <UserSave+0x64>
 6003fc0:	15 00 00 00 	l.nop 0x0
 6003fc4:	18 40 06 ff 	l.movhi r2,0x6ff
 6003fc8:	07 ff fe e3 	l.jal 6003b54 <FlsErase>
 6003fcc:	a8 62 f0 00 	l.ori r3,r2,0xf000
 6003fd0:	18 80 04 00 	l.movhi r4,0x400
 6003fd4:	a8 62 f0 00 	l.ori r3,r2,0xf000
 6003fd8:	a8 84 7e e4 	l.ori r4,r4,0x7ee4
 6003fdc:	07 ff fe 94 	l.jal 6003a2c <FlsWrite>
 6003fe0:	9c a0 00 40 	l.addi r5,r0,0x40
 6003fe4:	00 00 00 06 	l.j 6003ffc <UserSave+0x74>
 6003fe8:	a8 4b 00 00 	l.ori r2,r11,0x0
 6003fec:	18 60 06 00 	l.movhi r3,0x600
 6003ff0:	d4 01 70 00 	l.sw 0x0(r1),r14
 6003ff4:	07 ff f9 4a 	l.jal 600251c <_ecm_printf>
 6003ff8:	a8 63 14 1d 	l.ori r3,r3,0x141d
 6003ffc:	18 60 f9 40 	l.movhi r3,0xf940
 6004000:	9c 80 00 00 	l.addi r4,r0,0x0
 6004004:	a8 63 00 40 	l.ori r3,r3,0x40
 6004008:	d4 03 20 00 	l.sw 0x0(r3),r4
 600400c:	07 ff f6 14 	l.jal 600185c <mtspr>
 6004010:	9c 60 00 1f 	l.addi r3,r0,0x1f
 6004014:	9c 21 00 10 	l.addi r1,r1,0x10
 6004018:	a9 62 00 00 	l.ori r11,r2,0x0
 600401c:	85 21 ff fc 	l.lwz r9,0xfffffffc(r1)
 6004020:	84 41 ff f4 	l.lwz r2,0xfffffff4(r1)
 6004024:	44 00 48 00 	l.jr r9
 6004028:	85 c1 ff f8 	l.lwz r14,0xfffffff8(r1)

0600402c <UserLoad>:
 600402c:	d7 e1 77 f8 	l.sw 0xfffffff8(r1),r14
 6004030:	d7 e1 4f fc 	l.sw 0xfffffffc(r1),r9
 6004034:	d7 e1 17 f4 	l.sw 0xfffffff4(r1),r2
 6004038:	a9 c3 00 00 	l.ori r14,r3,0x0
 600403c:	9c 21 ff f0 	l.addi r1,r1,0xfffffff0
 6004040:	07 ff f6 0a 	l.jal 6001868 <mfspr>
 6004044:	9c 60 00 1f 	l.addi r3,r0,0x1f
 6004048:	18 60 f9 40 	l.movhi r3,0xf940
 600404c:	a8 63 00 40 	l.ori r3,r3,0x40
 6004050:	84 43 00 00 	l.lwz r2,0x0(r3)
 6004054:	bc 22 00 00 	l.sfnei r2,0x0
 6004058:	13 ff ff fe 	l.bf 6004050 <UserLoad+0x24>
 600405c:	bc 0e 00 01 	l.sfeqi r14,0x1
 6004060:	0c 00 00 09 	l.bnf 6004084 <UserLoad+0x58>
 6004064:	18 80 06 ff 	l.movhi r4,0x6ff
 6004068:	18 60 04 00 	l.movhi r3,0x400
 600406c:	a8 63 7e e4 	l.ori r3,r3,0x7ee4
 6004070:	a8 84 f0 00 	l.ori r4,r4,0xf000
 6004074:	07 ff fe 5e 	l.jal 60039ec <FlsRead>
 6004078:	9c a0 00 40 	l.addi r5,r0,0x40
 600407c:	00 00 00 06 	l.j 6004094 <UserLoad+0x68>
 6004080:	a8 4b 00 00 	l.ori r2,r11,0x0
 6004084:	18 60 06 00 	l.movhi r3,0x600
 6004088:	d4 01 70 00 	l.sw 0x0(r1),r14
 600408c:	07 ff f9 24 	l.jal 600251c <_ecm_printf>
 6004090:	a8 63 14 1d 	l.ori r3,r3,0x141d
 6004094:	18 60 f9 40 	l.movhi r3,0xf940
 6004098:	9c 80 00 00 	l.addi r4,r0,0x0
 600409c:	a8 63 00 40 	l.ori r3,r3,0x40
 60040a0:	d4 03 20 00 	l.sw 0x0(r3),r4
 60040a4:	07 ff f5 ee 	l.jal 600185c <mtspr>
 60040a8:	9c 60 00 1f 	l.addi r3,r0,0x1f
 60040ac:	9c 21 00 10 	l.addi r1,r1,0x10
 60040b0:	a9 62 00 00 	l.ori r11,r2,0x0
 60040b4:	85 21 ff fc 	l.lwz r9,0xfffffffc(r1)
 60040b8:	84 41 ff f4 	l.lwz r2,0xfffffff4(r1)
 60040bc:	44 00 48 00 	l.jr r9
 60040c0:	85 c1 ff f8 	l.lwz r14,0xfffffff8(r1)

060040c4 <UserErase>:
 60040c4:	d7 e1 17 f8 	l.sw 0xfffffff8(r1),r2
 60040c8:	d7 e1 4f fc 	l.sw 0xfffffffc(r1),r9
 60040cc:	a8 43 00 00 	l.ori r2,r3,0x0
 60040d0:	9c 21 ff f4 	l.addi r1,r1,0xfffffff4
 60040d4:	07 ff f5 e5 	l.jal 6001868 <mfspr>
 60040d8:	9c 60 00 1f 	l.addi r3,r0,0x1f
 60040dc:	18 60 f9 40 	l.movhi r3,0xf940
 60040e0:	a8 63 00 40 	l.ori r3,r3,0x40
 60040e4:	84 83 00 00 	l.lwz r4,0x0(r3)
 60040e8:	bc 24 00 00 	l.sfnei r4,0x0
 60040ec:	13 ff ff fe 	l.bf 60040e4 <UserErase+0x20>
 60040f0:	bc 02 00 01 	l.sfeqi r2,0x1
 60040f4:	0c 00 00 07 	l.bnf 6004110 <UserErase+0x4c>
 60040f8:	15 00 00 00 	l.nop 0x0
 60040fc:	18 60 06 ff 	l.movhi r3,0x6ff
 6004100:	07 ff fe 95 	l.jal 6003b54 <FlsErase>
 6004104:	a8 63 f0 00 	l.ori r3,r3,0xf000
 6004108:	00 00 00 07 	l.j 6004124 <UserErase+0x60>
 600410c:	18 40 f9 40 	l.movhi r2,0xf940
 6004110:	18 60 06 00 	l.movhi r3,0x600
 6004114:	d4 01 10 00 	l.sw 0x0(r1),r2
 6004118:	07 ff f9 01 	l.jal 600251c <_ecm_printf>
 600411c:	a8 63 14 1d 	l.ori r3,r3,0x141d
 6004120:	18 40 f9 40 	l.movhi r2,0xf940
 6004124:	9c 60 00 00 	l.addi r3,r0,0x0
 6004128:	a8 42 00 40 	l.ori r2,r2,0x40
 600412c:	9c 80 00 00 	l.addi r4,r0,0x0
 6004130:	d4 02 18 00 	l.sw 0x0(r2),r3
 6004134:	07 ff f5 ca 	l.jal 600185c <mtspr>
 6004138:	9c 60 00 1f 	l.addi r3,r0,0x1f
 600413c:	9c 21 00 0c 	l.addi r1,r1,0xc
 6004140:	9d 60 00 00 	l.addi r11,r0,0x0
 6004144:	85 21 ff fc 	l.lwz r9,0xfffffffc(r1)
 6004148:	44 00 48 00 	l.jr r9
 600414c:	84 41 ff f8 	l.lwz r2,0xfffffff8(r1)

06004150 <WdtSysSetStop>:
 6004150:	18 60 f9 50 	l.movhi r3,0xf950
 6004154:	d7 e1 17 fc 	l.sw 0xfffffffc(r1),r2
 6004158:	a8 63 00 28 	l.ori r3,r3,0x28
 600415c:	9c 40 00 00 	l.addi r2,r0,0x0
 6004160:	9c 21 ff fc 	l.addi r1,r1,0xfffffffc
 6004164:	d4 03 10 00 	l.sw 0x0(r3),r2
 6004168:	9c 21 00 04 	l.addi r1,r1,0x4
 600416c:	44 00 48 00 	l.jr r9
 6004170:	84 41 ff fc 	l.lwz r2,0xfffffffc(r1)

06004174 <WdtSysCountReset>:
 6004174:	18 60 f0 01 	l.movhi r3,0xf001
 6004178:	d7 e1 17 fc 	l.sw 0xfffffffc(r1),r2
 600417c:	a8 63 00 00 	l.ori r3,r3,0x0
 6004180:	9c 40 00 00 	l.addi r2,r0,0x0
 6004184:	9c 80 00 03 	l.addi r4,r0,0x3
 6004188:	d4 03 11 a0 	l.sw 0x1a0(r3),r2
 600418c:	18 60 f9 50 	l.movhi r3,0xf950
 6004190:	9c 21 ff fc 	l.addi r1,r1,0xfffffffc
 6004194:	a8 63 00 28 	l.ori r3,r3,0x28
 6004198:	d4 03 20 00 	l.sw 0x0(r3),r4
 600419c:	9c 21 00 04 	l.addi r1,r1,0x4
 60041a0:	44 00 48 00 	l.jr r9
 60041a4:	84 41 ff fc 	l.lwz r2,0xfffffffc(r1)

060041a8 <WdtSysSetTime>:
 60041a8:	18 80 0b e8 	l.movhi r4,0xbe8
 60041ac:	d7 e1 4f fc 	l.sw 0xfffffffc(r1),r9
 60041b0:	a8 84 b4 c0 	l.ori r4,r4,0xb4c0
 60041b4:	9c 21 ff fc 	l.addi r1,r1,0xfffffffc
 60041b8:	e0 63 23 06 	l.mul r3,r3,r4
 60041bc:	18 80 f9 50 	l.movhi r4,0xf950
 60041c0:	a8 84 00 24 	l.ori r4,r4,0x24
 60041c4:	d4 04 18 00 	l.sw 0x0(r4),r3
 60041c8:	9c 21 00 04 	l.addi r1,r1,0x4
 60041cc:	85 21 ff fc 	l.lwz r9,0xfffffffc(r1)
 60041d0:	03 ff ff e9 	l.j 6004174 <WdtSysCountReset>
 60041d4:	15 00 00 00 	l.nop 0x0

060041d8 <WdtSysReboot>:
 60041d8:	d7 e1 17 f8 	l.sw 0xfffffff8(r1),r2
 60041dc:	d7 e1 4f fc 	l.sw 0xfffffffc(r1),r9
 60041e0:	9c 60 00 1f 	l.addi r3,r0,0x1f
 60041e4:	9c 21 ff f8 	l.addi r1,r1,0xfffffff8
 60041e8:	07 ff f5 a0 	l.jal 6001868 <mfspr>
 60041ec:	9c 40 00 00 	l.addi r2,r0,0x0
 60041f0:	18 60 f9 50 	l.movhi r3,0xf950
 60041f4:	a8 83 00 24 	l.ori r4,r3,0x24
 60041f8:	a8 63 00 28 	l.ori r3,r3,0x28
 60041fc:	d4 04 10 00 	l.sw 0x0(r4),r2
 6004200:	9c 80 00 03 	l.addi r4,r0,0x3
 6004204:	d4 03 20 00 	l.sw 0x0(r3),r4
 6004208:	00 00 00 00 	l.j 6004208 <WdtSysReboot+0x30>
 600420c:	15 00 00 00 	l.nop 0x0

06004210 <Boot_PLL_Init>:
 6004210:	d7 e1 4f fc 	l.sw 0xfffffffc(r1),r9
 6004214:	d7 e1 17 f4 	l.sw 0xfffffff4(r1),r2
 6004218:	d7 e1 77 f8 	l.sw 0xfffffff8(r1),r14
 600421c:	9c 60 00 02 	l.addi r3,r0,0x2
 6004220:	07 ff ff e2 	l.jal 60041a8 <WdtSysSetTime>
 6004224:	9c 21 ff f4 	l.addi r1,r1,0xfffffff4
 6004228:	18 60 f9 50 	l.movhi r3,0xf950
 600422c:	18 a0 ff f0 	l.movhi r5,0xfff0
 6004230:	a8 43 00 04 	l.ori r2,r3,0x4
 6004234:	a8 a5 ff ff 	l.ori r5,r5,0xffff
 6004238:	84 82 00 00 	l.lwz r4,0x0(r2)
 600423c:	a9 c3 00 1c 	l.ori r14,r3,0x1c
 6004240:	e0 84 28 03 	l.and r4,r4,r5
 6004244:	18 a0 00 01 	l.movhi r5,0x1
 6004248:	e0 84 28 04 	l.or r4,r4,r5
 600424c:	9c a0 80 ff 	l.addi r5,r0,0xffff80ff
 6004250:	d4 02 20 00 	l.sw 0x0(r2),r4
 6004254:	84 82 00 00 	l.lwz r4,0x0(r2)
 6004258:	e0 84 28 03 	l.and r4,r4,r5
 600425c:	9c a0 ff 80 	l.addi r5,r0,0xffffff80
 6004260:	a8 84 78 00 	l.ori r4,r4,0x7800
 6004264:	d4 02 20 00 	l.sw 0x0(r2),r4
 6004268:	84 82 00 00 	l.lwz r4,0x0(r2)
 600426c:	e0 84 28 03 	l.and r4,r4,r5
 6004270:	18 a0 20 00 	l.movhi r5,0x2000
 6004274:	a8 84 00 0a 	l.ori r4,r4,0xa
 6004278:	d4 02 20 00 	l.sw 0x0(r2),r4
 600427c:	84 82 00 00 	l.lwz r4,0x0(r2)
 6004280:	e0 84 28 04 	l.or r4,r4,r5
 6004284:	18 a0 80 00 	l.movhi r5,0x8000
 6004288:	d4 02 20 00 	l.sw 0x0(r2),r4
 600428c:	84 82 00 00 	l.lwz r4,0x0(r2)
 6004290:	e0 84 28 04 	l.or r4,r4,r5
 6004294:	18 a0 ff f0 	l.movhi r5,0xfff0
 6004298:	d4 02 20 00 	l.sw 0x0(r2),r4
 600429c:	a8 a5 ff ff 	l.ori r5,r5,0xffff
 60042a0:	84 8e 00 00 	l.lwz r4,0x0(r14)
 60042a4:	a8 84 20 00 	l.ori r4,r4,0x2000
 60042a8:	d4 0e 20 00 	l.sw 0x0(r14),r4
 60042ac:	84 83 00 00 	l.lwz r4,0x0(r3)
 60042b0:	e0 84 28 03 	l.and r4,r4,r5
 60042b4:	18 a0 00 01 	l.movhi r5,0x1
 60042b8:	e0 84 28 04 	l.or r4,r4,r5
 60042bc:	d4 03 20 00 	l.sw 0x0(r3),r4
 60042c0:	07 ff fb 35 	l.jal 6002f94 <WaitXus>
 60042c4:	9c 60 03 e8 	l.addi r3,r0,0x3e8
 60042c8:	84 6e 00 00 	l.lwz r3,0x0(r14)
 60042cc:	18 80 00 01 	l.movhi r4,0x1
 60042d0:	9c a0 df ff 	l.addi r5,r0,0xffffdfff
 60042d4:	e0 63 20 04 	l.or r3,r3,r4
 60042d8:	18 80 7f ff 	l.movhi r4,0x7fff
 60042dc:	d4 0e 18 00 	l.sw 0x0(r14),r3
 60042e0:	a8 84 ff ff 	l.ori r4,r4,0xffff
 60042e4:	84 6e 00 00 	l.lwz r3,0x0(r14)
 60042e8:	e0 63 28 03 	l.and r3,r3,r5
 60042ec:	d4 0e 18 00 	l.sw 0x0(r14),r3
 60042f0:	84 62 00 00 	l.lwz r3,0x0(r2)
 60042f4:	e0 63 20 03 	l.and r3,r3,r4
 60042f8:	d4 02 18 00 	l.sw 0x0(r2),r3
 60042fc:	9c 21 00 0c 	l.addi r1,r1,0xc
 6004300:	85 21 ff fc 	l.lwz r9,0xfffffffc(r1)
 6004304:	84 41 ff f4 	l.lwz r2,0xfffffff4(r1)
 6004308:	03 ff ff 92 	l.j 6004150 <WdtSysSetStop>
 600430c:	85 c1 ff f8 	l.lwz r14,0xfffffff8(r1)

06004310 <Boot_Main_Clk_Init>:
 6004310:	18 60 f9 50 	l.movhi r3,0xf950
 6004314:	d7 e1 17 fc 	l.sw 0xfffffffc(r1),r2
 6004318:	a8 63 00 1c 	l.ori r3,r3,0x1c
 600431c:	18 40 bf ff 	l.movhi r2,0xbfff
 6004320:	84 83 00 00 	l.lwz r4,0x0(r3)
 6004324:	a8 42 ff ff 	l.ori r2,r2,0xffff
 6004328:	9c 21 ff fc 	l.addi r1,r1,0xfffffffc
 600432c:	e0 84 10 03 	l.and r4,r4,r2
 6004330:	9c 40 ff 7f 	l.addi r2,r0,0xffffff7f
 6004334:	d4 03 20 00 	l.sw 0x0(r3),r4
 6004338:	84 83 00 00 	l.lwz r4,0x0(r3)
 600433c:	e0 84 10 03 	l.and r4,r4,r2
 6004340:	9c 40 ff 9f 	l.addi r2,r0,0xffffff9f
 6004344:	d4 03 20 00 	l.sw 0x0(r3),r4
 6004348:	84 83 00 00 	l.lwz r4,0x0(r3)
 600434c:	e0 84 10 03 	l.and r4,r4,r2
 6004350:	9c 40 f1 ff 	l.addi r2,r0,0xfffff1ff
 6004354:	a8 84 00 20 	l.ori r4,r4,0x20
 6004358:	d4 03 20 00 	l.sw 0x0(r3),r4
 600435c:	84 83 00 00 	l.lwz r4,0x0(r3)
 6004360:	e0 84 10 03 	l.and r4,r4,r2
 6004364:	18 40 40 00 	l.movhi r2,0x4000
 6004368:	a8 84 0a 00 	l.ori r4,r4,0xa00
 600436c:	d4 03 20 00 	l.sw 0x0(r3),r4
 6004370:	84 83 00 00 	l.lwz r4,0x0(r3)
 6004374:	e0 84 10 04 	l.or r4,r4,r2
 6004378:	d4 03 20 00 	l.sw 0x0(r3),r4
 600437c:	9c 21 00 04 	l.addi r1,r1,0x4
 6004380:	44 00 48 00 	l.jr r9
 6004384:	84 41 ff fc 	l.lwz r2,0xfffffffc(r1)

06004388 <hexDump>:
 6004388:	d7 e1 17 dc 	l.sw 0xffffffdc(r1),r2
 600438c:	d7 e1 97 e8 	l.sw 0xffffffe8(r1),r18
 6004390:	d7 e1 d7 f8 	l.sw 0xfffffff8(r1),r26
 6004394:	d7 e1 4f fc 	l.sw 0xfffffffc(r1),r9
 6004398:	d7 e1 77 e0 	l.sw 0xffffffe0(r1),r14
 600439c:	d7 e1 87 e4 	l.sw 0xffffffe4(r1),r16
 60043a0:	d7 e1 a7 ec 	l.sw 0xffffffec(r1),r20
 60043a4:	d7 e1 b7 f0 	l.sw 0xfffffff0(r1),r22
 60043a8:	d7 e1 c7 f4 	l.sw 0xfffffff4(r1),r24
 60043ac:	9c 21 ff 74 	l.addi r1,r1,0xffffff74
 60043b0:	a8 43 00 00 	l.ori r2,r3,0x0
 60043b4:	aa 44 00 00 	l.ori r18,r4,0x0
 60043b8:	ab 45 00 00 	l.ori r26,r5,0x0
 60043bc:	9c 61 00 04 	l.addi r3,r1,0x4
 60043c0:	9c 80 00 00 	l.addi r4,r0,0x0
 60043c4:	04 00 01 8c 	l.jal 60049f4 <memset>
 60043c8:	9c a0 00 50 	l.addi r5,r0,0x50
 60043cc:	bc 02 00 00 	l.sfeqi r2,0x0
 60043d0:	10 00 00 06 	l.bf 60043e8 <hexDump+0x60>
 60043d4:	15 00 00 00 	l.nop 0x0
 60043d8:	18 60 06 00 	l.movhi r3,0x600
 60043dc:	d4 01 10 00 	l.sw 0x0(r1),r2
 60043e0:	07 ff f8 3c 	l.jal 60024d0 <_ecm_jprintf>
 60043e4:	a8 63 14 2e 	l.ori r3,r3,0x142e
 60043e8:	9c 40 00 00 	l.addi r2,r0,0x0
 60043ec:	9e 01 00 04 	l.addi r16,r1,0x4
 60043f0:	a9 c2 00 00 	l.ori r14,r2,0x0
 60043f4:	9e 81 00 54 	l.addi r20,r1,0x54
 60043f8:	00 00 00 4a 	l.j 6004520 <hexDump+0x198>
 60043fc:	9f 01 00 55 	l.addi r24,r1,0x55
 6004400:	bc 36 00 00 	l.sfnei r22,0x0
 6004404:	10 00 00 18 	l.bf 6004464 <hexDump+0xdc>
 6004408:	bc 0e 00 00 	l.sfeqi r14,0x0
 600440c:	10 00 00 11 	l.bf 6004450 <hexDump+0xc8>
 6004410:	18 80 06 00 	l.movhi r4,0x600
 6004414:	e0 70 10 00 	l.add r3,r16,r2
 6004418:	9c 80 00 20 	l.addi r4,r0,0x20
 600441c:	9c 42 00 02 	l.addi r2,r2,0x2
 6004420:	d8 03 20 00 	l.sb 0x0(r3),r4
 6004424:	d8 03 20 01 	l.sb 0x1(r3),r4
 6004428:	9c a0 00 10 	l.addi r5,r0,0x10
 600442c:	e0 70 10 00 	l.add r3,r16,r2
 6004430:	a8 94 00 00 	l.ori r4,r20,0x0
 6004434:	04 00 01 fe 	l.jal 6004c2c <strncpy>
 6004438:	a8 56 00 00 	l.ori r2,r22,0x0
 600443c:	18 60 06 00 	l.movhi r3,0x600
 6004440:	d4 01 80 00 	l.sw 0x0(r1),r16
 6004444:	07 ff f8 23 	l.jal 60024d0 <_ecm_jprintf>
 6004448:	a8 63 14 34 	l.ori r3,r3,0x1434
 600444c:	18 80 06 00 	l.movhi r4,0x600
 6004450:	e0 70 10 00 	l.add r3,r16,r2
 6004454:	a8 84 14 39 	l.ori r4,r4,0x1439
 6004458:	9c 42 00 07 	l.addi r2,r2,0x7
 600445c:	07 ff f7 be 	l.jal 6002354 <sprintf>
 6004460:	d4 01 70 00 	l.sw 0x0(r1),r14
 6004464:	8c 72 00 00 	l.lbz r3,0x0(r18)
 6004468:	18 80 06 00 	l.movhi r4,0x600
 600446c:	d4 01 18 00 	l.sw 0x0(r1),r3
 6004470:	a8 84 14 41 	l.ori r4,r4,0x1441
 6004474:	e0 70 10 00 	l.add r3,r16,r2
 6004478:	07 ff f7 b7 	l.jal 6002354 <sprintf>
 600447c:	9c 42 00 03 	l.addi r2,r2,0x3
 6004480:	8c 92 00 00 	l.lbz r4,0x0(r18)
 6004484:	18 a0 80 00 	l.movhi r5,0x8000
 6004488:	9c 64 ff e0 	l.addi r3,r4,0xffffffe0
 600448c:	a8 a5 00 0f 	l.ori r5,r5,0xf
 6004490:	a4 63 00 ff 	l.andi r3,r3,0xff
 6004494:	bc a3 00 5e 	l.sfleui r3,0x5e
 6004498:	10 00 00 0c 	l.bf 60044c8 <hexDump+0x140>
 600449c:	e0 6e 28 03 	l.and r3,r14,r5
 60044a0:	bd 63 00 00 	l.sfgesi r3,0x0
 60044a4:	10 00 00 05 	l.bf 60044b8 <hexDump+0x130>
 60044a8:	9c 80 ff f0 	l.addi r4,r0,0xfffffff0
 60044ac:	9c 63 ff ff 	l.addi r3,r3,0xffffffff
 60044b0:	e0 63 20 04 	l.or r3,r3,r4
 60044b4:	9c 63 00 01 	l.addi r3,r3,0x1
 60044b8:	e0 74 18 00 	l.add r3,r20,r3
 60044bc:	9c a0 00 2e 	l.addi r5,r0,0x2e
 60044c0:	00 00 00 0a 	l.j 60044e8 <hexDump+0x160>
 60044c4:	d8 03 28 00 	l.sb 0x0(r3),r5
 60044c8:	bd 63 00 00 	l.sfgesi r3,0x0
 60044cc:	10 00 00 05 	l.bf 60044e0 <hexDump+0x158>
 60044d0:	9c a0 ff f0 	l.addi r5,r0,0xfffffff0
 60044d4:	9c 63 ff ff 	l.addi r3,r3,0xffffffff
 60044d8:	e0 63 28 04 	l.or r3,r3,r5
 60044dc:	9c 63 00 01 	l.addi r3,r3,0x1
 60044e0:	e0 74 18 00 	l.add r3,r20,r3
 60044e4:	d8 03 20 00 	l.sb 0x0(r3),r4
 60044e8:	18 80 80 00 	l.movhi r4,0x8000
 60044ec:	a8 84 00 0f 	l.ori r4,r4,0xf
 60044f0:	e0 6e 20 03 	l.and r3,r14,r4
 60044f4:	bd 63 00 00 	l.sfgesi r3,0x0
 60044f8:	10 00 00 05 	l.bf 600450c <hexDump+0x184>
 60044fc:	9c a0 ff f0 	l.addi r5,r0,0xfffffff0
 6004500:	9c 63 ff ff 	l.addi r3,r3,0xffffffff
 6004504:	e0 63 28 04 	l.or r3,r3,r5
 6004508:	9c 63 00 01 	l.addi r3,r3,0x1
 600450c:	e0 78 18 00 	l.add r3,r24,r3
 6004510:	9c 80 00 00 	l.addi r4,r0,0x0
 6004514:	9d ce 00 01 	l.addi r14,r14,0x1
 6004518:	d8 03 20 00 	l.sb 0x0(r3),r4
 600451c:	9e 52 00 01 	l.addi r18,r18,0x1
 6004520:	e5 8e d0 00 	l.sflts r14,r26
 6004524:	13 ff ff b7 	l.bf 6004400 <hexDump+0x78>
 6004528:	a6 ce 00 0f 	l.andi r22,r14,0xf
 600452c:	9c 61 00 04 	l.addi r3,r1,0x4
 6004530:	00 00 00 08 	l.j 6004550 <hexDump+0x1c8>
 6004534:	e0 63 10 00 	l.add r3,r3,r2
 6004538:	9c 42 00 03 	l.addi r2,r2,0x3
 600453c:	d8 03 28 00 	l.sb 0x0(r3),r5
 6004540:	d8 03 28 01 	l.sb 0x1(r3),r5
 6004544:	d8 03 28 02 	l.sb 0x2(r3),r5
 6004548:	9d ce 00 01 	l.addi r14,r14,0x1
 600454c:	9c 63 00 03 	l.addi r3,r3,0x3
 6004550:	a4 8e 00 0f 	l.andi r4,r14,0xf
 6004554:	bc 24 00 00 	l.sfnei r4,0x0
 6004558:	13 ff ff f8 	l.bf 6004538 <hexDump+0x1b0>
 600455c:	9c a0 00 20 	l.addi r5,r0,0x20
 6004560:	9d c1 00 04 	l.addi r14,r1,0x4
 6004564:	9c 80 00 20 	l.addi r4,r0,0x20
 6004568:	e0 6e 10 00 	l.add r3,r14,r2
 600456c:	9c 42 00 02 	l.addi r2,r2,0x2
 6004570:	d8 03 20 00 	l.sb 0x0(r3),r4
 6004574:	d8 03 20 01 	l.sb 0x1(r3),r4
 6004578:	9c a0 00 10 	l.addi r5,r0,0x10
 600457c:	e0 6e 10 00 	l.add r3,r14,r2
 6004580:	04 00 01 ab 	l.jal 6004c2c <strncpy>
 6004584:	9c 81 00 54 	l.addi r4,r1,0x54
 6004588:	18 60 06 00 	l.movhi r3,0x600
 600458c:	d4 01 70 00 	l.sw 0x0(r1),r14
 6004590:	07 ff f7 d0 	l.jal 60024d0 <_ecm_jprintf>
 6004594:	a8 63 14 34 	l.ori r3,r3,0x1434
 6004598:	9c 21 00 8c 	l.addi r1,r1,0x8c
 600459c:	85 21 ff fc 	l.lwz r9,0xfffffffc(r1)
 60045a0:	84 41 ff dc 	l.lwz r2,0xffffffdc(r1)
 60045a4:	85 c1 ff e0 	l.lwz r14,0xffffffe0(r1)
 60045a8:	86 01 ff e4 	l.lwz r16,0xffffffe4(r1)
 60045ac:	86 41 ff e8 	l.lwz r18,0xffffffe8(r1)
 60045b0:	86 81 ff ec 	l.lwz r20,0xffffffec(r1)
 60045b4:	86 c1 ff f0 	l.lwz r22,0xfffffff0(r1)
 60045b8:	87 01 ff f4 	l.lwz r24,0xfffffff4(r1)
 60045bc:	44 00 48 00 	l.jr r9
 60045c0:	87 41 ff f8 	l.lwz r26,0xfffffff8(r1)

060045c4 <main>:
 60045c4:	d7 e1 4f fc 	l.sw 0xfffffffc(r1),r9
 60045c8:	d7 e1 17 e8 	l.sw 0xffffffe8(r1),r2
 60045cc:	d7 e1 87 f0 	l.sw 0xfffffff0(r1),r16
 60045d0:	d7 e1 77 ec 	l.sw 0xffffffec(r1),r14
 60045d4:	d7 e1 97 f4 	l.sw 0xfffffff4(r1),r18
 60045d8:	d7 e1 a7 f8 	l.sw 0xfffffff8(r1),r20
 60045dc:	9c 21 ff dc 	l.addi r1,r1,0xffffffdc
 60045e0:	07 ff fa 54 	l.jal 6002f30 <CpuIdGet>
 60045e4:	18 40 f0 01 	l.movhi r2,0xf001
 60045e8:	9c 60 77 00 	l.addi r3,r0,0x7700
 60045ec:	9c 80 00 04 	l.addi r4,r0,0x4
 60045f0:	07 ff f4 9b 	l.jal 600185c <mtspr>
 60045f4:	aa 0b 00 00 	l.ori r16,r11,0x0
 60045f8:	bc 30 00 00 	l.sfnei r16,0x0
 60045fc:	10 00 00 5e 	l.bf 6004774 <main+0x1b0>
 6004600:	a8 42 00 00 	l.ori r2,r2,0x0
 6004604:	07 ff ff 03 	l.jal 6004210 <Boot_PLL_Init>
 6004608:	15 00 00 00 	l.nop 0x0
 600460c:	07 ff ff 41 	l.jal 6004310 <Boot_Main_Clk_Init>
 6004610:	15 00 00 00 	l.nop 0x0
 6004614:	18 60 00 01 	l.movhi r3,0x1
 6004618:	07 ff fc 1b 	l.jal 6003684 <Uart0_Init>
 600461c:	a8 63 c2 00 	l.ori r3,r3,0xc200
 6004620:	18 60 00 02 	l.movhi r3,0x2
 6004624:	d4 02 18 14 	l.sw 0x14(r2),r3
 6004628:	18 60 08 92 	l.movhi r3,0x892
 600462c:	d4 02 18 18 	l.sw 0x18(r2),r3
 6004630:	d4 02 18 1c 	l.sw 0x1c(r2),r3
 6004634:	18 40 f9 50 	l.movhi r2,0xf950
 6004638:	a8 42 00 0c 	l.ori r2,r2,0xc
 600463c:	84 42 00 00 	l.lwz r2,0x0(r2)
 6004640:	a4 42 00 20 	l.andi r2,r2,0x20
 6004644:	bc 22 00 00 	l.sfnei r2,0x0
 6004648:	10 00 00 05 	l.bf 600465c <main+0x98>
 600464c:	9c 80 00 00 	l.addi r4,r0,0x0
 6004650:	07 ff fa 5e 	l.jal 6002fc8 <DdrInit>
 6004654:	15 00 00 00 	l.nop 0x0
 6004658:	9c 80 00 00 	l.addi r4,r0,0x0
 600465c:	18 a0 04 00 	l.movhi r5,0x400
 6004660:	18 60 08 00 	l.movhi r3,0x800
 6004664:	07 ff fb c6 	l.jal 600357c <DmaMemSet_ip>
 6004668:	9c 40 00 00 	l.addi r2,r0,0x0
 600466c:	18 60 06 00 	l.movhi r3,0x600
 6004670:	07 ff f7 ab 	l.jal 600251c <_ecm_printf>
 6004674:	a8 63 14 47 	l.ori r3,r3,0x1447
 6004678:	9c 60 00 06 	l.addi r3,r0,0x6
 600467c:	d4 01 10 00 	l.sw 0x0(r1),r2
 6004680:	d4 01 18 08 	l.sw 0x8(r1),r3
 6004684:	18 60 06 00 	l.movhi r3,0x600
 6004688:	9c 40 00 01 	l.addi r2,r0,0x1
 600468c:	a8 63 14 52 	l.ori r3,r3,0x1452
 6004690:	07 ff f7 a3 	l.jal 600251c <_ecm_printf>
 6004694:	d4 01 10 04 	l.sw 0x4(r1),r2
 6004698:	18 60 0b e8 	l.movhi r3,0xbe8
 600469c:	a8 63 b4 c0 	l.ori r3,r3,0xb4c0
 60046a0:	d4 01 18 00 	l.sw 0x0(r1),r3
 60046a4:	18 60 06 00 	l.movhi r3,0x600
 60046a8:	07 ff f7 9d 	l.jal 600251c <_ecm_printf>
 60046ac:	a8 63 14 6c 	l.ori r3,r3,0x146c
 60046b0:	07 ff fd b1 	l.jal 6003d74 <SflsInit>
 60046b4:	15 00 00 00 	l.nop 0x0
 60046b8:	a8 62 00 00 	l.ori r3,r2,0x0
 60046bc:	07 ff fe 5c 	l.jal 600402c <UserLoad>
 60046c0:	18 40 04 00 	l.movhi r2,0x400
 60046c4:	a8 42 7e e4 	l.ori r2,r2,0x7ee4
 60046c8:	18 80 55 55 	l.movhi r4,0x5555
 60046cc:	84 62 00 04 	l.lwz r3,0x4(r2)
 60046d0:	a8 84 aa aa 	l.ori r4,r4,0xaaaa
 60046d4:	e4 23 20 00 	l.sfne r3,r4
 60046d8:	10 00 00 0b 	l.bf 6004704 <main+0x140>
 60046dc:	18 60 06 00 	l.movhi r3,0x600
 60046e0:	84 62 00 00 	l.lwz r3,0x0(r2)
 60046e4:	bc 03 00 00 	l.sfeqi r3,0x0
 60046e8:	10 00 00 06 	l.bf 6004700 <main+0x13c>
 60046ec:	15 00 00 00 	l.nop 0x0
 60046f0:	84 42 00 00 	l.lwz r2,0x0(r2)
 60046f4:	bc 22 ff ff 	l.sfnei r2,0xffffffff
 60046f8:	10 00 00 24 	l.bf 6004788 <main+0x1c4>
 60046fc:	15 00 00 00 	l.nop 0x0
 6004700:	18 60 06 00 	l.movhi r3,0x600
 6004704:	18 40 04 00 	l.movhi r2,0x400
 6004708:	a8 63 14 7b 	l.ori r3,r3,0x147b
 600470c:	07 ff f7 84 	l.jal 600251c <_ecm_printf>
 6004710:	a8 42 7e e4 	l.ori r2,r2,0x7ee4
 6004714:	84 62 00 00 	l.lwz r3,0x0(r2)
 6004718:	d4 01 18 00 	l.sw 0x0(r1),r3
 600471c:	18 60 06 00 	l.movhi r3,0x600
 6004720:	07 ff f7 7f 	l.jal 600251c <_ecm_printf>
 6004724:	a8 63 14 8b 	l.ori r3,r3,0x148b
 6004728:	84 62 00 04 	l.lwz r3,0x4(r2)
 600472c:	d4 01 18 00 	l.sw 0x0(r1),r3
 6004730:	18 60 06 00 	l.movhi r3,0x600
 6004734:	07 ff f7 7a 	l.jal 600251c <_ecm_printf>
 6004738:	a8 63 14 a1 	l.ori r3,r3,0x14a1
 600473c:	18 60 06 00 	l.movhi r3,0x600
 6004740:	a8 82 00 00 	l.ori r4,r2,0x0
 6004744:	a8 63 14 b6 	l.ori r3,r3,0x14b6
 6004748:	07 ff ff 10 	l.jal 6004388 <hexDump>
 600474c:	9c a0 00 40 	l.addi r5,r0,0x40
 6004750:	18 60 55 55 	l.movhi r3,0x5555
 6004754:	a8 63 aa aa 	l.ori r3,r3,0xaaaa
 6004758:	d4 02 18 04 	l.sw 0x4(r2),r3
 600475c:	18 60 00 01 	l.movhi r3,0x1
 6004760:	d4 02 18 00 	l.sw 0x0(r2),r3
 6004764:	07 ff fe 09 	l.jal 6003f88 <UserSave>
 6004768:	9c 60 00 01 	l.addi r3,r0,0x1
 600476c:	00 00 00 08 	l.j 600478c <main+0x1c8>
 6004770:	18 40 04 00 	l.movhi r2,0x400
 6004774:	18 60 08 94 	l.movhi r3,0x894
 6004778:	d4 02 18 20 	l.sw 0x20(r2),r3
 600477c:	d4 02 18 24 	l.sw 0x24(r2),r3
 6004780:	07 ff fe 2b 	l.jal 600402c <UserLoad>
 6004784:	9c 60 00 01 	l.addi r3,r0,0x1
 6004788:	18 40 04 00 	l.movhi r2,0x400
 600478c:	18 c0 00 01 	l.movhi r6,0x1
 6004790:	a8 42 7e e4 	l.ori r2,r2,0x7ee4
 6004794:	84 62 00 00 	l.lwz r3,0x0(r2)
 6004798:	e4 23 30 00 	l.sfne r3,r6
 600479c:	10 00 00 05 	l.bf 60047b0 <main+0x1ec>
 60047a0:	15 00 00 00 	l.nop 0x0
 60047a4:	9c 90 00 01 	l.addi r4,r16,0x1
 60047a8:	00 00 00 06 	l.j 60047c0 <main+0x1fc>
 60047ac:	18 40 06 00 	l.movhi r2,0x600
 60047b0:	84 42 00 00 	l.lwz r2,0x0(r2)
 60047b4:	19 00 06 00 	l.movhi r8,0x600
 60047b8:	a8 90 00 00 	l.ori r4,r16,0x0
 60047bc:	e0 42 40 00 	l.add r2,r2,r8
 60047c0:	00 00 00 06 	l.j 60047d8 <main+0x214>
 60047c4:	9c 60 00 00 	l.addi r3,r0,0x0
 60047c8:	84 a2 00 00 	l.lwz r5,0x0(r2)
 60047cc:	9c 63 00 01 	l.addi r3,r3,0x1
 60047d0:	e0 a5 30 03 	l.and r5,r5,r6
 60047d4:	e0 42 28 00 	l.add r2,r2,r5
 60047d8:	e5 83 20 00 	l.sflts r3,r4
 60047dc:	13 ff ff fb 	l.bf 60047c8 <main+0x204>
 60047e0:	9c c0 ff fc 	l.addi r6,r0,0xfffffffc
 60047e4:	18 60 06 00 	l.movhi r3,0x600
 60047e8:	d4 01 80 00 	l.sw 0x0(r1),r16
 60047ec:	a8 63 14 c4 	l.ori r3,r3,0x14c4
 60047f0:	07 ff f7 4b 	l.jal 600251c <_ecm_printf>
 60047f4:	d4 01 10 04 	l.sw 0x4(r1),r2
 60047f8:	18 60 04 00 	l.movhi r3,0x400
 60047fc:	19 00 ff ff 	l.movhi r8,0xffff
 6004800:	a8 63 7e e4 	l.ori r3,r3,0x7ee4
 6004804:	9d c2 00 38 	l.addi r14,r2,0x38
 6004808:	86 83 00 00 	l.lwz r20,0x0(r3)
 600480c:	9e 40 00 07 	l.addi r18,r0,0x7
 6004810:	e2 94 40 00 	l.add r20,r20,r8
 6004814:	84 6e 00 00 	l.lwz r3,0x0(r14)
 6004818:	84 ae 00 04 	l.lwz r5,0x4(r14)
 600481c:	e0 a5 18 02 	l.sub r5,r5,r3
 6004820:	e0 c0 28 02 	l.sub r6,r0,r5
 6004824:	e0 c6 28 04 	l.or r6,r6,r5
 6004828:	bd 66 00 00 	l.sfgesi r6,0x0
 600482c:	10 00 00 10 	l.bf 600486c <main+0x2a8>
 6004830:	84 8e ff d0 	l.lwz r4,0xffffffd0(r14)
 6004834:	18 c0 fa 00 	l.movhi r6,0xfa00
 6004838:	19 00 00 ff 	l.movhi r8,0xff
 600483c:	e0 e3 30 00 	l.add r7,r3,r6
 6004840:	a9 08 ff ff 	l.ori r8,r8,0xffff
 6004844:	e4 47 40 00 	l.sfgtu r7,r8
 6004848:	10 00 00 03 	l.bf 6004854 <main+0x290>
 600484c:	9c c0 00 01 	l.addi r6,r0,0x1
 6004850:	9c c0 00 00 	l.addi r6,r0,0x0
 6004854:	a4 c6 00 ff 	l.andi r6,r6,0xff
 6004858:	bc 06 00 00 	l.sfeqi r6,0x0
 600485c:	10 00 00 04 	l.bf 600486c <main+0x2a8>
 6004860:	15 00 00 00 	l.nop 0x0
 6004864:	07 ff fb 0d 	l.jal 6003498 <DmaMemCpy_ip>
 6004868:	e0 94 20 00 	l.add r4,r20,r4
 600486c:	9e 52 00 01 	l.addi r18,r18,0x1
 6004870:	bc 32 00 0d 	l.sfnei r18,0xd
 6004874:	13 ff ff e8 	l.bf 6004814 <main+0x250>
 6004878:	9d ce 00 08 	l.addi r14,r14,0x8
 600487c:	07 ff f3 6e 	l.jal 6001634 <set_code_hwp>
 6004880:	a8 62 00 00 	l.ori r3,r2,0x0
 6004884:	bc 30 00 00 	l.sfnei r16,0x0
 6004888:	10 00 00 0b 	l.bf 60048b4 <main+0x2f0>
 600488c:	18 c0 20 00 	l.movhi r6,0x2000
 6004890:	18 60 f9 50 	l.movhi r3,0xf950
 6004894:	a8 83 00 1c 	l.ori r4,r3,0x1c
 6004898:	a8 63 00 0c 	l.ori r3,r3,0xc
 600489c:	84 a4 00 00 	l.lwz r5,0x0(r4)
 60048a0:	e0 a5 30 04 	l.or r5,r5,r6
 60048a4:	d4 04 28 00 	l.sw 0x0(r4),r5
 60048a8:	84 83 00 00 	l.lwz r4,0x0(r3)
 60048ac:	a8 84 00 02 	l.ori r4,r4,0x2
 60048b0:	d4 03 20 00 	l.sw 0x0(r3),r4
 60048b4:	84 62 00 38 	l.lwz r3,0x38(r2)
 60048b8:	07 ff f5 87 	l.jal 6001ed4 <call>
 60048bc:	9c 63 01 00 	l.addi r3,r3,0x100
 60048c0:	9c 21 00 24 	l.addi r1,r1,0x24
 60048c4:	9d 60 00 00 	l.addi r11,r0,0x0
 60048c8:	85 21 ff fc 	l.lwz r9,0xfffffffc(r1)
 60048cc:	84 41 ff e8 	l.lwz r2,0xffffffe8(r1)
 60048d0:	85 c1 ff ec 	l.lwz r14,0xffffffec(r1)
 60048d4:	86 01 ff f0 	l.lwz r16,0xfffffff0(r1)
 60048d8:	86 41 ff f4 	l.lwz r18,0xfffffff4(r1)
 60048dc:	44 00 48 00 	l.jr r9
 60048e0:	86 81 ff f8 	l.lwz r20,0xfffffff8(r1)

060048e4 <memcpy>:
 60048e4:	a9 03 00 00 	l.ori r8,r3,0x0
 60048e8:	a9 84 00 00 	l.ori r12,r4,0x0
 60048ec:	bc a5 00 0f 	l.sfleui r5,0xf
 60048f0:	10 00 00 07 	l.bf 600490c <memcpy+0x28>
 60048f4:	a8 e5 00 00 	l.ori r7,r5,0x0
 60048f8:	e0 c4 18 04 	l.or r6,r4,r3
 60048fc:	a4 c6 00 03 	l.andi r6,r6,0x3
 6004900:	bc 26 00 00 	l.sfnei r6,0x0
 6004904:	0c 00 00 0f 	l.bnf 6004940 <memcpy+0x5c>
 6004908:	a8 c4 00 00 	l.ori r6,r4,0x0
 600490c:	bc 07 00 00 	l.sfeqi r7,0x0
 6004910:	10 00 00 0a 	l.bf 6004938 <memcpy+0x54>
 6004914:	15 00 00 00 	l.nop 0x0
 6004918:	9c 80 00 00 	l.addi r4,r0,0x0
 600491c:	e0 cc 20 00 	l.add r6,r12,r4
 6004920:	e0 a8 20 00 	l.add r5,r8,r4
 6004924:	8c c6 00 00 	l.lbz r6,0x0(r6)
 6004928:	9c 84 00 01 	l.addi r4,r4,0x1
 600492c:	e4 24 38 00 	l.sfne r4,r7
 6004930:	13 ff ff fb 	l.bf 600491c <memcpy+0x38>
 6004934:	d8 05 30 00 	l.sb 0x0(r5),r6
 6004938:	44 00 48 00 	l.jr r9
 600493c:	a9 63 00 00 	l.ori r11,r3,0x0
 6004940:	a9 05 00 00 	l.ori r8,r5,0x0
 6004944:	a8 e3 00 00 	l.ori r7,r3,0x0
 6004948:	85 66 00 00 	l.lwz r11,0x0(r6)
 600494c:	9d 08 ff f0 	l.addi r8,r8,0xfffffff0
 6004950:	d4 07 58 00 	l.sw 0x0(r7),r11
 6004954:	bc 48 00 0f 	l.sfgtui r8,0xf
 6004958:	85 66 00 04 	l.lwz r11,0x4(r6)
 600495c:	d4 07 58 04 	l.sw 0x4(r7),r11
 6004960:	85 66 00 08 	l.lwz r11,0x8(r6)
 6004964:	d4 07 58 08 	l.sw 0x8(r7),r11
 6004968:	85 66 00 0c 	l.lwz r11,0xc(r6)
 600496c:	9c c6 00 10 	l.addi r6,r6,0x10
 6004970:	d4 07 58 0c 	l.sw 0xc(r7),r11
 6004974:	13 ff ff f5 	l.bf 6004948 <memcpy+0x64>
 6004978:	9c e7 00 10 	l.addi r7,r7,0x10
 600497c:	9c a5 ff f0 	l.addi r5,r5,0xfffffff0
 6004980:	b8 c5 00 44 	l.srli r6,r5,0x4
 6004984:	9d 86 00 01 	l.addi r12,r6,0x1
 6004988:	b8 c6 00 04 	l.slli r6,r6,0x4
 600498c:	b9 8c 00 04 	l.slli r12,r12,0x4
 6004990:	e0 a5 30 02 	l.sub r5,r5,r6
 6004994:	e1 03 60 00 	l.add r8,r3,r12
 6004998:	a8 e5 00 00 	l.ori r7,r5,0x0
 600499c:	bc a5 00 03 	l.sfleui r5,0x3
 60049a0:	13 ff ff db 	l.bf 600490c <memcpy+0x28>
 60049a4:	e1 84 60 00 	l.add r12,r4,r12
 60049a8:	9c 80 00 00 	l.addi r4,r0,0x0
 60049ac:	e0 cc 20 00 	l.add r6,r12,r4
 60049b0:	e0 e8 20 00 	l.add r7,r8,r4
 60049b4:	84 c6 00 00 	l.lwz r6,0x0(r6)
 60049b8:	9c 84 00 04 	l.addi r4,r4,0x4
 60049bc:	d4 07 30 00 	l.sw 0x0(r7),r6
 60049c0:	e0 c5 20 02 	l.sub r6,r5,r4
 60049c4:	bc 46 00 03 	l.sfgtui r6,0x3
 60049c8:	13 ff ff fa 	l.bf 60049b0 <memcpy+0xcc>
 60049cc:	e0 cc 20 00 	l.add r6,r12,r4
 60049d0:	9c a5 ff fc 	l.addi r5,r5,0xfffffffc
 60049d4:	b8 e5 00 42 	l.srli r7,r5,0x2
 60049d8:	9c 87 00 01 	l.addi r4,r7,0x1
 60049dc:	b8 e7 00 02 	l.slli r7,r7,0x2
 60049e0:	b8 84 00 02 	l.slli r4,r4,0x2
 60049e4:	e0 e5 38 02 	l.sub r7,r5,r7
 60049e8:	e1 08 20 00 	l.add r8,r8,r4
 60049ec:	03 ff ff c8 	l.j 600490c <memcpy+0x28>
 60049f0:	e1 8c 20 00 	l.add r12,r12,r4

060049f4 <memset>:
 60049f4:	d7 e1 17 fc 	l.sw 0xfffffffc(r1),r2
 60049f8:	a4 e3 00 03 	l.andi r7,r3,0x3
 60049fc:	9c 21 ff fc 	l.addi r1,r1,0xfffffffc
 6004a00:	bc 07 00 00 	l.sfeqi r7,0x0
 6004a04:	10 00 00 11 	l.bf 6004a48 <memset+0x54>
 6004a08:	a8 c3 00 00 	l.ori r6,r3,0x0
 6004a0c:	bc 05 00 00 	l.sfeqi r5,0x0
 6004a10:	10 00 00 45 	l.bf 6004b24 <memset+0x130>
 6004a14:	15 00 00 00 	l.nop 0x0
 6004a18:	b9 04 00 18 	l.slli r8,r4,0x18
 6004a1c:	9c a5 ff ff 	l.addi r5,r5,0xffffffff
 6004a20:	00 00 00 04 	l.j 6004a30 <memset+0x3c>
 6004a24:	b9 08 00 98 	l.srai r8,r8,0x18
 6004a28:	10 00 00 3f 	l.bf 6004b24 <memset+0x130>
 6004a2c:	9c a5 ff ff 	l.addi r5,r5,0xffffffff
 6004a30:	d8 06 40 00 	l.sb 0x0(r6),r8
 6004a34:	9c c6 00 01 	l.addi r6,r6,0x1
 6004a38:	a4 e6 00 03 	l.andi r7,r6,0x3
 6004a3c:	bc 27 00 00 	l.sfnei r7,0x0
 6004a40:	13 ff ff fa 	l.bf 6004a28 <memset+0x34>
 6004a44:	bc 05 00 00 	l.sfeqi r5,0x0
 6004a48:	bc a5 00 03 	l.sfleui r5,0x3
 6004a4c:	10 00 00 2c 	l.bf 6004afc <memset+0x108>
 6004a50:	bc 05 00 00 	l.sfeqi r5,0x0
 6004a54:	a5 04 00 ff 	l.andi r8,r4,0xff
 6004a58:	a8 e6 00 00 	l.ori r7,r6,0x0
 6004a5c:	b9 68 00 08 	l.slli r11,r8,0x8
 6004a60:	bc 45 00 0f 	l.sfgtui r5,0xf
 6004a64:	e1 0b 40 04 	l.or r8,r11,r8
 6004a68:	b9 68 00 10 	l.slli r11,r8,0x10
 6004a6c:	0c 00 00 14 	l.bnf 6004abc <memset+0xc8>
 6004a70:	e1 0b 40 04 	l.or r8,r11,r8
 6004a74:	a8 e6 00 00 	l.ori r7,r6,0x0
 6004a78:	a9 85 00 00 	l.ori r12,r5,0x0
 6004a7c:	d4 07 40 00 	l.sw 0x0(r7),r8
 6004a80:	d4 07 40 04 	l.sw 0x4(r7),r8
 6004a84:	d4 07 40 08 	l.sw 0x8(r7),r8
 6004a88:	d4 07 40 0c 	l.sw 0xc(r7),r8
 6004a8c:	9d 8c ff f0 	l.addi r12,r12,0xfffffff0
 6004a90:	bc 4c 00 0f 	l.sfgtui r12,0xf
 6004a94:	13 ff ff fa 	l.bf 6004a7c <memset+0x88>
 6004a98:	9c e7 00 10 	l.addi r7,r7,0x10
 6004a9c:	9c a5 ff f0 	l.addi r5,r5,0xfffffff0
 6004aa0:	9c 40 ff f0 	l.addi r2,r0,0xfffffff0
 6004aa4:	e0 e5 10 03 	l.and r7,r5,r2
 6004aa8:	a4 a5 00 0f 	l.andi r5,r5,0xf
 6004aac:	9c e7 00 10 	l.addi r7,r7,0x10
 6004ab0:	bc 45 00 03 	l.sfgtui r5,0x3
 6004ab4:	0c 00 00 10 	l.bnf 6004af4 <memset+0x100>
 6004ab8:	e0 e6 38 00 	l.add r7,r6,r7
 6004abc:	9c c0 00 00 	l.addi r6,r0,0x0
 6004ac0:	e1 67 30 00 	l.add r11,r7,r6
 6004ac4:	9c c6 00 04 	l.addi r6,r6,0x4
 6004ac8:	d4 0b 40 00 	l.sw 0x0(r11),r8
 6004acc:	e1 65 30 02 	l.sub r11,r5,r6
 6004ad0:	bc 4b 00 03 	l.sfgtui r11,0x3
 6004ad4:	13 ff ff fc 	l.bf 6004ac4 <memset+0xd0>
 6004ad8:	e1 67 30 00 	l.add r11,r7,r6
 6004adc:	9c a5 ff fc 	l.addi r5,r5,0xfffffffc
 6004ae0:	9c 40 ff fc 	l.addi r2,r0,0xfffffffc
 6004ae4:	e0 c5 10 03 	l.and r6,r5,r2
 6004ae8:	a4 a5 00 03 	l.andi r5,r5,0x3
 6004aec:	9c c6 00 04 	l.addi r6,r6,0x4
 6004af0:	e0 e7 30 00 	l.add r7,r7,r6
 6004af4:	a8 c7 00 00 	l.ori r6,r7,0x0
 6004af8:	bc 05 00 00 	l.sfeqi r5,0x0
 6004afc:	10 00 00 0a 	l.bf 6004b24 <memset+0x130>
 6004b00:	15 00 00 00 	l.nop 0x0
 6004b04:	b8 84 00 18 	l.slli r4,r4,0x18
 6004b08:	9c e0 00 00 	l.addi r7,r0,0x0
 6004b0c:	b9 04 00 98 	l.srai r8,r4,0x18
 6004b10:	e0 86 38 00 	l.add r4,r6,r7
 6004b14:	9c e7 00 01 	l.addi r7,r7,0x1
 6004b18:	e4 25 38 00 	l.sfne r5,r7
 6004b1c:	13 ff ff fd 	l.bf 6004b10 <memset+0x11c>
 6004b20:	d8 04 40 00 	l.sb 0x0(r4),r8
 6004b24:	9c 21 00 04 	l.addi r1,r1,0x4
 6004b28:	a9 63 00 00 	l.ori r11,r3,0x0
 6004b2c:	44 00 48 00 	l.jr r9
 6004b30:	84 41 ff fc 	l.lwz r2,0xfffffffc(r1)

06004b34 <strlen>:
 6004b34:	d7 e1 17 fc 	l.sw 0xfffffffc(r1),r2
 6004b38:	a4 83 00 03 	l.andi r4,r3,0x3
 6004b3c:	bc 04 00 00 	l.sfeqi r4,0x0
 6004b40:	10 00 00 39 	l.bf 6004c24 <strlen+0xf0>
 6004b44:	9c 21 ff fc 	l.addi r1,r1,0xfffffffc
 6004b48:	91 63 00 00 	l.lbs r11,0x0(r3)
 6004b4c:	bc 0b 00 00 	l.sfeqi r11,0x0
 6004b50:	10 00 00 32 	l.bf 6004c18 <strlen+0xe4>
 6004b54:	15 00 00 00 	l.nop 0x0
 6004b58:	00 00 00 06 	l.j 6004b70 <strlen+0x3c>
 6004b5c:	a9 63 00 00 	l.ori r11,r3,0x0
 6004b60:	90 8b 00 00 	l.lbs r4,0x0(r11)
 6004b64:	bc 24 00 00 	l.sfnei r4,0x0
 6004b68:	0c 00 00 2b 	l.bnf 6004c14 <strlen+0xe0>
 6004b6c:	15 00 00 00 	l.nop 0x0
 6004b70:	9d 6b 00 01 	l.addi r11,r11,0x1
 6004b74:	a4 8b 00 03 	l.andi r4,r11,0x3
 6004b78:	bc 24 00 00 	l.sfnei r4,0x0
 6004b7c:	13 ff ff f9 	l.bf 6004b60 <strlen+0x2c>
 6004b80:	15 00 00 00 	l.nop 0x0
 6004b84:	18 40 fe fe 	l.movhi r2,0xfefe
 6004b88:	84 8b 00 00 	l.lwz r4,0x0(r11)
 6004b8c:	a8 42 fe ff 	l.ori r2,r2,0xfeff
 6004b90:	e0 a4 10 00 	l.add r5,r4,r2
 6004b94:	ac 84 ff ff 	l.xori r4,r4,0xffffffff
 6004b98:	18 40 80 80 	l.movhi r2,0x8080
 6004b9c:	e0 85 20 03 	l.and r4,r5,r4
 6004ba0:	a8 42 80 80 	l.ori r2,r2,0x8080
 6004ba4:	e0 84 10 03 	l.and r4,r4,r2
 6004ba8:	bc 24 00 00 	l.sfnei r4,0x0
 6004bac:	10 00 00 10 	l.bf 6004bec <strlen+0xb8>
 6004bb0:	15 00 00 00 	l.nop 0x0
 6004bb4:	9d 6b 00 04 	l.addi r11,r11,0x4
 6004bb8:	18 40 fe fe 	l.movhi r2,0xfefe
 6004bbc:	84 8b 00 00 	l.lwz r4,0x0(r11)
 6004bc0:	a8 42 fe ff 	l.ori r2,r2,0xfeff
 6004bc4:	e0 a4 10 00 	l.add r5,r4,r2
 6004bc8:	ac 84 ff ff 	l.xori r4,r4,0xffffffff
 6004bcc:	18 40 80 80 	l.movhi r2,0x8080
 6004bd0:	e0 85 20 03 	l.and r4,r5,r4
 6004bd4:	a8 42 80 80 	l.ori r2,r2,0x8080
 6004bd8:	e0 84 10 03 	l.and r4,r4,r2
 6004bdc:	bc 04 00 00 	l.sfeqi r4,0x0
 6004be0:	13 ff ff f6 	l.bf 6004bb8 <strlen+0x84>
 6004be4:	9d 6b 00 04 	l.addi r11,r11,0x4
 6004be8:	9d 6b ff fc 	l.addi r11,r11,0xfffffffc
 6004bec:	90 8b 00 00 	l.lbs r4,0x0(r11)
 6004bf0:	bc 04 00 00 	l.sfeqi r4,0x0
 6004bf4:	10 00 00 08 	l.bf 6004c14 <strlen+0xe0>
 6004bf8:	15 00 00 00 	l.nop 0x0
 6004bfc:	9d 6b 00 01 	l.addi r11,r11,0x1
 6004c00:	90 8b 00 00 	l.lbs r4,0x0(r11)
 6004c04:	bc 24 00 00 	l.sfnei r4,0x0
 6004c08:	13 ff ff fe 	l.bf 6004c00 <strlen+0xcc>
 6004c0c:	9d 6b 00 01 	l.addi r11,r11,0x1
 6004c10:	9d 6b ff ff 	l.addi r11,r11,0xffffffff
 6004c14:	e1 6b 18 02 	l.sub r11,r11,r3
 6004c18:	9c 21 00 04 	l.addi r1,r1,0x4
 6004c1c:	44 00 48 00 	l.jr r9
 6004c20:	84 41 ff fc 	l.lwz r2,0xfffffffc(r1)
 6004c24:	03 ff ff d8 	l.j 6004b84 <strlen+0x50>
 6004c28:	a9 63 00 00 	l.ori r11,r3,0x0

06004c2c <strncpy>:
 6004c2c:	e0 c4 18 04 	l.or r6,r4,r3
 6004c30:	d7 e1 17 fc 	l.sw 0xfffffffc(r1),r2
 6004c34:	a4 c6 00 03 	l.andi r6,r6,0x3
 6004c38:	bc 26 00 00 	l.sfnei r6,0x0
 6004c3c:	10 00 00 09 	l.bf 6004c60 <strncpy+0x34>
 6004c40:	9c 21 ff fc 	l.addi r1,r1,0xfffffffc
 6004c44:	bc 45 00 03 	l.sfgtui r5,0x3
 6004c48:	0c 00 00 3d 	l.bnf 6004d3c <strncpy+0x110>
 6004c4c:	9c c0 00 01 	l.addi r6,r0,0x1
 6004c50:	a4 c6 00 ff 	l.andi r6,r6,0xff
 6004c54:	bc 06 00 00 	l.sfeqi r6,0x0
 6004c58:	0c 00 00 25 	l.bnf 6004cec <strncpy+0xc0>
 6004c5c:	a8 c3 00 00 	l.ori r6,r3,0x0
 6004c60:	a8 c3 00 00 	l.ori r6,r3,0x0
 6004c64:	bc 05 00 00 	l.sfeqi r5,0x0
 6004c68:	10 00 00 1d 	l.bf 6004cdc <strncpy+0xb0>
 6004c6c:	15 00 00 00 	l.nop 0x0
 6004c70:	90 e4 00 00 	l.lbs r7,0x0(r4)
 6004c74:	d8 06 38 00 	l.sb 0x0(r6),r7
 6004c78:	9c a5 ff ff 	l.addi r5,r5,0xffffffff
 6004c7c:	bc 07 00 00 	l.sfeqi r7,0x0
 6004c80:	10 00 00 0d 	l.bf 6004cb4 <strncpy+0x88>
 6004c84:	9c c6 00 01 	l.addi r6,r6,0x1
 6004c88:	9c 84 00 01 	l.addi r4,r4,0x1
 6004c8c:	bc 25 00 00 	l.sfnei r5,0x0
 6004c90:	0c 00 00 13 	l.bnf 6004cdc <strncpy+0xb0>
 6004c94:	15 00 00 00 	l.nop 0x0
 6004c98:	90 e4 00 00 	l.lbs r7,0x0(r4)
 6004c9c:	d8 06 38 00 	l.sb 0x0(r6),r7
 6004ca0:	9c 84 00 01 	l.addi r4,r4,0x1
 6004ca4:	9c a5 ff ff 	l.addi r5,r5,0xffffffff
 6004ca8:	bc 07 00 00 	l.sfeqi r7,0x0
 6004cac:	0f ff ff f8 	l.bnf 6004c8c <strncpy+0x60>
 6004cb0:	9c c6 00 01 	l.addi r6,r6,0x1
 6004cb4:	9c 80 00 00 	l.addi r4,r0,0x0
 6004cb8:	e4 25 20 00 	l.sfne r5,r4
 6004cbc:	0c 00 00 08 	l.bnf 6004cdc <strncpy+0xb0>
 6004cc0:	15 00 00 00 	l.nop 0x0
 6004cc4:	e0 e6 20 00 	l.add r7,r6,r4
 6004cc8:	9c 40 00 00 	l.addi r2,r0,0x0
 6004ccc:	9c 84 00 01 	l.addi r4,r4,0x1
 6004cd0:	e4 25 20 00 	l.sfne r5,r4
 6004cd4:	13 ff ff fc 	l.bf 6004cc4 <strncpy+0x98>
 6004cd8:	d8 07 10 00 	l.sb 0x0(r7),r2
 6004cdc:	9c 21 00 04 	l.addi r1,r1,0x4
 6004ce0:	a9 63 00 00 	l.ori r11,r3,0x0
 6004ce4:	44 00 48 00 	l.jr r9
 6004ce8:	84 41 ff fc 	l.lwz r2,0xfffffffc(r1)
 6004cec:	18 40 fe fe 	l.movhi r2,0xfefe
 6004cf0:	84 e4 00 00 	l.lwz r7,0x0(r4)
 6004cf4:	a8 42 fe ff 	l.ori r2,r2,0xfeff
 6004cf8:	ad 87 ff ff 	l.xori r12,r7,0xffffffff
 6004cfc:	e1 07 10 00 	l.add r8,r7,r2
 6004d00:	18 40 80 80 	l.movhi r2,0x8080
 6004d04:	e1 0c 40 03 	l.and r8,r12,r8
 6004d08:	a8 42 80 80 	l.ori r2,r2,0x8080
 6004d0c:	e1 08 10 03 	l.and r8,r8,r2
 6004d10:	bc 08 00 00 	l.sfeqi r8,0x0
 6004d14:	0f ff ff d5 	l.bnf 6004c68 <strncpy+0x3c>
 6004d18:	bc 05 00 00 	l.sfeqi r5,0x0
 6004d1c:	9c a5 ff fc 	l.addi r5,r5,0xfffffffc
 6004d20:	d4 06 38 00 	l.sw 0x0(r6),r7
 6004d24:	9c 84 00 04 	l.addi r4,r4,0x4
 6004d28:	bc a5 00 03 	l.sfleui r5,0x3
 6004d2c:	0f ff ff f0 	l.bnf 6004cec <strncpy+0xc0>
 6004d30:	9c c6 00 04 	l.addi r6,r6,0x4
 6004d34:	03 ff ff cd 	l.j 6004c68 <strncpy+0x3c>
 6004d38:	bc 05 00 00 	l.sfeqi r5,0x0
 6004d3c:	9c c0 00 00 	l.addi r6,r0,0x0
 6004d40:	a4 c6 00 ff 	l.andi r6,r6,0xff
 6004d44:	bc 06 00 00 	l.sfeqi r6,0x0
 6004d48:	13 ff ff c6 	l.bf 6004c60 <strncpy+0x34>
 6004d4c:	a8 c3 00 00 	l.ori r6,r3,0x0
 6004d50:	03 ff ff e8 	l.j 6004cf0 <strncpy+0xc4>
 6004d54:	18 40 fe fe 	l.movhi r2,0xfefe

06004d58 <strnlen>:
 6004d58:	bc 04 00 00 	l.sfeqi r4,0x0
 6004d5c:	10 00 00 11 	l.bf 6004da0 <strnlen+0x48>
 6004d60:	a9 64 00 00 	l.ori r11,r4,0x0
 6004d64:	91 63 00 00 	l.lbs r11,0x0(r3)
 6004d68:	bc 0b 00 00 	l.sfeqi r11,0x0
 6004d6c:	10 00 00 0d 	l.bf 6004da0 <strnlen+0x48>
 6004d70:	15 00 00 00 	l.nop 0x0
 6004d74:	9c 84 ff ff 	l.addi r4,r4,0xffffffff
 6004d78:	00 00 00 06 	l.j 6004d90 <strnlen+0x38>
 6004d7c:	a9 63 00 00 	l.ori r11,r3,0x0
 6004d80:	90 ab 00 00 	l.lbs r5,0x0(r11)
 6004d84:	bc 25 00 00 	l.sfnei r5,0x0
 6004d88:	0c 00 00 05 	l.bnf 6004d9c <strnlen+0x44>
 6004d8c:	9c 84 ff ff 	l.addi r4,r4,0xffffffff
 6004d90:	bc 24 00 00 	l.sfnei r4,0x0
 6004d94:	13 ff ff fb 	l.bf 6004d80 <strnlen+0x28>
 6004d98:	9d 6b 00 01 	l.addi r11,r11,0x1
 6004d9c:	e1 6b 18 02 	l.sub r11,r11,r3
 6004da0:	44 00 48 00 	l.jr r9
 6004da4:	15 00 00 00 	l.nop 0x0

06004da8 <_text_dummy_code>:
 6004da8:	15 00 00 00 	l.nop 0x0
 6004dac:	15 00 00 00 	l.nop 0x0
 6004db0:	15 00 00 00 	l.nop 0x0
 6004db4:	15 00 00 00 	l.nop 0x0
 6004db8:	15 00 00 00 	l.nop 0x0
 6004dbc:	15 00 00 00 	l.nop 0x0
 6004dc0:	15 00 00 00 	l.nop 0x0
 6004dc4:	15 00 00 00 	l.nop 0x0
 6004dc8:	15 00 00 00 	l.nop 0x0
 6004dcc:	15 00 00 00 	l.nop 0x0
 6004dd0:	15 00 00 00 	l.nop 0x0
 6004dd4:	15 00 00 00 	l.nop 0x0
 6004dd8:	15 00 00 00 	l.nop 0x0
 6004ddc:	15 00 00 00 	l.nop 0x0
 6004de0:	15 00 00 00 	l.nop 0x0
 6004de4:	15 00 00 00 	l.nop 0x0
	...

Disassembly of section .ispm_text:

04007400 <default_xsr>:
 4007400:	d7 e1 97 f8 	l.sw 0xfffffff8(r1),r18
 4007404:	ba 43 00 48 	l.srli r18,r3,0x8
 4007408:	d7 e1 77 f0 	l.sw 0xfffffff0(r1),r14
 400740c:	a9 c4 00 00 	l.ori r14,r4,0x0
 4007410:	a6 52 00 1f 	l.andi r18,r18,0x1f
 4007414:	18 80 04 00 	l.movhi r4,0x400
 4007418:	d7 e1 87 f4 	l.sw 0xfffffff4(r1),r16
 400741c:	ba 12 00 02 	l.slli r16,r18,0x2
 4007420:	a8 84 7e 7c 	l.ori r4,r4,0x7e7c
 4007424:	d7 e1 17 ec 	l.sw 0xffffffec(r1),r2
 4007428:	a8 43 00 00 	l.ori r2,r3,0x0
 400742c:	e0 70 20 00 	l.add r3,r16,r4
 4007430:	d7 e1 4f fc 	l.sw 0xfffffffc(r1),r9
 4007434:	84 63 00 00 	l.lwz r3,0x0(r3)
 4007438:	bc 03 00 00 	l.sfeqi r3,0x0
 400743c:	10 00 00 21 	l.bf 40074c0 <default_xsr+0xc0>
 4007440:	9c 21 ff e0 	l.addi r1,r1,0xffffffe0
 4007444:	18 40 04 00 	l.movhi r2,0x400
 4007448:	a8 42 7e e0 	l.ori r2,r2,0x7ee0
 400744c:	84 62 00 00 	l.lwz r3,0x0(r2)
 4007450:	9c 63 00 01 	l.addi r3,r3,0x1
 4007454:	bd a3 00 01 	l.sflesi r3,0x1
 4007458:	10 00 00 07 	l.bf 4007474 <default_xsr+0x74>
 400745c:	d4 02 18 00 	l.sw 0x0(r2),r3
 4007460:	04 7f e9 d3 	l.jal 6001bac <disable_htb>
 4007464:	15 00 00 00 	l.nop 0x0
 4007468:	04 7f e9 c2 	l.jal 6001b70 <enable_jtag_ctrl_exception>
 400746c:	15 00 00 00 	l.nop 0x0
 4007470:	21 00 00 00 	l.trap 0x0
 4007474:	18 40 04 00 	l.movhi r2,0x400
 4007478:	ba 52 00 02 	l.slli r18,r18,0x2
 400747c:	a8 42 7e 7c 	l.ori r2,r2,0x7e7c
 4007480:	e2 52 10 00 	l.add r18,r18,r2
 4007484:	84 52 00 00 	l.lwz r2,0x0(r18)
 4007488:	48 00 10 00 	l.jalr r2
 400748c:	15 00 00 00 	l.nop 0x0
 4007490:	18 40 04 00 	l.movhi r2,0x400
 4007494:	a8 42 7e e0 	l.ori r2,r2,0x7ee0
 4007498:	84 62 00 00 	l.lwz r3,0x0(r2)
 400749c:	9c 63 ff ff 	l.addi r3,r3,0xffffffff
 40074a0:	d4 02 18 00 	l.sw 0x0(r2),r3
 40074a4:	9c 21 00 20 	l.addi r1,r1,0x20
 40074a8:	85 21 ff fc 	l.lwz r9,0xfffffffc(r1)
 40074ac:	84 41 ff ec 	l.lwz r2,0xffffffec(r1)
 40074b0:	85 c1 ff f0 	l.lwz r14,0xfffffff0(r1)
 40074b4:	86 01 ff f4 	l.lwz r16,0xfffffff4(r1)
 40074b8:	44 00 48 00 	l.jr r9
 40074bc:	86 41 ff f8 	l.lwz r18,0xfffffff8(r1)
 40074c0:	04 7f e9 bb 	l.jal 6001bac <disable_htb>
 40074c4:	15 00 00 00 	l.nop 0x0
 40074c8:	18 60 f9 40 	l.movhi r3,0xf940
 40074cc:	18 80 04 00 	l.movhi r4,0x400
 40074d0:	84 63 00 00 	l.lwz r3,0x0(r3)
 40074d4:	a8 84 7e 40 	l.ori r4,r4,0x7e40
 40074d8:	b8 63 00 44 	l.srli r3,r3,0x4
 40074dc:	a4 63 00 03 	l.andi r3,r3,0x3
 40074e0:	d4 01 18 00 	l.sw 0x0(r1),r3
 40074e4:	e0 70 20 00 	l.add r3,r16,r4
 40074e8:	9c 80 ff fc 	l.addi r4,r0,0xfffffffc
 40074ec:	84 63 00 00 	l.lwz r3,0x0(r3)
 40074f0:	d4 01 18 04 	l.sw 0x4(r1),r3
 40074f4:	e0 6e 20 03 	l.and r3,r14,r4
 40074f8:	d4 01 18 08 	l.sw 0x8(r1),r3
 40074fc:	18 60 06 00 	l.movhi r3,0x600
 4007500:	04 7f ec 07 	l.jal 600251c <_ecm_printf>
 4007504:	a8 63 10 cb 	l.ori r3,r3,0x10cb
 4007508:	04 7f ea 89 	l.jal 6001f2c <report>
 400750c:	a8 62 00 00 	l.ori r3,r2,0x0
 4007510:	04 7f ea 87 	l.jal 6001f2c <report>
 4007514:	a8 6e 00 00 	l.ori r3,r14,0x0
 4007518:	9c 21 00 20 	l.addi r1,r1,0x20
 400751c:	9c 60 ff ff 	l.addi r3,r0,0xffffffff
 4007520:	85 21 ff fc 	l.lwz r9,0xfffffffc(r1)
 4007524:	84 41 ff ec 	l.lwz r2,0xffffffec(r1)
 4007528:	85 c1 ff f0 	l.lwz r14,0xfffffff0(r1)
 400752c:	86 01 ff f4 	l.lwz r16,0xfffffff4(r1)
 4007530:	00 7f ea 71 	l.j 6001ef4 <exit>
 4007534:	86 41 ff f8 	l.lwz r18,0xfffffff8(r1)

04007538 <Sfls_Winbond>:
 4007538:	d7 e1 4f fc 	l.sw 0xfffffffc(r1),r9
 400753c:	d7 e1 17 f8 	l.sw 0xfffffff8(r1),r2
 4007540:	a4 63 00 ff 	l.andi r3,r3,0xff
 4007544:	9c 21 ff f8 	l.addi r1,r1,0xfffffff8
 4007548:	bc 03 00 40 	l.sfeqi r3,0x40
 400754c:	0c 00 00 86 	l.bnf 4007764 <Sfls_Winbond+0x22c>
 4007550:	a4 84 00 ff 	l.andi r4,r4,0xff
 4007554:	bc 04 00 17 	l.sfeqi r4,0x17
 4007558:	10 00 00 09 	l.bf 400757c <Sfls_Winbond+0x44>
 400755c:	bc 04 00 18 	l.sfeqi r4,0x18
 4007560:	10 00 00 38 	l.bf 4007640 <Sfls_Winbond+0x108>
 4007564:	bc 04 00 16 	l.sfeqi r4,0x16
 4007568:	0c 00 00 7c 	l.bnf 4007758 <Sfls_Winbond+0x220>
 400756c:	15 00 00 00 	l.nop 0x0
 4007570:	18 60 06 00 	l.movhi r3,0x600
 4007574:	00 00 00 7e 	l.j 400776c <Sfls_Winbond+0x234>
 4007578:	a8 63 12 8e 	l.ori r3,r3,0x128e
 400757c:	18 60 06 00 	l.movhi r3,0x600
 4007580:	9c 40 00 06 	l.addi r2,r0,0x6
 4007584:	04 7f eb e6 	l.jal 600251c <_ecm_printf>
 4007588:	a8 63 12 9e 	l.ori r3,r3,0x129e
 400758c:	18 60 f9 20 	l.movhi r3,0xf920
 4007590:	a8 83 00 0c 	l.ori r4,r3,0xc
 4007594:	a8 63 00 14 	l.ori r3,r3,0x14
 4007598:	d8 04 10 00 	l.sb 0x0(r4),r2
 400759c:	18 80 50 02 	l.movhi r4,0x5002
 40075a0:	d4 03 20 00 	l.sw 0x0(r3),r4
 40075a4:	84 a3 00 00 	l.lwz r5,0x0(r3)
 40075a8:	18 40 00 02 	l.movhi r2,0x2
 40075ac:	e0 a5 10 03 	l.and r5,r5,r2
 40075b0:	bc 25 00 00 	l.sfnei r5,0x0
 40075b4:	13 ff ff fc 	l.bf 40075a4 <Sfls_Winbond+0x6c>
 40075b8:	18 80 f9 20 	l.movhi r4,0xf920
 40075bc:	a8 a4 00 0c 	l.ori r5,r4,0xc
 40075c0:	9c 40 00 01 	l.addi r2,r0,0x1
 40075c4:	d8 05 10 00 	l.sb 0x0(r5),r2
 40075c8:	18 a0 00 02 	l.movhi r5,0x2
 40075cc:	d4 04 28 00 	l.sw 0x0(r4),r5
 40075d0:	18 80 50 02 	l.movhi r4,0x5002
 40075d4:	a8 84 1c 01 	l.ori r4,r4,0x1c01
 40075d8:	d4 03 20 00 	l.sw 0x0(r3),r4
 40075dc:	84 a3 00 00 	l.lwz r5,0x0(r3)
 40075e0:	18 40 00 02 	l.movhi r2,0x2
 40075e4:	e0 a5 10 03 	l.and r5,r5,r2
 40075e8:	bc 25 00 00 	l.sfnei r5,0x0
 40075ec:	13 ff ff fc 	l.bf 40075dc <Sfls_Winbond+0xa4>
 40075f0:	18 80 f9 20 	l.movhi r4,0xf920
 40075f4:	a8 a4 00 08 	l.ori r5,r4,0x8
 40075f8:	9c 40 ff eb 	l.addi r2,r0,0xffffffeb
 40075fc:	a8 84 00 0c 	l.ori r4,r4,0xc
 4007600:	d8 05 10 02 	l.sb 0x2(r5),r2
 4007604:	9c 40 00 02 	l.addi r2,r0,0x2
 4007608:	d8 05 10 03 	l.sb 0x3(r5),r2
 400760c:	18 a0 38 76 	l.movhi r5,0x3876
 4007610:	a8 a5 aa aa 	l.ori r5,r5,0xaaaa
 4007614:	d4 04 28 00 	l.sw 0x0(r4),r5
 4007618:	18 80 50 03 	l.movhi r4,0x5003
 400761c:	d4 03 20 00 	l.sw 0x0(r3),r4
 4007620:	84 83 00 00 	l.lwz r4,0x0(r3)
 4007624:	18 40 00 02 	l.movhi r2,0x2
 4007628:	e0 84 10 03 	l.and r4,r4,r2
 400762c:	bc 24 00 00 	l.sfnei r4,0x0
 4007630:	13 ff ff fc 	l.bf 4007620 <Sfls_Winbond+0xe8>
 4007634:	15 00 00 00 	l.nop 0x0
 4007638:	00 00 00 46 	l.j 4007750 <Sfls_Winbond+0x218>
 400763c:	18 60 06 00 	l.movhi r3,0x600
 4007640:	18 60 06 00 	l.movhi r3,0x600
 4007644:	9c 40 00 35 	l.addi r2,r0,0x35
 4007648:	04 7f eb b5 	l.jal 600251c <_ecm_printf>
 400764c:	a8 63 12 be 	l.ori r3,r3,0x12be
 4007650:	18 60 f9 20 	l.movhi r3,0xf920
 4007654:	a8 83 00 0c 	l.ori r4,r3,0xc
 4007658:	a8 63 00 14 	l.ori r3,r3,0x14
 400765c:	d8 04 10 00 	l.sb 0x0(r4),r2
 4007660:	18 80 50 02 	l.movhi r4,0x5002
 4007664:	a8 84 10 00 	l.ori r4,r4,0x1000
 4007668:	d4 03 20 00 	l.sw 0x0(r3),r4
 400766c:	84 a3 00 00 	l.lwz r5,0x0(r3)
 4007670:	18 40 00 02 	l.movhi r2,0x2
 4007674:	e0 a5 10 03 	l.and r5,r5,r2
 4007678:	bc 25 00 00 	l.sfnei r5,0x0
 400767c:	13 ff ff fc 	l.bf 400766c <Sfls_Winbond+0x134>
 4007680:	18 80 f9 20 	l.movhi r4,0xf920
 4007684:	a8 a4 00 04 	l.ori r5,r4,0x4
 4007688:	18 40 02 00 	l.movhi r2,0x200
 400768c:	84 a5 00 00 	l.lwz r5,0x0(r5)
 4007690:	e0 a5 10 03 	l.and r5,r5,r2
 4007694:	bc 25 00 00 	l.sfnei r5,0x0
 4007698:	10 00 00 1a 	l.bf 4007700 <Sfls_Winbond+0x1c8>
 400769c:	a8 84 00 0c 	l.ori r4,r4,0xc
 40076a0:	9c 40 00 06 	l.addi r2,r0,0x6
 40076a4:	d8 04 10 00 	l.sb 0x0(r4),r2
 40076a8:	18 80 50 02 	l.movhi r4,0x5002
 40076ac:	d4 03 20 00 	l.sw 0x0(r3),r4
 40076b0:	84 a3 00 00 	l.lwz r5,0x0(r3)
 40076b4:	18 40 00 02 	l.movhi r2,0x2
 40076b8:	e0 a5 10 03 	l.and r5,r5,r2
 40076bc:	bc 25 00 00 	l.sfnei r5,0x0
 40076c0:	13 ff ff fc 	l.bf 40076b0 <Sfls_Winbond+0x178>
 40076c4:	18 80 f9 20 	l.movhi r4,0xf920
 40076c8:	a8 a4 00 0c 	l.ori r5,r4,0xc
 40076cc:	9c 40 00 31 	l.addi r2,r0,0x31
 40076d0:	d8 05 10 00 	l.sb 0x0(r5),r2
 40076d4:	18 a0 02 00 	l.movhi r5,0x200
 40076d8:	d4 04 28 00 	l.sw 0x0(r4),r5
 40076dc:	18 80 50 02 	l.movhi r4,0x5002
 40076e0:	a8 84 1c 01 	l.ori r4,r4,0x1c01
 40076e4:	d4 03 20 00 	l.sw 0x0(r3),r4
 40076e8:	84 83 00 00 	l.lwz r4,0x0(r3)
 40076ec:	18 40 00 02 	l.movhi r2,0x2
 40076f0:	e0 84 10 03 	l.and r4,r4,r2
 40076f4:	bc 24 00 00 	l.sfnei r4,0x0
 40076f8:	13 ff ff fc 	l.bf 40076e8 <Sfls_Winbond+0x1b0>
 40076fc:	15 00 00 00 	l.nop 0x0
 4007700:	18 60 f9 20 	l.movhi r3,0xf920
 4007704:	9c 40 ff eb 	l.addi r2,r0,0xffffffeb
 4007708:	a8 83 00 08 	l.ori r4,r3,0x8
 400770c:	18 a0 38 7a 	l.movhi r5,0x387a
 4007710:	d8 04 10 02 	l.sb 0x2(r4),r2
 4007714:	9c 40 00 02 	l.addi r2,r0,0x2
 4007718:	a8 a5 aa aa 	l.ori r5,r5,0xaaaa
 400771c:	d8 04 10 03 	l.sb 0x3(r4),r2
 4007720:	a8 83 00 0c 	l.ori r4,r3,0xc
 4007724:	a8 63 00 14 	l.ori r3,r3,0x14
 4007728:	d4 04 28 00 	l.sw 0x0(r4),r5
 400772c:	18 80 50 03 	l.movhi r4,0x5003
 4007730:	d4 03 20 00 	l.sw 0x0(r3),r4
 4007734:	84 83 00 00 	l.lwz r4,0x0(r3)
 4007738:	18 40 00 02 	l.movhi r2,0x2
 400773c:	e0 84 10 03 	l.and r4,r4,r2
 4007740:	bc 24 00 00 	l.sfnei r4,0x0
 4007744:	13 ff ff fc 	l.bf 4007734 <Sfls_Winbond+0x1fc>
 4007748:	15 00 00 00 	l.nop 0x0
 400774c:	18 60 06 00 	l.movhi r3,0x600
 4007750:	00 00 00 07 	l.j 400776c <Sfls_Winbond+0x234>
 4007754:	a8 63 12 b8 	l.ori r3,r3,0x12b8
 4007758:	18 60 06 00 	l.movhi r3,0x600
 400775c:	00 00 00 04 	l.j 400776c <Sfls_Winbond+0x234>
 4007760:	a8 63 12 cd 	l.ori r3,r3,0x12cd
 4007764:	18 60 06 00 	l.movhi r3,0x600
 4007768:	a8 63 12 e1 	l.ori r3,r3,0x12e1
 400776c:	9c 21 00 08 	l.addi r1,r1,0x8
 4007770:	85 21 ff fc 	l.lwz r9,0xfffffffc(r1)
 4007774:	00 7f eb 6a 	l.j 600251c <_ecm_printf>
 4007778:	84 41 ff f8 	l.lwz r2,0xfffffff8(r1)

0400777c <Sfls_EON>:
 400777c:	d7 e1 4f fc 	l.sw 0xfffffffc(r1),r9
 4007780:	d7 e1 17 f8 	l.sw 0xfffffff8(r1),r2
 4007784:	a4 63 00 ff 	l.andi r3,r3,0xff
 4007788:	9c 21 ff f8 	l.addi r1,r1,0xfffffff8
 400778c:	bc 03 00 30 	l.sfeqi r3,0x30
 4007790:	10 00 00 07 	l.bf 40077ac <Sfls_EON+0x30>
 4007794:	a4 84 00 ff 	l.andi r4,r4,0xff
 4007798:	bc 03 00 70 	l.sfeqi r3,0x70
 400779c:	0c 00 00 51 	l.bnf 40078e0 <Sfls_EON+0x164>
 40077a0:	18 60 06 00 	l.movhi r3,0x600
 40077a4:	00 00 00 27 	l.j 4007840 <Sfls_EON+0xc4>
 40077a8:	bc 04 00 17 	l.sfeqi r4,0x17
 40077ac:	bc 04 00 17 	l.sfeqi r4,0x17
 40077b0:	10 00 00 09 	l.bf 40077d4 <Sfls_EON+0x58>
 40077b4:	bc 04 00 18 	l.sfeqi r4,0x18
 40077b8:	10 00 00 0a 	l.bf 40077e0 <Sfls_EON+0x64>
 40077bc:	bc 04 00 16 	l.sfeqi r4,0x16
 40077c0:	0c 00 00 45 	l.bnf 40078d4 <Sfls_EON+0x158>
 40077c4:	15 00 00 00 	l.nop 0x0
 40077c8:	18 60 06 00 	l.movhi r3,0x600
 40077cc:	00 00 00 46 	l.j 40078e4 <Sfls_EON+0x168>
 40077d0:	a8 63 12 f0 	l.ori r3,r3,0x12f0
 40077d4:	18 60 06 00 	l.movhi r3,0x600
 40077d8:	00 00 00 43 	l.j 40078e4 <Sfls_EON+0x168>
 40077dc:	a8 63 12 ff 	l.ori r3,r3,0x12ff
 40077e0:	18 60 06 00 	l.movhi r3,0x600
 40077e4:	9c 40 ff eb 	l.addi r2,r0,0xffffffeb
 40077e8:	04 7f eb 4d 	l.jal 600251c <_ecm_printf>
 40077ec:	a8 63 13 0e 	l.ori r3,r3,0x130e
 40077f0:	18 60 f9 20 	l.movhi r3,0xf920
 40077f4:	18 a0 38 7e 	l.movhi r5,0x387e
 40077f8:	a8 83 00 08 	l.ori r4,r3,0x8
 40077fc:	a8 a5 aa aa 	l.ori r5,r5,0xaaaa
 4007800:	d8 04 10 02 	l.sb 0x2(r4),r2
 4007804:	9c 40 00 02 	l.addi r2,r0,0x2
 4007808:	d8 04 10 03 	l.sb 0x3(r4),r2
 400780c:	a8 83 00 0c 	l.ori r4,r3,0xc
 4007810:	a8 63 00 14 	l.ori r3,r3,0x14
 4007814:	d4 04 28 00 	l.sw 0x0(r4),r5
 4007818:	18 80 50 03 	l.movhi r4,0x5003
 400781c:	d4 03 20 00 	l.sw 0x0(r3),r4
 4007820:	84 83 00 00 	l.lwz r4,0x0(r3)
 4007824:	18 40 00 02 	l.movhi r2,0x2
 4007828:	e0 84 10 03 	l.and r4,r4,r2
 400782c:	bc 24 00 00 	l.sfnei r4,0x0
 4007830:	13 ff ff fc 	l.bf 4007820 <Sfls_EON+0xa4>
 4007834:	15 00 00 00 	l.nop 0x0
 4007838:	00 00 00 25 	l.j 40078cc <Sfls_EON+0x150>
 400783c:	18 60 06 00 	l.movhi r3,0x600
 4007840:	10 00 00 09 	l.bf 4007864 <Sfls_EON+0xe8>
 4007844:	bc 04 00 18 	l.sfeqi r4,0x18
 4007848:	10 00 00 0a 	l.bf 4007870 <Sfls_EON+0xf4>
 400784c:	bc 04 00 16 	l.sfeqi r4,0x16
 4007850:	0c 00 00 21 	l.bnf 40078d4 <Sfls_EON+0x158>
 4007854:	15 00 00 00 	l.nop 0x0
 4007858:	18 60 06 00 	l.movhi r3,0x600
 400785c:	00 00 00 22 	l.j 40078e4 <Sfls_EON+0x168>
 4007860:	a8 63 13 2c 	l.ori r3,r3,0x132c
 4007864:	18 60 06 00 	l.movhi r3,0x600
 4007868:	00 00 00 1f 	l.j 40078e4 <Sfls_EON+0x168>
 400786c:	a8 63 13 3d 	l.ori r3,r3,0x133d
 4007870:	18 60 06 00 	l.movhi r3,0x600
 4007874:	9c 40 ff eb 	l.addi r2,r0,0xffffffeb
 4007878:	04 7f eb 29 	l.jal 600251c <_ecm_printf>
 400787c:	a8 63 13 4e 	l.ori r3,r3,0x134e
 4007880:	18 60 f9 20 	l.movhi r3,0xf920
 4007884:	18 a0 38 7e 	l.movhi r5,0x387e
 4007888:	a8 83 00 08 	l.ori r4,r3,0x8
 400788c:	a8 a5 aa aa 	l.ori r5,r5,0xaaaa
 4007890:	d8 04 10 02 	l.sb 0x2(r4),r2
 4007894:	9c 40 00 02 	l.addi r2,r0,0x2
 4007898:	d8 04 10 03 	l.sb 0x3(r4),r2
 400789c:	a8 83 00 0c 	l.ori r4,r3,0xc
 40078a0:	a8 63 00 14 	l.ori r3,r3,0x14
 40078a4:	d4 04 28 00 	l.sw 0x0(r4),r5
 40078a8:	18 80 50 03 	l.movhi r4,0x5003
 40078ac:	d4 03 20 00 	l.sw 0x0(r3),r4
 40078b0:	84 83 00 00 	l.lwz r4,0x0(r3)
 40078b4:	18 40 00 02 	l.movhi r2,0x2
 40078b8:	e0 84 10 03 	l.and r4,r4,r2
 40078bc:	bc 24 00 00 	l.sfnei r4,0x0
 40078c0:	13 ff ff fc 	l.bf 40078b0 <Sfls_EON+0x134>
 40078c4:	15 00 00 00 	l.nop 0x0
 40078c8:	18 60 06 00 	l.movhi r3,0x600
 40078cc:	00 00 00 06 	l.j 40078e4 <Sfls_EON+0x168>
 40078d0:	a8 63 12 b8 	l.ori r3,r3,0x12b8
 40078d4:	18 60 06 00 	l.movhi r3,0x600
 40078d8:	00 00 00 03 	l.j 40078e4 <Sfls_EON+0x168>
 40078dc:	a8 63 13 1c 	l.ori r3,r3,0x131c
 40078e0:	a8 63 13 5e 	l.ori r3,r3,0x135e
 40078e4:	9c 21 00 08 	l.addi r1,r1,0x8
 40078e8:	85 21 ff fc 	l.lwz r9,0xfffffffc(r1)
 40078ec:	00 7f eb 0c 	l.j 600251c <_ecm_printf>
 40078f0:	84 41 ff f8 	l.lwz r2,0xfffffff8(r1)

040078f4 <Sfls_Macronix>:
 40078f4:	d7 e1 4f fc 	l.sw 0xfffffffc(r1),r9
 40078f8:	d7 e1 17 f8 	l.sw 0xfffffff8(r1),r2
 40078fc:	a4 63 00 ff 	l.andi r3,r3,0xff
 4007900:	9c 21 ff f8 	l.addi r1,r1,0xfffffff8
 4007904:	bc 03 00 20 	l.sfeqi r3,0x20
 4007908:	0c 00 00 96 	l.bnf 4007b60 <Sfls_Macronix+0x26c>
 400790c:	a4 84 00 ff 	l.andi r4,r4,0xff
 4007910:	bc 04 00 17 	l.sfeqi r4,0x17
 4007914:	10 00 00 06 	l.bf 400792c <Sfls_Macronix+0x38>
 4007918:	bc 04 00 18 	l.sfeqi r4,0x18
 400791c:	0c 00 00 8e 	l.bnf 4007b54 <Sfls_Macronix+0x260>
 4007920:	15 00 00 00 	l.nop 0x0
 4007924:	00 00 00 47 	l.j 4007a40 <Sfls_Macronix+0x14c>
 4007928:	18 60 06 00 	l.movhi r3,0x600
 400792c:	18 60 06 00 	l.movhi r3,0x600
 4007930:	9c 40 00 05 	l.addi r2,r0,0x5
 4007934:	04 7f ea fa 	l.jal 600251c <_ecm_printf>
 4007938:	a8 63 13 69 	l.ori r3,r3,0x1369
 400793c:	18 60 f9 20 	l.movhi r3,0xf920
 4007940:	a8 83 00 0c 	l.ori r4,r3,0xc
 4007944:	a8 63 00 14 	l.ori r3,r3,0x14
 4007948:	d8 04 10 00 	l.sb 0x0(r4),r2
 400794c:	18 80 50 02 	l.movhi r4,0x5002
 4007950:	a8 84 10 00 	l.ori r4,r4,0x1000
 4007954:	d4 03 20 00 	l.sw 0x0(r3),r4
 4007958:	84 a3 00 00 	l.lwz r5,0x0(r3)
 400795c:	18 40 00 02 	l.movhi r2,0x2
 4007960:	e0 a5 10 03 	l.and r5,r5,r2
 4007964:	bc 25 00 00 	l.sfnei r5,0x0
 4007968:	13 ff ff fc 	l.bf 4007958 <Sfls_Macronix+0x64>
 400796c:	18 80 f9 20 	l.movhi r4,0xf920
 4007970:	a8 a4 00 04 	l.ori r5,r4,0x4
 4007974:	18 40 40 00 	l.movhi r2,0x4000
 4007978:	84 a5 00 00 	l.lwz r5,0x0(r5)
 400797c:	e0 a5 10 03 	l.and r5,r5,r2
 4007980:	bc 25 00 00 	l.sfnei r5,0x0
 4007984:	10 00 00 1a 	l.bf 40079ec <Sfls_Macronix+0xf8>
 4007988:	a8 84 00 0c 	l.ori r4,r4,0xc
 400798c:	9c 40 00 06 	l.addi r2,r0,0x6
 4007990:	d8 04 10 00 	l.sb 0x0(r4),r2
 4007994:	18 80 50 02 	l.movhi r4,0x5002
 4007998:	d4 03 20 00 	l.sw 0x0(r3),r4
 400799c:	84 a3 00 00 	l.lwz r5,0x0(r3)
 40079a0:	18 40 00 02 	l.movhi r2,0x2
 40079a4:	e0 a5 10 03 	l.and r5,r5,r2
 40079a8:	bc 25 00 00 	l.sfnei r5,0x0
 40079ac:	13 ff ff fc 	l.bf 400799c <Sfls_Macronix+0xa8>
 40079b0:	18 80 f9 20 	l.movhi r4,0xf920
 40079b4:	a8 a4 00 0c 	l.ori r5,r4,0xc
 40079b8:	9c 40 00 01 	l.addi r2,r0,0x1
 40079bc:	d8 05 10 00 	l.sb 0x0(r5),r2
 40079c0:	18 a0 40 00 	l.movhi r5,0x4000
 40079c4:	d4 04 28 00 	l.sw 0x0(r4),r5
 40079c8:	18 80 50 02 	l.movhi r4,0x5002
 40079cc:	a8 84 1c 01 	l.ori r4,r4,0x1c01
 40079d0:	d4 03 20 00 	l.sw 0x0(r3),r4
 40079d4:	84 83 00 00 	l.lwz r4,0x0(r3)
 40079d8:	18 40 00 02 	l.movhi r2,0x2
 40079dc:	e0 84 10 03 	l.and r4,r4,r2
 40079e0:	bc 24 00 00 	l.sfnei r4,0x0
 40079e4:	13 ff ff fc 	l.bf 40079d4 <Sfls_Macronix+0xe0>
 40079e8:	15 00 00 00 	l.nop 0x0
 40079ec:	18 60 f9 20 	l.movhi r3,0xf920
 40079f0:	9c 40 ff eb 	l.addi r2,r0,0xffffffeb
 40079f4:	a8 83 00 08 	l.ori r4,r3,0x8
 40079f8:	18 a0 00 7c 	l.movhi r5,0x7c
 40079fc:	d8 04 10 02 	l.sb 0x2(r4),r2
 4007a00:	9c 40 00 38 	l.addi r2,r0,0x38
 4007a04:	a8 a5 a0 a0 	l.ori r5,r5,0xa0a0
 4007a08:	d8 04 10 03 	l.sb 0x3(r4),r2
 4007a0c:	a8 83 00 0c 	l.ori r4,r3,0xc
 4007a10:	a8 63 00 14 	l.ori r3,r3,0x14
 4007a14:	d4 04 28 00 	l.sw 0x0(r4),r5
 4007a18:	18 80 50 01 	l.movhi r4,0x5001
 4007a1c:	d4 03 20 00 	l.sw 0x0(r3),r4
 4007a20:	84 83 00 00 	l.lwz r4,0x0(r3)
 4007a24:	18 40 00 02 	l.movhi r2,0x2
 4007a28:	e0 84 10 03 	l.and r4,r4,r2
 4007a2c:	bc 24 00 00 	l.sfnei r4,0x0
 4007a30:	13 ff ff fc 	l.bf 4007a20 <Sfls_Macronix+0x12c>
 4007a34:	15 00 00 00 	l.nop 0x0
 4007a38:	00 00 00 45 	l.j 4007b4c <Sfls_Macronix+0x258>
 4007a3c:	18 60 06 00 	l.movhi r3,0x600
 4007a40:	9c 40 00 05 	l.addi r2,r0,0x5
 4007a44:	04 7f ea b6 	l.jal 600251c <_ecm_printf>
 4007a48:	a8 63 13 79 	l.ori r3,r3,0x1379
 4007a4c:	18 60 f9 20 	l.movhi r3,0xf920
 4007a50:	a8 83 00 0c 	l.ori r4,r3,0xc
 4007a54:	a8 63 00 14 	l.ori r3,r3,0x14
 4007a58:	d8 04 10 00 	l.sb 0x0(r4),r2
 4007a5c:	18 80 50 02 	l.movhi r4,0x5002
 4007a60:	a8 84 10 00 	l.ori r4,r4,0x1000
 4007a64:	d4 03 20 00 	l.sw 0x0(r3),r4
 4007a68:	84 a3 00 00 	l.lwz r5,0x0(r3)
 4007a6c:	18 40 00 02 	l.movhi r2,0x2
 4007a70:	e0 a5 10 03 	l.and r5,r5,r2
 4007a74:	bc 25 00 00 	l.sfnei r5,0x0
 4007a78:	13 ff ff fc 	l.bf 4007a68 <Sfls_Macronix+0x174>
 4007a7c:	18 80 f9 20 	l.movhi r4,0xf920
 4007a80:	a8 a4 00 04 	l.ori r5,r4,0x4
 4007a84:	18 40 40 00 	l.movhi r2,0x4000
 4007a88:	84 a5 00 00 	l.lwz r5,0x0(r5)
 4007a8c:	e0 a5 10 03 	l.and r5,r5,r2
 4007a90:	bc 25 00 00 	l.sfnei r5,0x0
 4007a94:	10 00 00 1a 	l.bf 4007afc <Sfls_Macronix+0x208>
 4007a98:	a8 84 00 0c 	l.ori r4,r4,0xc
 4007a9c:	9c 40 00 06 	l.addi r2,r0,0x6
 4007aa0:	d8 04 10 00 	l.sb 0x0(r4),r2
 4007aa4:	18 80 50 02 	l.movhi r4,0x5002
 4007aa8:	d4 03 20 00 	l.sw 0x0(r3),r4
 4007aac:	84 a3 00 00 	l.lwz r5,0x0(r3)
 4007ab0:	18 40 00 02 	l.movhi r2,0x2
 4007ab4:	e0 a5 10 03 	l.and r5,r5,r2
 4007ab8:	bc 25 00 00 	l.sfnei r5,0x0
 4007abc:	13 ff ff fc 	l.bf 4007aac <Sfls_Macronix+0x1b8>
 4007ac0:	18 80 f9 20 	l.movhi r4,0xf920
 4007ac4:	a8 a4 00 0c 	l.ori r5,r4,0xc
 4007ac8:	9c 40 00 01 	l.addi r2,r0,0x1
 4007acc:	d8 05 10 00 	l.sb 0x0(r5),r2
 4007ad0:	18 a0 40 00 	l.movhi r5,0x4000
 4007ad4:	d4 04 28 00 	l.sw 0x0(r4),r5
 4007ad8:	18 80 50 02 	l.movhi r4,0x5002
 4007adc:	a8 84 1c 01 	l.ori r4,r4,0x1c01
 4007ae0:	d4 03 20 00 	l.sw 0x0(r3),r4
 4007ae4:	84 83 00 00 	l.lwz r4,0x0(r3)
 4007ae8:	18 40 00 02 	l.movhi r2,0x2
 4007aec:	e0 84 10 03 	l.and r4,r4,r2
 4007af0:	bc 24 00 00 	l.sfnei r4,0x0
 4007af4:	13 ff ff fc 	l.bf 4007ae4 <Sfls_Macronix+0x1f0>
 4007af8:	15 00 00 00 	l.nop 0x0
 4007afc:	18 60 f9 20 	l.movhi r3,0xf920
 4007b00:	9c 40 ff eb 	l.addi r2,r0,0xffffffeb
 4007b04:	a8 83 00 08 	l.ori r4,r3,0x8
 4007b08:	18 a0 00 7c 	l.movhi r5,0x7c
 4007b0c:	d8 04 10 02 	l.sb 0x2(r4),r2
 4007b10:	9c 40 00 38 	l.addi r2,r0,0x38
 4007b14:	a8 a5 a0 a0 	l.ori r5,r5,0xa0a0
 4007b18:	d8 04 10 03 	l.sb 0x3(r4),r2
 4007b1c:	a8 83 00 0c 	l.ori r4,r3,0xc
 4007b20:	a8 63 00 14 	l.ori r3,r3,0x14
 4007b24:	d4 04 28 00 	l.sw 0x0(r4),r5
 4007b28:	18 80 50 01 	l.movhi r4,0x5001
 4007b2c:	d4 03 20 00 	l.sw 0x0(r3),r4
 4007b30:	84 83 00 00 	l.lwz r4,0x0(r3)
 4007b34:	18 40 00 02 	l.movhi r2,0x2
 4007b38:	e0 84 10 03 	l.and r4,r4,r2
 4007b3c:	bc 24 00 00 	l.sfnei r4,0x0
 4007b40:	13 ff ff fc 	l.bf 4007b30 <Sfls_Macronix+0x23c>
 4007b44:	15 00 00 00 	l.nop 0x0
 4007b48:	18 60 06 00 	l.movhi r3,0x600
 4007b4c:	00 00 00 07 	l.j 4007b68 <Sfls_Macronix+0x274>
 4007b50:	a8 63 12 b8 	l.ori r3,r3,0x12b8
 4007b54:	18 60 06 00 	l.movhi r3,0x600
 4007b58:	00 00 00 04 	l.j 4007b68 <Sfls_Macronix+0x274>
 4007b5c:	a8 63 13 8a 	l.ori r3,r3,0x138a
 4007b60:	18 60 06 00 	l.movhi r3,0x600
 4007b64:	a8 63 13 9f 	l.ori r3,r3,0x139f
 4007b68:	9c 21 00 08 	l.addi r1,r1,0x8
 4007b6c:	85 21 ff fc 	l.lwz r9,0xfffffffc(r1)
 4007b70:	00 7f ea 6b 	l.j 600251c <_ecm_printf>
 4007b74:	84 41 ff f8 	l.lwz r2,0xfffffff8(r1)

04007b78 <Sfls_ISSI>:
 4007b78:	d7 e1 4f fc 	l.sw 0xfffffffc(r1),r9
 4007b7c:	d7 e1 17 f8 	l.sw 0xfffffff8(r1),r2
 4007b80:	a4 63 00 ff 	l.andi r3,r3,0xff
 4007b84:	9c 21 ff f8 	l.addi r1,r1,0xfffffff8
 4007b88:	bc 03 00 60 	l.sfeqi r3,0x60
 4007b8c:	0c 00 00 96 	l.bnf 4007de4 <Sfls_ISSI+0x26c>
 4007b90:	a4 84 00 ff 	l.andi r4,r4,0xff
 4007b94:	bc 04 00 17 	l.sfeqi r4,0x17
 4007b98:	10 00 00 06 	l.bf 4007bb0 <Sfls_ISSI+0x38>
 4007b9c:	bc 04 00 18 	l.sfeqi r4,0x18
 4007ba0:	0c 00 00 8e 	l.bnf 4007dd8 <Sfls_ISSI+0x260>
 4007ba4:	15 00 00 00 	l.nop 0x0
 4007ba8:	00 00 00 47 	l.j 4007cc4 <Sfls_ISSI+0x14c>
 4007bac:	18 60 06 00 	l.movhi r3,0x600
 4007bb0:	18 60 06 00 	l.movhi r3,0x600
 4007bb4:	9c 40 00 05 	l.addi r2,r0,0x5
 4007bb8:	04 7f ea 59 	l.jal 600251c <_ecm_printf>
 4007bbc:	a8 63 13 af 	l.ori r3,r3,0x13af
 4007bc0:	18 60 f9 20 	l.movhi r3,0xf920
 4007bc4:	a8 83 00 0c 	l.ori r4,r3,0xc
 4007bc8:	a8 63 00 14 	l.ori r3,r3,0x14
 4007bcc:	d8 04 10 00 	l.sb 0x0(r4),r2
 4007bd0:	18 80 50 02 	l.movhi r4,0x5002
 4007bd4:	a8 84 10 00 	l.ori r4,r4,0x1000
 4007bd8:	d4 03 20 00 	l.sw 0x0(r3),r4
 4007bdc:	84 a3 00 00 	l.lwz r5,0x0(r3)
 4007be0:	18 40 00 02 	l.movhi r2,0x2
 4007be4:	e0 a5 10 03 	l.and r5,r5,r2
 4007be8:	bc 25 00 00 	l.sfnei r5,0x0
 4007bec:	13 ff ff fc 	l.bf 4007bdc <Sfls_ISSI+0x64>
 4007bf0:	18 80 f9 20 	l.movhi r4,0xf920
 4007bf4:	a8 a4 00 04 	l.ori r5,r4,0x4
 4007bf8:	18 40 40 00 	l.movhi r2,0x4000
 4007bfc:	84 a5 00 00 	l.lwz r5,0x0(r5)
 4007c00:	e0 a5 10 03 	l.and r5,r5,r2
 4007c04:	bc 25 00 00 	l.sfnei r5,0x0
 4007c08:	10 00 00 1a 	l.bf 4007c70 <Sfls_ISSI+0xf8>
 4007c0c:	a8 84 00 0c 	l.ori r4,r4,0xc
 4007c10:	9c 40 00 06 	l.addi r2,r0,0x6
 4007c14:	d8 04 10 00 	l.sb 0x0(r4),r2
 4007c18:	18 80 50 02 	l.movhi r4,0x5002
 4007c1c:	d4 03 20 00 	l.sw 0x0(r3),r4
 4007c20:	84 a3 00 00 	l.lwz r5,0x0(r3)
 4007c24:	18 40 00 02 	l.movhi r2,0x2
 4007c28:	e0 a5 10 03 	l.and r5,r5,r2
 4007c2c:	bc 25 00 00 	l.sfnei r5,0x0
 4007c30:	13 ff ff fc 	l.bf 4007c20 <Sfls_ISSI+0xa8>
 4007c34:	18 80 f9 20 	l.movhi r4,0xf920
 4007c38:	a8 a4 00 0c 	l.ori r5,r4,0xc
 4007c3c:	9c 40 00 01 	l.addi r2,r0,0x1
 4007c40:	d8 05 10 00 	l.sb 0x0(r5),r2
 4007c44:	18 a0 40 00 	l.movhi r5,0x4000
 4007c48:	d4 04 28 00 	l.sw 0x0(r4),r5
 4007c4c:	18 80 50 02 	l.movhi r4,0x5002
 4007c50:	a8 84 1c 00 	l.ori r4,r4,0x1c00
 4007c54:	d4 03 20 00 	l.sw 0x0(r3),r4
 4007c58:	84 83 00 00 	l.lwz r4,0x0(r3)
 4007c5c:	18 40 00 02 	l.movhi r2,0x2
 4007c60:	e0 84 10 03 	l.and r4,r4,r2
 4007c64:	bc 24 00 00 	l.sfnei r4,0x0
 4007c68:	13 ff ff fc 	l.bf 4007c58 <Sfls_ISSI+0xe0>
 4007c6c:	15 00 00 00 	l.nop 0x0
 4007c70:	18 60 f9 20 	l.movhi r3,0xf920
 4007c74:	9c 40 ff eb 	l.addi r2,r0,0xffffffeb
 4007c78:	a8 83 00 08 	l.ori r4,r3,0x8
 4007c7c:	18 a0 00 7c 	l.movhi r5,0x7c
 4007c80:	d8 04 10 02 	l.sb 0x2(r4),r2
 4007c84:	9c 40 00 38 	l.addi r2,r0,0x38
 4007c88:	a8 a5 a0 20 	l.ori r5,r5,0xa020
 4007c8c:	d8 04 10 03 	l.sb 0x3(r4),r2
 4007c90:	a8 83 00 0c 	l.ori r4,r3,0xc
 4007c94:	a8 63 00 14 	l.ori r3,r3,0x14
 4007c98:	d4 04 28 00 	l.sw 0x0(r4),r5
 4007c9c:	18 80 50 01 	l.movhi r4,0x5001
 4007ca0:	d4 03 20 00 	l.sw 0x0(r3),r4
 4007ca4:	84 83 00 00 	l.lwz r4,0x0(r3)
 4007ca8:	18 40 00 02 	l.movhi r2,0x2
 4007cac:	e0 84 10 03 	l.and r4,r4,r2
 4007cb0:	bc 24 00 00 	l.sfnei r4,0x0
 4007cb4:	13 ff ff fc 	l.bf 4007ca4 <Sfls_ISSI+0x12c>
 4007cb8:	15 00 00 00 	l.nop 0x0
 4007cbc:	00 00 00 45 	l.j 4007dd0 <Sfls_ISSI+0x258>
 4007cc0:	18 60 06 00 	l.movhi r3,0x600
 4007cc4:	9c 40 00 05 	l.addi r2,r0,0x5
 4007cc8:	04 7f ea 15 	l.jal 600251c <_ecm_printf>
 4007ccc:	a8 63 13 be 	l.ori r3,r3,0x13be
 4007cd0:	18 60 f9 20 	l.movhi r3,0xf920
 4007cd4:	a8 83 00 0c 	l.ori r4,r3,0xc
 4007cd8:	a8 63 00 14 	l.ori r3,r3,0x14
 4007cdc:	d8 04 10 00 	l.sb 0x0(r4),r2
 4007ce0:	18 80 50 02 	l.movhi r4,0x5002
 4007ce4:	a8 84 10 00 	l.ori r4,r4,0x1000
 4007ce8:	d4 03 20 00 	l.sw 0x0(r3),r4
 4007cec:	84 a3 00 00 	l.lwz r5,0x0(r3)
 4007cf0:	18 40 00 02 	l.movhi r2,0x2
 4007cf4:	e0 a5 10 03 	l.and r5,r5,r2
 4007cf8:	bc 25 00 00 	l.sfnei r5,0x0
 4007cfc:	13 ff ff fc 	l.bf 4007cec <Sfls_ISSI+0x174>
 4007d00:	18 80 f9 20 	l.movhi r4,0xf920
 4007d04:	a8 a4 00 04 	l.ori r5,r4,0x4
 4007d08:	18 40 40 00 	l.movhi r2,0x4000
 4007d0c:	84 a5 00 00 	l.lwz r5,0x0(r5)
 4007d10:	e0 a5 10 03 	l.and r5,r5,r2
 4007d14:	bc 25 00 00 	l.sfnei r5,0x0
 4007d18:	10 00 00 1a 	l.bf 4007d80 <Sfls_ISSI+0x208>
 4007d1c:	a8 84 00 0c 	l.ori r4,r4,0xc
 4007d20:	9c 40 00 06 	l.addi r2,r0,0x6
 4007d24:	d8 04 10 00 	l.sb 0x0(r4),r2
 4007d28:	18 80 50 02 	l.movhi r4,0x5002
 4007d2c:	d4 03 20 00 	l.sw 0x0(r3),r4
 4007d30:	84 a3 00 00 	l.lwz r5,0x0(r3)
 4007d34:	18 40 00 02 	l.movhi r2,0x2
 4007d38:	e0 a5 10 03 	l.and r5,r5,r2
 4007d3c:	bc 25 00 00 	l.sfnei r5,0x0
 4007d40:	13 ff ff fc 	l.bf 4007d30 <Sfls_ISSI+0x1b8>
 4007d44:	18 80 f9 20 	l.movhi r4,0xf920
 4007d48:	a8 a4 00 0c 	l.ori r5,r4,0xc
 4007d4c:	9c 40 00 01 	l.addi r2,r0,0x1
 4007d50:	d8 05 10 00 	l.sb 0x0(r5),r2
 4007d54:	18 a0 40 00 	l.movhi r5,0x4000
 4007d58:	d4 04 28 00 	l.sw 0x0(r4),r5
 4007d5c:	18 80 50 02 	l.movhi r4,0x5002
 4007d60:	a8 84 1c 00 	l.ori r4,r4,0x1c00
 4007d64:	d4 03 20 00 	l.sw 0x0(r3),r4
 4007d68:	84 83 00 00 	l.lwz r4,0x0(r3)
 4007d6c:	18 40 00 02 	l.movhi r2,0x2
 4007d70:	e0 84 10 03 	l.and r4,r4,r2
 4007d74:	bc 24 00 00 	l.sfnei r4,0x0
 4007d78:	13 ff ff fc 	l.bf 4007d68 <Sfls_ISSI+0x1f0>
 4007d7c:	15 00 00 00 	l.nop 0x0
 4007d80:	18 60 f9 20 	l.movhi r3,0xf920
 4007d84:	9c 40 ff eb 	l.addi r2,r0,0xffffffeb
 4007d88:	a8 83 00 08 	l.ori r4,r3,0x8
 4007d8c:	18 a0 00 7c 	l.movhi r5,0x7c
 4007d90:	d8 04 10 02 	l.sb 0x2(r4),r2
 4007d94:	9c 40 00 38 	l.addi r2,r0,0x38
 4007d98:	a8 a5 a0 20 	l.ori r5,r5,0xa020
 4007d9c:	d8 04 10 03 	l.sb 0x3(r4),r2
 4007da0:	a8 83 00 0c 	l.ori r4,r3,0xc
 4007da4:	a8 63 00 14 	l.ori r3,r3,0x14
 4007da8:	d4 04 28 00 	l.sw 0x0(r4),r5
 4007dac:	18 80 50 01 	l.movhi r4,0x5001
 4007db0:	d4 03 20 00 	l.sw 0x0(r3),r4
 4007db4:	84 83 00 00 	l.lwz r4,0x0(r3)
 4007db8:	18 40 00 02 	l.movhi r2,0x2
 4007dbc:	e0 84 10 03 	l.and r4,r4,r2
 4007dc0:	bc 24 00 00 	l.sfnei r4,0x0
 4007dc4:	13 ff ff fc 	l.bf 4007db4 <Sfls_ISSI+0x23c>
 4007dc8:	15 00 00 00 	l.nop 0x0
 4007dcc:	18 60 06 00 	l.movhi r3,0x600
 4007dd0:	00 00 00 07 	l.j 4007dec <Sfls_ISSI+0x274>
 4007dd4:	a8 63 12 b8 	l.ori r3,r3,0x12b8
 4007dd8:	18 60 06 00 	l.movhi r3,0x600
 4007ddc:	00 00 00 04 	l.j 4007dec <Sfls_ISSI+0x274>
 4007de0:	a8 63 13 cd 	l.ori r3,r3,0x13cd
 4007de4:	18 60 06 00 	l.movhi r3,0x600
 4007de8:	a8 63 13 de 	l.ori r3,r3,0x13de
 4007dec:	9c 21 00 08 	l.addi r1,r1,0x8
 4007df0:	85 21 ff fc 	l.lwz r9,0xfffffffc(r1)
 4007df4:	00 7f e9 ca 	l.j 600251c <_ecm_printf>
 4007df8:	84 41 ff f8 	l.lwz r2,0xfffffff8(r1)

04007dfc <_ispm_text_dummy_code>:
 4007dfc:	15 00 00 00 	l.nop 0x0
 4007e00:	15 00 00 00 	l.nop 0x0
 4007e04:	15 00 00 00 	l.nop 0x0
 4007e08:	15 00 00 00 	l.nop 0x0
 4007e0c:	15 00 00 00 	l.nop 0x0
 4007e10:	15 00 00 00 	l.nop 0x0
 4007e14:	15 00 00 00 	l.nop 0x0
 4007e18:	15 00 00 00 	l.nop 0x0
 4007e1c:	15 00 00 00 	l.nop 0x0
 4007e20:	15 00 00 00 	l.nop 0x0
 4007e24:	15 00 00 00 	l.nop 0x0
 4007e28:	15 00 00 00 	l.nop 0x0
 4007e2c:	15 00 00 00 	l.nop 0x0
 4007e30:	15 00 00 00 	l.nop 0x0
 4007e34:	15 00 00 00 	l.nop 0x0
 4007e38:	15 00 00 00 	l.nop 0x0
 4007e3c:	00 00 00 00 	l.j 4007e3c <_ispm_text_dummy_code+0x40>

Disassembly of section .flag_data:

0600fff0 <_flash_dummy_code>:
 600fff0:	00 01 02 03 	l.j 60507fc <_flash_dummy_code+0x4080c>
 600fff4:	04 05 06 07 	l.jal 6151810 <_flash_dummy_code+0x141820>
 600fff8:	08 09 0a 0b 	.word 0x08090a0b
 600fffc:	0c 0d 0e 0f 	l.bnf 6353838 <_flash_dummy_code+0x343848>
