
/mnt/share/EN673_package_Ver0.1.5_180208/Code/en673_dev_rc015_dist/en673_dev_rc015_dist_0208/output/module/cpu0.or32:     file format elf32-or32


Disassembly of section .reset:

04000000 <__reset_s>:
 4000000:	00 0b 00 00 	l.j 42c0000 <__stack_s+0x2b8004>

04000004 <_lma_start>:
 4000004:	00 00 00 00 	l.j 4000004 <_lma_start>

04000008 <_reset_lma_s>:
 4000008:	06 01 00 00 	l.jal fc040008 <gptMsgDebug+0xc02b2d0>

0400000c <_reset_lma_e>:
 400000c:	06 01 0f a0 	l.jal fc043e8c <gptMsgDebug+0xc02f154>

04000010 <_text_lma_s>:
 4000010:	06 04 9d c0 	l.jal fc127710 <gptMsgDebug+0xc1129d8>

04000014 <_text_lma_e>:
 4000014:	06 09 f1 60 	l.jal fc27c594 <gptMsgDebug+0xc26785c>

04000018 <_ispm_text_lma_s>:
 4000018:	06 09 f1 60 	l.jal fc27c598 <gptMsgDebug+0xc267860>

0400001c <_ispm_text_lma_e>:
 400001c:	06 0a 2d a0 	l.jal fc28b69c <gptMsgDebug+0xc276964>

04000020 <_ispm_data_lma_s>:
 4000020:	06 0a 2d a0 	l.jal fc28b6a0 <gptMsgDebug+0xc276968>

04000024 <_ispm_data_lma_e>:
 4000024:	06 0a 3b e0 	l.jal fc28efa4 <gptMsgDebug+0xc27a26c>

04000028 <_rodata_lma_s>:
 4000028:	06 01 10 00 	l.jal fc044028 <gptMsgDebug+0xc02f2f0>

0400002c <_rodata_lma_e>:
 400002c:	06 04 9d c0 	l.jal fc12772c <gptMsgDebug+0xc1129f4>

04000030 <_data_lma_s>:
 4000030:	06 0a 3b e0 	l.jal fc28efb0 <gptMsgDebug+0xc27a278>

04000034 <_data_lma_e>:
 4000034:	06 0a 48 c0 	l.jal fc292334 <gptMsgDebug+0xc27d5fc>

04000038 <_reset_s>:
 4000038:	04 00 00 00 	l.jal 4000038 <_reset_s>

0400003c <_reset_e>:
 400003c:	04 00 0f a0 	l.jal 4003ebc <rtp_media_streamming+0x1c>

04000040 <_text_s>:
 4000040:	08 03 8d c0 	.word 0x08038dc0

04000044 <_text_e>:
 4000044:	08 08 e1 60 	.word 0x0808e160

04000048 <_ispm_text_s>:
 4000048:	04 00 10 00 	l.jal 4004048 <memp_malloc+0x44>

0400004c <_ispm_text_e>:
 400004c:	04 00 4c 40 	l.jal 401314c <__stack_s+0xb150>

04000050 <_ispm_data_s>:
 4000050:	04 00 4c 40 	l.jal 4013150 <__stack_s+0xb154>

04000054 <_ispm_data_e>:
 4000054:	04 00 5a 80 	l.jal 4016a54 <__stack_s+0xea58>

04000058 <_rodata_s>:
 4000058:	08 00 00 00 	.word 0x08000000

0400005c <_rodata_e>:
 400005c:	08 03 8d c0 	.word 0x08038dc0

04000060 <_data_s>:
 4000060:	08 08 e1 60 	.word 0x0808e160

04000064 <_data_e>:
 4000064:	08 08 ee 40 	.word 0x0808ee40

04000068 <_bss_s>:
 4000068:	08 08 ee 40 	.word 0x0808ee40

0400006c <_bss_e>:
 400006c:	08 0e 77 40 	.word 0x080e7740

04000070 <_stack_s>:
 4000070:	04 00 7f fc 	l.jal 4020060 <__stack_s+0x18064>

04000074 <_stack_e>:
 4000074:	04 00 5f fc 	l.jal 4018064 <__stack_s+0x10068>

04000078 <_gl_tst_val0>:
 4000078:	00 00 00 00 	l.j 4000078 <_gl_tst_val0>

0400007c <_gl_tst_val1>:
 400007c:	00 00 00 00 	l.j 400007c <_gl_tst_val1>

04000080 <_gl_tst_val2>:
 4000080:	00 00 00 00 	l.j 4000080 <_gl_tst_val2>

04000084 <_gl_tst_val3>:
 4000084:	00 00 00 00 	l.j 4000084 <_gl_tst_val3>

04000088 <_gl_tst_val4>:
 4000088:	00 00 00 00 	l.j 4000088 <_gl_tst_val4>

0400008c <_gl_tst_val5>:
 400008c:	00 00 00 00 	l.j 400008c <_gl_tst_val5>

04000090 <_gl_tst_val6>:
 4000090:	00 00 00 00 	l.j 4000090 <_gl_tst_val6>

04000094 <_gl_tst_val7>:
 4000094:	00 00 00 00 	l.j 4000094 <_gl_tst_val7>

04000098 <_heap_start>:
 4000098:	08 28 00 00 	.word 0x08280000

0400009c <_heap_end>:
 400009c:	08 33 ff fc 	.word 0x0833fffc
	...

04000100 <_reset>:
 4000100:	15 00 00 00 	l.nop 0x0
 4000104:	a4 00 00 00 	l.andi r0,r0,0x0
 4000108:	a4 20 00 00 	l.andi r1,r0,0x0
 400010c:	a4 40 00 00 	l.andi r2,r0,0x0
 4000110:	a4 60 00 00 	l.andi r3,r0,0x0
 4000114:	a4 80 00 00 	l.andi r4,r0,0x0
 4000118:	a4 a0 00 00 	l.andi r5,r0,0x0
 400011c:	a4 c0 00 00 	l.andi r6,r0,0x0
 4000120:	a4 e0 00 00 	l.andi r7,r0,0x0
 4000124:	a5 00 00 00 	l.andi r8,r0,0x0
 4000128:	a5 20 00 00 	l.andi r9,r0,0x0
 400012c:	a5 40 00 00 	l.andi r10,r0,0x0
 4000130:	a5 60 00 00 	l.andi r11,r0,0x0
 4000134:	a5 80 00 00 	l.andi r12,r0,0x0
 4000138:	a5 a0 00 00 	l.andi r13,r0,0x0
 400013c:	a5 c0 00 00 	l.andi r14,r0,0x0
 4000140:	a5 e0 00 00 	l.andi r15,r0,0x0
 4000144:	a6 00 00 00 	l.andi r16,r0,0x0
 4000148:	a6 20 00 00 	l.andi r17,r0,0x0
 400014c:	a6 40 00 00 	l.andi r18,r0,0x0
 4000150:	a6 60 00 00 	l.andi r19,r0,0x0
 4000154:	a6 80 00 00 	l.andi r20,r0,0x0
 4000158:	a6 a0 00 00 	l.andi r21,r0,0x0
 400015c:	a6 c0 00 00 	l.andi r22,r0,0x0
 4000160:	a6 e0 00 00 	l.andi r23,r0,0x0
 4000164:	a7 00 00 00 	l.andi r24,r0,0x0
 4000168:	a7 20 00 00 	l.andi r25,r0,0x0
 400016c:	a7 40 00 00 	l.andi r26,r0,0x0
 4000170:	a7 60 00 00 	l.andi r27,r0,0x0
 4000174:	a7 80 00 00 	l.andi r28,r0,0x0
 4000178:	a7 a0 00 00 	l.andi r29,r0,0x0
 400017c:	a7 c0 00 00 	l.andi r30,r0,0x0
 4000180:	a7 e0 00 00 	l.andi r31,r0,0x0
 4000184:	18 60 08 03 	l.movhi r3,0x803
 4000188:	a8 63 8d c0 	l.ori r3,r3,0x8dc0
 400018c:	44 00 18 00 	l.jr r3
 4000190:	15 00 00 00 	l.nop 0x0
 4000194:	15 00 00 00 	l.nop 0x0
 4000198:	15 00 00 00 	l.nop 0x0
 400019c:	15 00 00 00 	l.nop 0x0
 40001a0:	15 00 00 00 	l.nop 0x0
 40001a4:	15 00 00 00 	l.nop 0x0
 40001a8:	15 00 00 00 	l.nop 0x0
 40001ac:	15 00 00 00 	l.nop 0x0
 40001b0:	15 00 00 00 	l.nop 0x0
 40001b4:	15 00 00 00 	l.nop 0x0
	...
 4000200:	9c 21 ff 00 	l.addi r1,r1,0xffffff00
 4000204:	d4 01 48 1c 	l.sw 0x1c(r1),r9
 4000208:	04 00 03 15 	l.jal 4000e5c <_save_gpr>
 400020c:	15 00 00 00 	l.nop 0x0
 4000210:	b4 60 00 10 	l.mfspr r3,r0,0x10
 4000214:	b4 80 00 20 	l.mfspr r4,r0,0x20
 4000218:	04 00 03 7a 	l.jal 4001000 <default_xsr>
 400021c:	15 00 00 00 	l.nop 0x0
 4000220:	04 00 03 2e 	l.jal 4000ed8 <_restore_gpr>
 4000224:	15 00 00 00 	l.nop 0x0
 4000228:	85 21 00 1c 	l.lwz r9,0x1c(r1)
 400022c:	9c 21 01 00 	l.addi r1,r1,0x100
 4000230:	24 00 00 00 	l.rfe 
 4000234:	15 00 00 00 	l.nop 0x0
 4000238:	15 00 00 00 	l.nop 0x0
 400023c:	15 00 00 00 	l.nop 0x0
 4000240:	15 00 00 00 	l.nop 0x0
 4000244:	15 00 00 00 	l.nop 0x0
 4000248:	15 00 00 00 	l.nop 0x0
 400024c:	15 00 00 00 	l.nop 0x0
 4000250:	15 00 00 00 	l.nop 0x0
 4000254:	15 00 00 00 	l.nop 0x0
 4000258:	15 00 00 00 	l.nop 0x0
	...
 4000300:	9c 21 ff 00 	l.addi r1,r1,0xffffff00
 4000304:	d4 01 48 1c 	l.sw 0x1c(r1),r9
 4000308:	04 00 02 d5 	l.jal 4000e5c <_save_gpr>
 400030c:	15 00 00 00 	l.nop 0x0
 4000310:	b4 60 00 10 	l.mfspr r3,r0,0x10
 4000314:	b4 80 00 20 	l.mfspr r4,r0,0x20
 4000318:	04 00 03 3a 	l.jal 4001000 <default_xsr>
 400031c:	15 00 00 00 	l.nop 0x0
 4000320:	04 00 02 ee 	l.jal 4000ed8 <_restore_gpr>
 4000324:	15 00 00 00 	l.nop 0x0
 4000328:	85 21 00 1c 	l.lwz r9,0x1c(r1)
 400032c:	9c 21 01 00 	l.addi r1,r1,0x100
 4000330:	24 00 00 00 	l.rfe 
 4000334:	15 00 00 00 	l.nop 0x0
 4000338:	15 00 00 00 	l.nop 0x0
 400033c:	15 00 00 00 	l.nop 0x0
 4000340:	15 00 00 00 	l.nop 0x0
 4000344:	15 00 00 00 	l.nop 0x0
 4000348:	15 00 00 00 	l.nop 0x0
 400034c:	15 00 00 00 	l.nop 0x0
 4000350:	15 00 00 00 	l.nop 0x0
 4000354:	15 00 00 00 	l.nop 0x0
 4000358:	15 00 00 00 	l.nop 0x0
	...
 4000400:	9c 21 ff 00 	l.addi r1,r1,0xffffff00
 4000404:	d4 01 48 1c 	l.sw 0x1c(r1),r9
 4000408:	04 00 02 95 	l.jal 4000e5c <_save_gpr>
 400040c:	15 00 00 00 	l.nop 0x0
 4000410:	b4 60 00 10 	l.mfspr r3,r0,0x10
 4000414:	b4 80 00 20 	l.mfspr r4,r0,0x20
 4000418:	04 00 02 fa 	l.jal 4001000 <default_xsr>
 400041c:	15 00 00 00 	l.nop 0x0
 4000420:	04 00 02 ae 	l.jal 4000ed8 <_restore_gpr>
 4000424:	15 00 00 00 	l.nop 0x0
 4000428:	85 21 00 1c 	l.lwz r9,0x1c(r1)
 400042c:	9c 21 01 00 	l.addi r1,r1,0x100
 4000430:	24 00 00 00 	l.rfe 
 4000434:	15 00 00 00 	l.nop 0x0
 4000438:	15 00 00 00 	l.nop 0x0
 400043c:	15 00 00 00 	l.nop 0x0
 4000440:	15 00 00 00 	l.nop 0x0
 4000444:	15 00 00 00 	l.nop 0x0
 4000448:	15 00 00 00 	l.nop 0x0
 400044c:	15 00 00 00 	l.nop 0x0
 4000450:	15 00 00 00 	l.nop 0x0
 4000454:	15 00 00 00 	l.nop 0x0
 4000458:	15 00 00 00 	l.nop 0x0
	...
 4000500:	9c 21 ff 00 	l.addi r1,r1,0xffffff00
 4000504:	d4 01 48 1c 	l.sw 0x1c(r1),r9
 4000508:	04 00 02 55 	l.jal 4000e5c <_save_gpr>
 400050c:	15 00 00 00 	l.nop 0x0
 4000510:	b4 60 00 10 	l.mfspr r3,r0,0x10
 4000514:	b4 80 00 20 	l.mfspr r4,r0,0x20
 4000518:	04 00 02 ba 	l.jal 4001000 <default_xsr>
 400051c:	15 00 00 00 	l.nop 0x0
 4000520:	04 00 02 6e 	l.jal 4000ed8 <_restore_gpr>
 4000524:	15 00 00 00 	l.nop 0x0
 4000528:	85 21 00 1c 	l.lwz r9,0x1c(r1)
 400052c:	9c 21 01 00 	l.addi r1,r1,0x100
 4000530:	24 00 00 00 	l.rfe 
 4000534:	15 00 00 00 	l.nop 0x0
 4000538:	15 00 00 00 	l.nop 0x0
 400053c:	15 00 00 00 	l.nop 0x0
 4000540:	15 00 00 00 	l.nop 0x0
 4000544:	15 00 00 00 	l.nop 0x0
 4000548:	15 00 00 00 	l.nop 0x0
 400054c:	15 00 00 00 	l.nop 0x0
 4000550:	15 00 00 00 	l.nop 0x0
 4000554:	15 00 00 00 	l.nop 0x0
 4000558:	15 00 00 00 	l.nop 0x0
	...
 4000600:	9c 21 ff 00 	l.addi r1,r1,0xffffff00
 4000604:	d4 01 48 1c 	l.sw 0x1c(r1),r9
 4000608:	04 00 02 15 	l.jal 4000e5c <_save_gpr>
 400060c:	15 00 00 00 	l.nop 0x0
 4000610:	b4 60 00 10 	l.mfspr r3,r0,0x10
 4000614:	b4 80 00 20 	l.mfspr r4,r0,0x20
 4000618:	04 00 02 7a 	l.jal 4001000 <default_xsr>
 400061c:	15 00 00 00 	l.nop 0x0
 4000620:	04 00 02 2e 	l.jal 4000ed8 <_restore_gpr>
 4000624:	15 00 00 00 	l.nop 0x0
 4000628:	85 21 00 1c 	l.lwz r9,0x1c(r1)
 400062c:	9c 21 01 00 	l.addi r1,r1,0x100
 4000630:	24 00 00 00 	l.rfe 
 4000634:	15 00 00 00 	l.nop 0x0
 4000638:	15 00 00 00 	l.nop 0x0
 400063c:	15 00 00 00 	l.nop 0x0
 4000640:	15 00 00 00 	l.nop 0x0
 4000644:	15 00 00 00 	l.nop 0x0
 4000648:	15 00 00 00 	l.nop 0x0
 400064c:	15 00 00 00 	l.nop 0x0
 4000650:	15 00 00 00 	l.nop 0x0
 4000654:	15 00 00 00 	l.nop 0x0
 4000658:	15 00 00 00 	l.nop 0x0
	...
 4000700:	9c 21 ff 00 	l.addi r1,r1,0xffffff00
 4000704:	d4 01 48 1c 	l.sw 0x1c(r1),r9
 4000708:	04 00 01 d5 	l.jal 4000e5c <_save_gpr>
 400070c:	15 00 00 00 	l.nop 0x0
 4000710:	b4 60 00 10 	l.mfspr r3,r0,0x10
 4000714:	b4 80 00 20 	l.mfspr r4,r0,0x20
 4000718:	04 00 02 3a 	l.jal 4001000 <default_xsr>
 400071c:	15 00 00 00 	l.nop 0x0
 4000720:	04 00 01 ee 	l.jal 4000ed8 <_restore_gpr>
 4000724:	15 00 00 00 	l.nop 0x0
 4000728:	85 21 00 1c 	l.lwz r9,0x1c(r1)
 400072c:	9c 21 01 00 	l.addi r1,r1,0x100
 4000730:	24 00 00 00 	l.rfe 
 4000734:	15 00 00 00 	l.nop 0x0
 4000738:	15 00 00 00 	l.nop 0x0
 400073c:	15 00 00 00 	l.nop 0x0
 4000740:	15 00 00 00 	l.nop 0x0
 4000744:	15 00 00 00 	l.nop 0x0
 4000748:	15 00 00 00 	l.nop 0x0
 400074c:	15 00 00 00 	l.nop 0x0
 4000750:	15 00 00 00 	l.nop 0x0
 4000754:	15 00 00 00 	l.nop 0x0
 4000758:	15 00 00 00 	l.nop 0x0
	...
 4000800:	9c 21 ff 00 	l.addi r1,r1,0xffffff00
 4000804:	d4 01 48 1c 	l.sw 0x1c(r1),r9
 4000808:	04 00 01 95 	l.jal 4000e5c <_save_gpr>
 400080c:	15 00 00 00 	l.nop 0x0
 4000810:	b4 60 00 10 	l.mfspr r3,r0,0x10
 4000814:	b4 80 00 20 	l.mfspr r4,r0,0x20
 4000818:	04 00 01 fa 	l.jal 4001000 <default_xsr>
 400081c:	15 00 00 00 	l.nop 0x0
 4000820:	04 00 01 ae 	l.jal 4000ed8 <_restore_gpr>
 4000824:	15 00 00 00 	l.nop 0x0
 4000828:	85 21 00 1c 	l.lwz r9,0x1c(r1)
 400082c:	9c 21 01 00 	l.addi r1,r1,0x100
 4000830:	24 00 00 00 	l.rfe 
 4000834:	15 00 00 00 	l.nop 0x0
 4000838:	15 00 00 00 	l.nop 0x0
 400083c:	15 00 00 00 	l.nop 0x0
 4000840:	15 00 00 00 	l.nop 0x0
 4000844:	15 00 00 00 	l.nop 0x0
 4000848:	15 00 00 00 	l.nop 0x0
 400084c:	15 00 00 00 	l.nop 0x0
 4000850:	15 00 00 00 	l.nop 0x0
 4000854:	15 00 00 00 	l.nop 0x0
 4000858:	15 00 00 00 	l.nop 0x0
	...
 4000900:	9c 21 ff 00 	l.addi r1,r1,0xffffff00
 4000904:	d4 01 48 1c 	l.sw 0x1c(r1),r9
 4000908:	04 00 01 55 	l.jal 4000e5c <_save_gpr>
 400090c:	15 00 00 00 	l.nop 0x0
 4000910:	b4 60 00 10 	l.mfspr r3,r0,0x10
 4000914:	b4 80 00 20 	l.mfspr r4,r0,0x20
 4000918:	04 00 01 ba 	l.jal 4001000 <default_xsr>
 400091c:	15 00 00 00 	l.nop 0x0
 4000920:	04 00 01 6e 	l.jal 4000ed8 <_restore_gpr>
 4000924:	15 00 00 00 	l.nop 0x0
 4000928:	85 21 00 1c 	l.lwz r9,0x1c(r1)
 400092c:	9c 21 01 00 	l.addi r1,r1,0x100
 4000930:	24 00 00 00 	l.rfe 
 4000934:	15 00 00 00 	l.nop 0x0
 4000938:	15 00 00 00 	l.nop 0x0
 400093c:	15 00 00 00 	l.nop 0x0
 4000940:	15 00 00 00 	l.nop 0x0
 4000944:	15 00 00 00 	l.nop 0x0
 4000948:	15 00 00 00 	l.nop 0x0
 400094c:	15 00 00 00 	l.nop 0x0
 4000950:	15 00 00 00 	l.nop 0x0
 4000954:	15 00 00 00 	l.nop 0x0
 4000958:	15 00 00 00 	l.nop 0x0
	...
 4000a00:	9c 21 ff 00 	l.addi r1,r1,0xffffff00
 4000a04:	d4 01 48 1c 	l.sw 0x1c(r1),r9
 4000a08:	04 00 01 15 	l.jal 4000e5c <_save_gpr>
 4000a0c:	15 00 00 00 	l.nop 0x0
 4000a10:	b4 60 00 10 	l.mfspr r3,r0,0x10
 4000a14:	b4 80 00 20 	l.mfspr r4,r0,0x20
 4000a18:	04 00 01 7a 	l.jal 4001000 <default_xsr>
 4000a1c:	15 00 00 00 	l.nop 0x0
 4000a20:	04 00 01 2e 	l.jal 4000ed8 <_restore_gpr>
 4000a24:	15 00 00 00 	l.nop 0x0
 4000a28:	85 21 00 1c 	l.lwz r9,0x1c(r1)
 4000a2c:	9c 21 01 00 	l.addi r1,r1,0x100
 4000a30:	24 00 00 00 	l.rfe 
 4000a34:	15 00 00 00 	l.nop 0x0
 4000a38:	15 00 00 00 	l.nop 0x0
 4000a3c:	15 00 00 00 	l.nop 0x0
 4000a40:	15 00 00 00 	l.nop 0x0
 4000a44:	15 00 00 00 	l.nop 0x0
 4000a48:	15 00 00 00 	l.nop 0x0
 4000a4c:	15 00 00 00 	l.nop 0x0
 4000a50:	15 00 00 00 	l.nop 0x0
 4000a54:	15 00 00 00 	l.nop 0x0
 4000a58:	15 00 00 00 	l.nop 0x0
	...
 4000b00:	9c 21 ff 00 	l.addi r1,r1,0xffffff00
 4000b04:	d4 01 48 1c 	l.sw 0x1c(r1),r9
 4000b08:	04 00 00 d5 	l.jal 4000e5c <_save_gpr>
 4000b0c:	15 00 00 00 	l.nop 0x0
 4000b10:	b4 60 00 10 	l.mfspr r3,r0,0x10
 4000b14:	b4 80 00 20 	l.mfspr r4,r0,0x20
 4000b18:	04 00 01 3a 	l.jal 4001000 <default_xsr>
 4000b1c:	15 00 00 00 	l.nop 0x0
 4000b20:	04 00 00 ee 	l.jal 4000ed8 <_restore_gpr>
 4000b24:	15 00 00 00 	l.nop 0x0
 4000b28:	85 21 00 1c 	l.lwz r9,0x1c(r1)
 4000b2c:	9c 21 01 00 	l.addi r1,r1,0x100
 4000b30:	24 00 00 00 	l.rfe 
 4000b34:	15 00 00 00 	l.nop 0x0
 4000b38:	15 00 00 00 	l.nop 0x0
 4000b3c:	15 00 00 00 	l.nop 0x0
 4000b40:	15 00 00 00 	l.nop 0x0
 4000b44:	15 00 00 00 	l.nop 0x0
 4000b48:	15 00 00 00 	l.nop 0x0
 4000b4c:	15 00 00 00 	l.nop 0x0
 4000b50:	15 00 00 00 	l.nop 0x0
 4000b54:	15 00 00 00 	l.nop 0x0
 4000b58:	15 00 00 00 	l.nop 0x0
	...
 4000c00:	9c 21 ff 00 	l.addi r1,r1,0xffffff00
 4000c04:	d4 01 48 1c 	l.sw 0x1c(r1),r9
 4000c08:	04 00 00 95 	l.jal 4000e5c <_save_gpr>
 4000c0c:	15 00 00 00 	l.nop 0x0
 4000c10:	b4 60 00 10 	l.mfspr r3,r0,0x10
 4000c14:	b4 80 00 20 	l.mfspr r4,r0,0x20
 4000c18:	04 00 00 fa 	l.jal 4001000 <default_xsr>
 4000c1c:	15 00 00 00 	l.nop 0x0
 4000c20:	04 00 00 ae 	l.jal 4000ed8 <_restore_gpr>
 4000c24:	15 00 00 00 	l.nop 0x0
 4000c28:	85 21 00 1c 	l.lwz r9,0x1c(r1)
 4000c2c:	9c 21 01 00 	l.addi r1,r1,0x100
 4000c30:	24 00 00 00 	l.rfe 
 4000c34:	15 00 00 00 	l.nop 0x0
 4000c38:	15 00 00 00 	l.nop 0x0
 4000c3c:	15 00 00 00 	l.nop 0x0
 4000c40:	15 00 00 00 	l.nop 0x0
 4000c44:	15 00 00 00 	l.nop 0x0
 4000c48:	15 00 00 00 	l.nop 0x0
 4000c4c:	15 00 00 00 	l.nop 0x0
 4000c50:	15 00 00 00 	l.nop 0x0
 4000c54:	15 00 00 00 	l.nop 0x0
 4000c58:	15 00 00 00 	l.nop 0x0
	...
 4000d00:	9c 21 ff 00 	l.addi r1,r1,0xffffff00
 4000d04:	d4 01 48 1c 	l.sw 0x1c(r1),r9
 4000d08:	04 00 00 55 	l.jal 4000e5c <_save_gpr>
 4000d0c:	15 00 00 00 	l.nop 0x0
 4000d10:	b4 60 00 10 	l.mfspr r3,r0,0x10
 4000d14:	b4 80 00 20 	l.mfspr r4,r0,0x20
 4000d18:	04 00 00 ba 	l.jal 4001000 <default_xsr>
 4000d1c:	15 00 00 00 	l.nop 0x0
 4000d20:	04 00 00 6e 	l.jal 4000ed8 <_restore_gpr>
 4000d24:	15 00 00 00 	l.nop 0x0
 4000d28:	85 21 00 1c 	l.lwz r9,0x1c(r1)
 4000d2c:	9c 21 01 00 	l.addi r1,r1,0x100
 4000d30:	24 00 00 00 	l.rfe 
 4000d34:	15 00 00 00 	l.nop 0x0
 4000d38:	15 00 00 00 	l.nop 0x0
 4000d3c:	15 00 00 00 	l.nop 0x0
 4000d40:	15 00 00 00 	l.nop 0x0
 4000d44:	15 00 00 00 	l.nop 0x0
 4000d48:	15 00 00 00 	l.nop 0x0
 4000d4c:	15 00 00 00 	l.nop 0x0
 4000d50:	15 00 00 00 	l.nop 0x0
 4000d54:	15 00 00 00 	l.nop 0x0
 4000d58:	15 00 00 00 	l.nop 0x0
	...
 4000e00:	9c 21 ff 00 	l.addi r1,r1,0xffffff00
 4000e04:	d4 01 48 1c 	l.sw 0x1c(r1),r9
 4000e08:	04 00 00 15 	l.jal 4000e5c <_save_gpr>
 4000e0c:	15 00 00 00 	l.nop 0x0
 4000e10:	b4 60 00 10 	l.mfspr r3,r0,0x10
 4000e14:	b4 80 00 20 	l.mfspr r4,r0,0x20
 4000e18:	04 00 00 7a 	l.jal 4001000 <default_xsr>
 4000e1c:	15 00 00 00 	l.nop 0x0
 4000e20:	04 00 00 2e 	l.jal 4000ed8 <_restore_gpr>
 4000e24:	15 00 00 00 	l.nop 0x0
 4000e28:	85 21 00 1c 	l.lwz r9,0x1c(r1)
 4000e2c:	9c 21 01 00 	l.addi r1,r1,0x100
 4000e30:	24 00 00 00 	l.rfe 
 4000e34:	15 00 00 00 	l.nop 0x0
 4000e38:	15 00 00 00 	l.nop 0x0
 4000e3c:	15 00 00 00 	l.nop 0x0
 4000e40:	15 00 00 00 	l.nop 0x0
 4000e44:	15 00 00 00 	l.nop 0x0
 4000e48:	15 00 00 00 	l.nop 0x0
 4000e4c:	15 00 00 00 	l.nop 0x0
 4000e50:	15 00 00 00 	l.nop 0x0
 4000e54:	15 00 00 00 	l.nop 0x0
 4000e58:	15 00 00 00 	l.nop 0x0

04000e5c <_save_gpr>:
 4000e5c:	d4 01 10 00 	l.sw 0x0(r1),r2
 4000e60:	d4 01 18 04 	l.sw 0x4(r1),r3
 4000e64:	d4 01 20 08 	l.sw 0x8(r1),r4
 4000e68:	d4 01 28 0c 	l.sw 0xc(r1),r5
 4000e6c:	d4 01 30 10 	l.sw 0x10(r1),r6
 4000e70:	d4 01 38 14 	l.sw 0x14(r1),r7
 4000e74:	d4 01 40 18 	l.sw 0x18(r1),r8
 4000e78:	d4 01 50 20 	l.sw 0x20(r1),r10
 4000e7c:	d4 01 58 24 	l.sw 0x24(r1),r11
 4000e80:	d4 01 60 28 	l.sw 0x28(r1),r12
 4000e84:	d4 01 68 2c 	l.sw 0x2c(r1),r13
 4000e88:	d4 01 70 30 	l.sw 0x30(r1),r14
 4000e8c:	d4 01 78 34 	l.sw 0x34(r1),r15
 4000e90:	d4 01 80 38 	l.sw 0x38(r1),r16
 4000e94:	d4 01 88 3c 	l.sw 0x3c(r1),r17
 4000e98:	d4 01 90 40 	l.sw 0x40(r1),r18
 4000e9c:	d4 01 98 44 	l.sw 0x44(r1),r19
 4000ea0:	d4 01 a0 48 	l.sw 0x48(r1),r20
 4000ea4:	d4 01 a8 4c 	l.sw 0x4c(r1),r21
 4000ea8:	d4 01 b0 50 	l.sw 0x50(r1),r22
 4000eac:	d4 01 b8 54 	l.sw 0x54(r1),r23
 4000eb0:	d4 01 c0 58 	l.sw 0x58(r1),r24
 4000eb4:	d4 01 c8 5c 	l.sw 0x5c(r1),r25
 4000eb8:	d4 01 d0 60 	l.sw 0x60(r1),r26
 4000ebc:	d4 01 d8 64 	l.sw 0x64(r1),r27
 4000ec0:	d4 01 e0 68 	l.sw 0x68(r1),r28
 4000ec4:	d4 01 e8 6c 	l.sw 0x6c(r1),r29
 4000ec8:	d4 01 f0 70 	l.sw 0x70(r1),r30
 4000ecc:	d4 01 f8 74 	l.sw 0x74(r1),r31
 4000ed0:	44 00 48 00 	l.jr r9
 4000ed4:	15 00 00 00 	l.nop 0x0

04000ed8 <_restore_gpr>:
 4000ed8:	87 e1 00 74 	l.lwz r31,0x74(r1)
 4000edc:	87 c1 00 70 	l.lwz r30,0x70(r1)
 4000ee0:	87 a1 00 6c 	l.lwz r29,0x6c(r1)
 4000ee4:	87 81 00 68 	l.lwz r28,0x68(r1)
 4000ee8:	87 61 00 64 	l.lwz r27,0x64(r1)
 4000eec:	87 41 00 60 	l.lwz r26,0x60(r1)
 4000ef0:	87 21 00 5c 	l.lwz r25,0x5c(r1)
 4000ef4:	87 01 00 58 	l.lwz r24,0x58(r1)
 4000ef8:	86 e1 00 54 	l.lwz r23,0x54(r1)
 4000efc:	86 c1 00 50 	l.lwz r22,0x50(r1)
 4000f00:	86 a1 00 4c 	l.lwz r21,0x4c(r1)
 4000f04:	86 81 00 48 	l.lwz r20,0x48(r1)
 4000f08:	86 61 00 44 	l.lwz r19,0x44(r1)
 4000f0c:	86 41 00 40 	l.lwz r18,0x40(r1)
 4000f10:	86 21 00 3c 	l.lwz r17,0x3c(r1)
 4000f14:	86 01 00 38 	l.lwz r16,0x38(r1)
 4000f18:	85 e1 00 34 	l.lwz r15,0x34(r1)
 4000f1c:	85 c1 00 30 	l.lwz r14,0x30(r1)
 4000f20:	85 a1 00 2c 	l.lwz r13,0x2c(r1)
 4000f24:	85 81 00 28 	l.lwz r12,0x28(r1)
 4000f28:	85 61 00 24 	l.lwz r11,0x24(r1)
 4000f2c:	85 41 00 20 	l.lwz r10,0x20(r1)
 4000f30:	85 01 00 18 	l.lwz r8,0x18(r1)
 4000f34:	84 e1 00 14 	l.lwz r7,0x14(r1)
 4000f38:	84 c1 00 10 	l.lwz r6,0x10(r1)
 4000f3c:	84 a1 00 0c 	l.lwz r5,0xc(r1)
 4000f40:	84 81 00 08 	l.lwz r4,0x8(r1)
 4000f44:	84 61 00 04 	l.lwz r3,0x4(r1)
 4000f48:	84 41 00 00 	l.lwz r2,0x0(r1)
 4000f4c:	44 00 48 00 	l.jr r9
 4000f50:	15 00 00 00 	l.nop 0x0

04000f54 <_reset_dummy_code>:
 4000f54:	15 00 00 00 	l.nop 0x0
 4000f58:	15 00 00 00 	l.nop 0x0
 4000f5c:	15 00 00 00 	l.nop 0x0
 4000f60:	15 00 00 00 	l.nop 0x0
 4000f64:	15 00 00 00 	l.nop 0x0
 4000f68:	15 00 00 00 	l.nop 0x0
 4000f6c:	15 00 00 00 	l.nop 0x0
 4000f70:	15 00 00 00 	l.nop 0x0
 4000f74:	15 00 00 00 	l.nop 0x0
 4000f78:	15 00 00 00 	l.nop 0x0
 4000f7c:	15 00 00 00 	l.nop 0x0
 4000f80:	15 00 00 00 	l.nop 0x0
 4000f84:	15 00 00 00 	l.nop 0x0
 4000f88:	15 00 00 00 	l.nop 0x0
 4000f8c:	15 00 00 00 	l.nop 0x0
 4000f90:	15 00 00 00 	l.nop 0x0
	...

Disassembly of section .text:

08038dc0 <__text_s>:
 8038dc0:	a8 20 40 01 	l.ori r1,r0,0x4001
 8038dc4:	c0 00 08 11 	l.mtspr r0,r1,0x11
 8038dc8:	c1 40 00 00 	l.mtspr r0,r0,0x5000
 8038dcc:	18 20 04 00 	l.movhi r1,0x400
 8038dd0:	a8 21 7f fc 	l.ori r1,r1,0x7ffc
 8038dd4:	04 00 00 0f 	l.jal 8038e10 <_enable_icache>
 8038dd8:	15 00 00 00 	l.nop 0x0
 8038ddc:	04 00 00 42 	l.jal 8038ee4 <_enable_dcache>
 8038de0:	15 00 00 00 	l.nop 0x0
 8038de4:	18 60 08 03 	l.movhi r3,0x803
 8038de8:	a8 63 91 64 	l.ori r3,r3,0x9164
 8038dec:	48 00 18 00 	l.jalr r3
 8038df0:	15 00 00 00 	l.nop 0x0
 8038df4:	e0 60 00 04 	l.or r3,r0,r0
 8038df8:	e0 80 00 04 	l.or r4,r0,r0
 8038dfc:	06 ff 2a 82 	l.jal 4003804 <main>
 8038e00:	15 00 00 00 	l.nop 0x0
 8038e04:	9c 6b 00 00 	l.addi r3,r11,0x0
 8038e08:	04 00 04 89 	l.jal 803a02c <exit>
 8038e0c:	15 00 00 00 	l.nop 0x0

08038e10 <_enable_icache>:
 8038e10:	9c 21 ff e8 	l.addi r1,r1,0xffffffe8
 8038e14:	d4 01 18 00 	l.sw 0x0(r1),r3
 8038e18:	d4 01 20 04 	l.sw 0x4(r1),r4
 8038e1c:	d4 01 28 08 	l.sw 0x8(r1),r5
 8038e20:	d4 01 30 0c 	l.sw 0xc(r1),r6
 8038e24:	d4 01 38 10 	l.sw 0x10(r1),r7
 8038e28:	d4 01 70 14 	l.sw 0x14(r1),r14
 8038e2c:	b4 60 00 01 	l.mfspr r3,r0,0x1
 8038e30:	a4 83 00 04 	l.andi r4,r3,0x4
 8038e34:	e4 04 00 00 	l.sfeq r4,r0
 8038e38:	10 00 00 22 	l.bf 8038ec0 <_enable_icache_end>
 8038e3c:	15 00 00 00 	l.nop 0x0
 8038e40:	b4 c0 00 11 	l.mfspr r6,r0,0x11
 8038e44:	9c a0 ff ff 	l.addi r5,r0,0xffffffff
 8038e48:	ac a5 00 10 	l.xori r5,r5,0x10
 8038e4c:	e0 a6 28 03 	l.and r5,r6,r5
 8038e50:	c0 00 28 11 	l.mtspr r0,r5,0x11
 8038e54:	b4 60 00 06 	l.mfspr r3,r0,0x6
 8038e58:	a4 83 00 80 	l.andi r4,r3,0x80
 8038e5c:	b8 a4 00 47 	l.srli r5,r4,0x7
 8038e60:	a8 c0 00 10 	l.ori r6,r0,0x10
 8038e64:	e1 c6 28 08 	l.sll r14,r6,r5
 8038e68:	a4 83 00 78 	l.andi r4,r3,0x78
 8038e6c:	b8 a4 00 43 	l.srli r5,r4,0x3
 8038e70:	a8 c0 00 01 	l.ori r6,r0,0x1
 8038e74:	e0 e6 28 08 	l.sll r7,r6,r5
 8038e78:	9c c0 00 00 	l.addi r6,r0,0x0
 8038e7c:	e0 ae 28 08 	l.sll r5,r14,r5

08038e80 <_ic_loop>:
 8038e80:	c0 80 30 02 	l.mtspr r0,r6,0x2002
 8038e84:	e4 26 28 00 	l.sfne r6,r5
 8038e88:	13 ff ff fe 	l.bf 8038e80 <_ic_loop>
 8038e8c:	e0 c6 70 00 	l.add r6,r6,r14
 8038e90:	b4 c0 00 11 	l.mfspr r6,r0,0x11
 8038e94:	a8 c6 00 10 	l.ori r6,r6,0x10
 8038e98:	c0 00 30 11 	l.mtspr r0,r6,0x11
 8038e9c:	15 00 00 00 	l.nop 0x0
 8038ea0:	15 00 00 00 	l.nop 0x0
 8038ea4:	15 00 00 00 	l.nop 0x0
 8038ea8:	15 00 00 00 	l.nop 0x0
 8038eac:	15 00 00 00 	l.nop 0x0
 8038eb0:	15 00 00 00 	l.nop 0x0
 8038eb4:	15 00 00 00 	l.nop 0x0
 8038eb8:	15 00 00 00 	l.nop 0x0
 8038ebc:	15 00 00 00 	l.nop 0x0

08038ec0 <_enable_icache_end>:
 8038ec0:	85 c1 00 14 	l.lwz r14,0x14(r1)
 8038ec4:	84 e1 00 10 	l.lwz r7,0x10(r1)
 8038ec8:	84 c1 00 0c 	l.lwz r6,0xc(r1)
 8038ecc:	84 a1 00 08 	l.lwz r5,0x8(r1)
 8038ed0:	84 81 00 04 	l.lwz r4,0x4(r1)
 8038ed4:	84 61 00 00 	l.lwz r3,0x0(r1)
 8038ed8:	9c 21 00 18 	l.addi r1,r1,0x18
 8038edc:	44 00 48 00 	l.jr r9
 8038ee0:	15 00 00 00 	l.nop 0x0

08038ee4 <_enable_dcache>:
 8038ee4:	9c 21 ff e8 	l.addi r1,r1,0xffffffe8
 8038ee8:	d4 01 18 00 	l.sw 0x0(r1),r3
 8038eec:	d4 01 20 04 	l.sw 0x4(r1),r4
 8038ef0:	d4 01 28 08 	l.sw 0x8(r1),r5
 8038ef4:	d4 01 30 0c 	l.sw 0xc(r1),r6
 8038ef8:	d4 01 38 10 	l.sw 0x10(r1),r7
 8038efc:	d4 01 70 14 	l.sw 0x14(r1),r14
 8038f00:	b4 60 00 01 	l.mfspr r3,r0,0x1
 8038f04:	a4 83 00 02 	l.andi r4,r3,0x2
 8038f08:	e4 04 00 00 	l.sfeq r4,r0
 8038f0c:	10 00 00 19 	l.bf 8038f70 <_enable_dcache_end>
 8038f10:	15 00 00 00 	l.nop 0x0
 8038f14:	b4 c0 00 11 	l.mfspr r6,r0,0x11
 8038f18:	9c a0 ff ff 	l.addi r5,r0,0xffffffff
 8038f1c:	ac a5 00 08 	l.xori r5,r5,0x8
 8038f20:	e0 a6 28 03 	l.and r5,r6,r5
 8038f24:	c0 00 28 11 	l.mtspr r0,r5,0x11
 8038f28:	b4 60 00 05 	l.mfspr r3,r0,0x5
 8038f2c:	a4 83 00 80 	l.andi r4,r3,0x80
 8038f30:	b8 a4 00 47 	l.srli r5,r4,0x7
 8038f34:	a8 c0 00 10 	l.ori r6,r0,0x10
 8038f38:	e1 c6 28 08 	l.sll r14,r6,r5
 8038f3c:	a4 83 00 78 	l.andi r4,r3,0x78
 8038f40:	b8 a4 00 43 	l.srli r5,r4,0x3
 8038f44:	a8 c0 00 01 	l.ori r6,r0,0x1
 8038f48:	e0 e6 28 08 	l.sll r7,r6,r5
 8038f4c:	9c c0 00 00 	l.addi r6,r0,0x0
 8038f50:	e0 ae 28 08 	l.sll r5,r14,r5

08038f54 <_dc_loop>:
 8038f54:	c0 60 30 03 	l.mtspr r0,r6,0x1803
 8038f58:	e4 26 28 00 	l.sfne r6,r5
 8038f5c:	13 ff ff fe 	l.bf 8038f54 <_dc_loop>
 8038f60:	e0 c6 70 00 	l.add r6,r6,r14
 8038f64:	b4 c0 00 11 	l.mfspr r6,r0,0x11
 8038f68:	a8 c6 00 08 	l.ori r6,r6,0x8
 8038f6c:	c0 00 30 11 	l.mtspr r0,r6,0x11

08038f70 <_enable_dcache_end>:
 8038f70:	85 c1 00 14 	l.lwz r14,0x14(r1)
 8038f74:	84 e1 00 10 	l.lwz r7,0x10(r1)
 8038f78:	84 c1 00 0c 	l.lwz r6,0xc(r1)
 8038f7c:	84 a1 00 08 	l.lwz r5,0x8(r1)
 8038f80:	84 81 00 04 	l.lwz r4,0x4(r1)
 8038f84:	84 61 00 00 	l.lwz r3,0x0(r1)
 8038f88:	9c 21 00 18 	l.addi r1,r1,0x18
 8038f8c:	44 00 48 00 	l.jr r9
 8038f90:	15 00 00 00 	l.nop 0x0

08038f94 <_itof>:
 8038f94:	c9 63 00 04 	lf.itof.s r11,r3
 8038f98:	44 00 48 00 	l.jr r9
 8038f9c:	15 00 00 00 	l.nop 0x0

08038fa0 <_ftoi>:
 8038fa0:	c9 63 00 05 	lf.ftoi.s r11,r3
 8038fa4:	44 00 48 00 	l.jr r9
 8038fa8:	15 00 00 00 	l.nop 0x0

08038fac <_fadd>:
 8038fac:	c9 63 20 00 	lf.add.s r11,r3,r4
 8038fb0:	44 00 48 00 	l.jr r9
 8038fb4:	15 00 00 00 	l.nop 0x0

08038fb8 <_fsub>:
 8038fb8:	c9 63 20 01 	lf.sub.s r11,r3,r4
 8038fbc:	44 00 48 00 	l.jr r9
 8038fc0:	15 00 00 00 	l.nop 0x0

08038fc4 <_fmul>:
 8038fc4:	c9 63 20 02 	lf.mul.s r11,r3,r4
 8038fc8:	44 00 48 00 	l.jr r9
 8038fcc:	15 00 00 00 	l.nop 0x0

08038fd0 <_fdiv>:
 8038fd0:	c9 63 20 03 	lf.div.s r11,r3,r4
 8038fd4:	44 00 48 00 	l.jr r9
 8038fd8:	15 00 00 00 	l.nop 0x0

08038fdc <_feq>:
 8038fdc:	c8 03 20 08 	lf.sfeq.s r3,r4
 8038fe0:	0c 00 00 03 	l.bnf 8038fec <_feq+0x10>
 8038fe4:	9d 60 00 00 	l.addi r11,r0,0x0
 8038fe8:	9d 60 00 01 	l.addi r11,r0,0x1
 8038fec:	44 00 48 00 	l.jr r9
 8038ff0:	15 00 00 00 	l.nop 0x0

08038ff4 <_fge>:
 8038ff4:	c8 03 20 0b 	lf.sfge.s r3,r4
 8038ff8:	0c 00 00 03 	l.bnf 8039004 <_fge+0x10>
 8038ffc:	9d 60 00 00 	l.addi r11,r0,0x0
 8039000:	9d 60 00 01 	l.addi r11,r0,0x1
 8039004:	44 00 48 00 	l.jr r9
 8039008:	15 00 00 00 	l.nop 0x0

0803900c <_fgt>:
 803900c:	c8 03 20 0a 	lf.sfgt.s r3,r4
 8039010:	0c 00 00 03 	l.bnf 803901c <_fgt+0x10>
 8039014:	9d 60 00 00 	l.addi r11,r0,0x0
 8039018:	9d 60 00 01 	l.addi r11,r0,0x1
 803901c:	44 00 48 00 	l.jr r9
 8039020:	15 00 00 00 	l.nop 0x0

08039024 <_fle>:
 8039024:	c8 03 20 0d 	lf.sfle.s r3,r4
 8039028:	0c 00 00 03 	l.bnf 8039034 <_fle+0x10>
 803902c:	9d 60 00 00 	l.addi r11,r0,0x0
 8039030:	9d 60 00 01 	l.addi r11,r0,0x1
 8039034:	44 00 48 00 	l.jr r9
 8039038:	15 00 00 00 	l.nop 0x0

0803903c <_flt>:
 803903c:	c8 03 20 0c 	lf.sflt.s r3,r4
 8039040:	0c 00 00 03 	l.bnf 803904c <_flt+0x10>
 8039044:	9d 60 00 00 	l.addi r11,r0,0x0
 8039048:	9d 60 00 01 	l.addi r11,r0,0x1
 803904c:	44 00 48 00 	l.jr r9
 8039050:	15 00 00 00 	l.nop 0x0

08039054 <_fne>:
 8039054:	c8 03 20 09 	lf.sfne.s r3,r4
 8039058:	0c 00 00 03 	l.bnf 8039064 <_fne+0x10>
 803905c:	9d 60 00 00 	l.addi r11,r0,0x0
 8039060:	9d 60 00 01 	l.addi r11,r0,0x1
 8039064:	44 00 48 00 	l.jr r9
 8039068:	15 00 00 00 	l.nop 0x0

0803906c <_init_reset_section>:
 803906c:	d7 e1 17 fc 	l.sw 0xfffffffc(r1),r2
 8039070:	18 80 f1 00 	l.movhi r4,0xf100
 8039074:	9c 21 ff fc 	l.addi r1,r1,0xfffffffc
 8039078:	84 a4 00 00 	l.lwz r5,0x0(r4)
 803907c:	a4 a5 00 01 	l.andi r5,r5,0x1
 8039080:	bc 25 00 00 	l.sfnei r5,0x0
 8039084:	13 ff ff fd 	l.bf 8039078 <_init_reset_section+0xc>
 8039088:	18 60 f1 00 	l.movhi r3,0xf100
 803908c:	84 83 00 00 	l.lwz r4,0x0(r3)
 8039090:	9c 40 ff cf 	l.addi r2,r0,0xffffffcf
 8039094:	18 a0 04 00 	l.movhi r5,0x400
 8039098:	e0 84 10 03 	l.and r4,r4,r2
 803909c:	d4 03 20 00 	l.sw 0x0(r3),r4
 80390a0:	a8 83 00 08 	l.ori r4,r3,0x8
 80390a4:	d4 04 28 00 	l.sw 0x0(r4),r5
 80390a8:	a8 83 00 04 	l.ori r4,r3,0x4
 80390ac:	18 a0 06 00 	l.movhi r5,0x600
 80390b0:	d4 04 28 00 	l.sw 0x0(r4),r5
 80390b4:	a8 83 00 0c 	l.ori r4,r3,0xc
 80390b8:	9c a0 0f 00 	l.addi r5,r0,0xf00
 80390bc:	d4 04 28 00 	l.sw 0x0(r4),r5
 80390c0:	84 83 00 00 	l.lwz r4,0x0(r3)
 80390c4:	a8 84 00 01 	l.ori r4,r4,0x1
 80390c8:	d4 03 20 00 	l.sw 0x0(r3),r4
 80390cc:	84 83 00 00 	l.lwz r4,0x0(r3)
 80390d0:	a4 84 00 01 	l.andi r4,r4,0x1
 80390d4:	bc 24 00 00 	l.sfnei r4,0x0
 80390d8:	13 ff ff fd 	l.bf 80390cc <_init_reset_section+0x60>
 80390dc:	15 00 00 00 	l.nop 0x0
 80390e0:	9c 21 00 04 	l.addi r1,r1,0x4
 80390e4:	44 00 48 00 	l.jr r9
 80390e8:	84 41 ff fc 	l.lwz r2,0xfffffffc(r1)

080390ec <_init_data_section>:
 80390ec:	18 80 04 00 	l.movhi r4,0x400
 80390f0:	18 60 04 00 	l.movhi r3,0x400
 80390f4:	a8 84 00 64 	l.ori r4,r4,0x64
 80390f8:	d7 e1 4f fc 	l.sw 0xfffffffc(r1),r9
 80390fc:	84 a4 00 00 	l.lwz r5,0x0(r4)
 8039100:	9c 21 ff fc 	l.addi r1,r1,0xfffffffc
 8039104:	a8 63 00 60 	l.ori r3,r3,0x60
 8039108:	18 80 04 00 	l.movhi r4,0x400
 803910c:	84 63 00 00 	l.lwz r3,0x0(r3)
 8039110:	a8 84 00 30 	l.ori r4,r4,0x30
 8039114:	9c 21 00 04 	l.addi r1,r1,0x4
 8039118:	84 84 00 00 	l.lwz r4,0x0(r4)
 803911c:	85 21 ff fc 	l.lwz r9,0xfffffffc(r1)
 8039120:	00 01 29 ea 	l.j 80838c8 <memcpy>
 8039124:	e0 a5 18 02 	l.sub r5,r5,r3

08039128 <_init_text_section>:
 8039128:	18 80 04 00 	l.movhi r4,0x400
 803912c:	18 60 04 00 	l.movhi r3,0x400
 8039130:	a8 84 00 4c 	l.ori r4,r4,0x4c
 8039134:	d7 e1 4f fc 	l.sw 0xfffffffc(r1),r9
 8039138:	84 a4 00 00 	l.lwz r5,0x0(r4)
 803913c:	9c 21 ff fc 	l.addi r1,r1,0xfffffffc
 8039140:	a8 63 00 48 	l.ori r3,r3,0x48
 8039144:	18 80 04 00 	l.movhi r4,0x400
 8039148:	84 63 00 00 	l.lwz r3,0x0(r3)
 803914c:	a8 84 00 18 	l.ori r4,r4,0x18
 8039150:	9c 21 00 04 	l.addi r1,r1,0x4
 8039154:	84 84 00 00 	l.lwz r4,0x0(r4)
 8039158:	85 21 ff fc 	l.lwz r9,0xfffffffc(r1)
 803915c:	00 01 29 db 	l.j 80838c8 <memcpy>
 8039160:	e0 a5 18 02 	l.sub r5,r5,r3

08039164 <_init_bss_section>:
 8039164:	18 60 04 00 	l.movhi r3,0x400
 8039168:	d7 e1 17 fc 	l.sw 0xfffffffc(r1),r2
 803916c:	a8 63 00 68 	l.ori r3,r3,0x68
 8039170:	9c 21 ff fc 	l.addi r1,r1,0xfffffffc
 8039174:	84 e3 00 00 	l.lwz r7,0x0(r3)
 8039178:	18 60 04 00 	l.movhi r3,0x400
 803917c:	18 a0 f1 00 	l.movhi r5,0xf100
 8039180:	a8 63 00 6c 	l.ori r3,r3,0x6c
 8039184:	84 c3 00 00 	l.lwz r6,0x0(r3)
 8039188:	e0 c6 38 02 	l.sub r6,r6,r7
 803918c:	84 85 00 00 	l.lwz r4,0x0(r5)
 8039190:	a4 84 00 01 	l.andi r4,r4,0x1
 8039194:	bc 24 00 00 	l.sfnei r4,0x0
 8039198:	13 ff ff fd 	l.bf 803918c <_init_bss_section+0x28>
 803919c:	18 60 f1 00 	l.movhi r3,0xf100
 80391a0:	84 a3 00 00 	l.lwz r5,0x0(r3)
 80391a4:	9c 40 ff cf 	l.addi r2,r0,0xffffffcf
 80391a8:	e0 a5 10 03 	l.and r5,r5,r2
 80391ac:	a8 a5 00 10 	l.ori r5,r5,0x10
 80391b0:	d4 03 28 00 	l.sw 0x0(r3),r5
 80391b4:	a8 a3 00 08 	l.ori r5,r3,0x8
 80391b8:	d4 05 38 00 	l.sw 0x0(r5),r7
 80391bc:	a8 a3 00 0c 	l.ori r5,r3,0xc
 80391c0:	d4 05 30 00 	l.sw 0x0(r5),r6
 80391c4:	d8 03 20 02 	l.sb 0x2(r3),r4
 80391c8:	84 83 00 00 	l.lwz r4,0x0(r3)
 80391cc:	a8 84 00 01 	l.ori r4,r4,0x1
 80391d0:	d4 03 20 00 	l.sw 0x0(r3),r4
 80391d4:	84 83 00 00 	l.lwz r4,0x0(r3)
 80391d8:	a4 84 00 01 	l.andi r4,r4,0x1
 80391dc:	bc 24 00 00 	l.sfnei r4,0x0
 80391e0:	13 ff ff fd 	l.bf 80391d4 <_init_bss_section+0x70>
 80391e4:	15 00 00 00 	l.nop 0x0
 80391e8:	9c 21 00 04 	l.addi r1,r1,0x4
 80391ec:	44 00 48 00 	l.jr r9
 80391f0:	84 41 ff fc 	l.lwz r2,0xfffffffc(r1)

080391f4 <set_code_hwp>:
 80391f4:	d7 e1 17 e8 	l.sw 0xffffffe8(r1),r2
 80391f8:	d7 e1 4f fc 	l.sw 0xfffffffc(r1),r9
 80391fc:	d7 e1 77 ec 	l.sw 0xffffffec(r1),r14
 8039200:	d7 e1 87 f0 	l.sw 0xfffffff0(r1),r16
 8039204:	d7 e1 97 f4 	l.sw 0xfffffff4(r1),r18
 8039208:	d7 e1 a7 f8 	l.sw 0xfffffff8(r1),r20
 803920c:	9c 63 00 38 	l.addi r3,r3,0x38
 8039210:	9c 21 ff d0 	l.addi r1,r1,0xffffffd0
 8039214:	9c 80 00 07 	l.addi r4,r0,0x7
 8039218:	9c 40 00 00 	l.addi r2,r0,0x0
 803921c:	84 e3 00 00 	l.lwz r7,0x0(r3)
 8039220:	84 c3 00 04 	l.lwz r6,0x4(r3)
 8039224:	e4 06 38 00 	l.sfeq r6,r7
 8039228:	10 00 00 07 	l.bf 8039244 <set_code_hwp+0x50>
 803922c:	b8 a2 00 03 	l.slli r5,r2,0x3
 8039230:	9d 01 00 18 	l.addi r8,r1,0x18
 8039234:	9c 42 00 01 	l.addi r2,r2,0x1
 8039238:	e0 a8 28 00 	l.add r5,r8,r5
 803923c:	d7 e5 3f e8 	l.sw 0xffffffe8(r5),r7
 8039240:	d7 e5 37 ec 	l.sw 0xffffffec(r5),r6
 8039244:	9c 84 00 01 	l.addi r4,r4,0x1
 8039248:	bc 24 00 0a 	l.sfnei r4,0xa
 803924c:	13 ff ff f4 	l.bf 803921c <set_code_hwp+0x28>
 8039250:	9c 63 00 08 	l.addi r3,r3,0x8
 8039254:	b9 a2 00 03 	l.slli r13,r2,0x3
 8039258:	9e 81 00 04 	l.addi r20,r1,0x4
 803925c:	a9 c1 00 00 	l.ori r14,r1,0x0
 8039260:	a8 d4 00 00 	l.ori r6,r20,0x0
 8039264:	a8 a1 00 00 	l.ori r5,r1,0x0
 8039268:	9c 60 00 00 	l.addi r3,r0,0x0
 803926c:	a8 e1 00 00 	l.ori r7,r1,0x0
 8039270:	00 00 00 1a 	l.j 80392d8 <set_code_hwp+0xe4>
 8039274:	e1 ad 08 00 	l.add r13,r13,r1
 8039278:	b8 68 00 03 	l.slli r3,r8,0x3
 803927c:	e0 87 18 00 	l.add r4,r7,r3
 8039280:	9c 63 00 04 	l.addi r3,r3,0x4
 8039284:	00 00 00 0f 	l.j 80392c0 <set_code_hwp+0xcc>
 8039288:	e0 67 18 00 	l.add r3,r7,r3
 803928c:	85 84 00 00 	l.lwz r12,0x0(r4)
 8039290:	85 65 00 00 	l.lwz r11,0x0(r5)
 8039294:	e4 6c 58 00 	l.sfgeu r12,r11
 8039298:	10 00 00 08 	l.bf 80392b8 <set_code_hwp+0xc4>
 803929c:	15 00 00 00 	l.nop 0x0
 80392a0:	d4 05 60 00 	l.sw 0x0(r5),r12
 80392a4:	85 83 00 00 	l.lwz r12,0x0(r3)
 80392a8:	d4 04 58 00 	l.sw 0x0(r4),r11
 80392ac:	85 66 00 00 	l.lwz r11,0x0(r6)
 80392b0:	d4 06 60 00 	l.sw 0x0(r6),r12
 80392b4:	d4 03 58 00 	l.sw 0x0(r3),r11
 80392b8:	9c 84 00 08 	l.addi r4,r4,0x8
 80392bc:	9c 63 00 08 	l.addi r3,r3,0x8
 80392c0:	e4 24 68 00 	l.sfne r4,r13
 80392c4:	13 ff ff f2 	l.bf 803928c <set_code_hwp+0x98>
 80392c8:	15 00 00 00 	l.nop 0x0
 80392cc:	9c a5 00 08 	l.addi r5,r5,0x8
 80392d0:	9c c6 00 08 	l.addi r6,r6,0x8
 80392d4:	a8 68 00 00 	l.ori r3,r8,0x0
 80392d8:	e5 83 10 00 	l.sflts r3,r2
 80392dc:	13 ff ff e7 	l.bf 8039278 <set_code_hwp+0x84>
 80392e0:	9d 03 00 01 	l.addi r8,r3,0x1
 80392e4:	9c 80 00 00 	l.addi r4,r0,0x0
 80392e8:	9c 60 60 10 	l.addi r3,r0,0x6010
 80392ec:	c0 03 20 00 	l.mtspr r3,r4,0x0
 80392f0:	9c 60 60 00 	l.addi r3,r0,0x6000
 80392f4:	9c a0 00 28 	l.addi r5,r0,0x28
 80392f8:	9c c0 00 02 	l.addi r6,r0,0x2
 80392fc:	84 e1 00 00 	l.lwz r7,0x0(r1)
 8039300:	9d 00 00 01 	l.addi r8,r0,0x1
 8039304:	04 00 01 3d 	l.jal 80397f8 <set_hwp>
 8039308:	9e 40 00 01 	l.addi r18,r0,0x1
 803930c:	00 00 00 12 	l.j 8039354 <set_code_hwp+0x160>
 8039310:	aa 12 00 00 	l.ori r16,r18,0x0
 8039314:	84 f4 00 00 	l.lwz r7,0x0(r20)
 8039318:	9c 60 60 00 	l.addi r3,r0,0x6000
 803931c:	9c a0 00 28 	l.addi r5,r0,0x28
 8039320:	9c c0 00 05 	l.addi r6,r0,0x5
 8039324:	9d 00 00 01 	l.addi r8,r0,0x1
 8039328:	04 00 01 34 	l.jal 80397f8 <set_hwp>
 803932c:	9e 52 00 02 	l.addi r18,r18,0x2
 8039330:	9c c0 00 02 	l.addi r6,r0,0x2
 8039334:	e0 90 80 00 	l.add r4,r16,r16
 8039338:	84 f4 00 04 	l.lwz r7,0x4(r20)
 803933c:	9c 60 60 00 	l.addi r3,r0,0x6000
 8039340:	9c a0 00 28 	l.addi r5,r0,0x28
 8039344:	a9 06 00 00 	l.ori r8,r6,0x0
 8039348:	9e 10 00 01 	l.addi r16,r16,0x1
 803934c:	04 00 01 2b 	l.jal 80397f8 <set_hwp>
 8039350:	9e 94 00 08 	l.addi r20,r20,0x8
 8039354:	e5 90 10 00 	l.sflts r16,r2
 8039358:	13 ff ff ef 	l.bf 8039314 <set_code_hwp+0x120>
 803935c:	a8 92 00 00 	l.ori r4,r18,0x0
 8039360:	9e 10 ff ff 	l.addi r16,r16,0xffffffff
 8039364:	9c 61 00 18 	l.addi r3,r1,0x18
 8039368:	ba 10 00 03 	l.slli r16,r16,0x3
 803936c:	9c a0 00 28 	l.addi r5,r0,0x28
 8039370:	e2 03 80 00 	l.add r16,r3,r16
 8039374:	9c c0 00 05 	l.addi r6,r0,0x5
 8039378:	9c 60 60 00 	l.addi r3,r0,0x6000
 803937c:	84 f0 ff ec 	l.lwz r7,0xffffffec(r16)
 8039380:	04 00 01 1e 	l.jal 80397f8 <set_hwp>
 8039384:	9d 00 00 01 	l.addi r8,r0,0x1
 8039388:	9c 80 00 00 	l.addi r4,r0,0x0
 803938c:	9c 60 68 10 	l.addi r3,r0,0x6810
 8039390:	c0 03 20 00 	l.mtspr r3,r4,0x0
 8039394:	9e 00 00 00 	l.addi r16,r0,0x0
 8039398:	00 00 00 13 	l.j 80393e4 <set_code_hwp+0x1f0>
 803939c:	aa 50 00 00 	l.ori r18,r16,0x0
 80393a0:	84 ee 00 00 	l.lwz r7,0x0(r14)
 80393a4:	9c 60 68 00 	l.addi r3,r0,0x6800
 80393a8:	9c a0 00 30 	l.addi r5,r0,0x30
 80393ac:	9c c0 00 05 	l.addi r6,r0,0x5
 80393b0:	9d 00 00 01 	l.addi r8,r0,0x1
 80393b4:	04 00 01 11 	l.jal 80397f8 <set_hwp>
 80393b8:	aa 90 00 00 	l.ori r20,r16,0x0
 80393bc:	9c c0 00 02 	l.addi r6,r0,0x2
 80393c0:	84 ee 00 04 	l.lwz r7,0x4(r14)
 80393c4:	9c 60 68 00 	l.addi r3,r0,0x6800
 80393c8:	9c 94 00 01 	l.addi r4,r20,0x1
 80393cc:	9c a0 00 30 	l.addi r5,r0,0x30
 80393d0:	a9 06 00 00 	l.ori r8,r6,0x0
 80393d4:	9e 10 00 02 	l.addi r16,r16,0x2
 80393d8:	9e 52 00 01 	l.addi r18,r18,0x1
 80393dc:	04 00 01 07 	l.jal 80397f8 <set_hwp>
 80393e0:	9d ce 00 08 	l.addi r14,r14,0x8
 80393e4:	e5 92 10 00 	l.sflts r18,r2
 80393e8:	13 ff ff ee 	l.bf 80393a0 <set_code_hwp+0x1ac>
 80393ec:	a8 90 00 00 	l.ori r4,r16,0x0
 80393f0:	9c 21 00 30 	l.addi r1,r1,0x30
 80393f4:	85 21 ff fc 	l.lwz r9,0xfffffffc(r1)
 80393f8:	84 41 ff e8 	l.lwz r2,0xffffffe8(r1)
 80393fc:	85 c1 ff ec 	l.lwz r14,0xffffffec(r1)
 8039400:	86 01 ff f0 	l.lwz r16,0xfffffff0(r1)
 8039404:	86 41 ff f4 	l.lwz r18,0xfffffff4(r1)
 8039408:	44 00 48 00 	l.jr r9
 803940c:	86 81 ff f8 	l.lwz r20,0xfffffff8(r1)

08039410 <ext_int_enabled>:
 8039410:	9d 60 00 11 	l.addi r11,r0,0x11
 8039414:	b5 6b 00 00 	l.mfspr r11,r11,0x0
 8039418:	44 00 48 00 	l.jr r9
 803941c:	a5 6b 00 04 	l.andi r11,r11,0x4

08039420 <enable_ext_int>:
 8039420:	9c 60 00 11 	l.addi r3,r0,0x11
 8039424:	b4 83 00 00 	l.mfspr r4,r3,0x0
 8039428:	a8 84 00 04 	l.ori r4,r4,0x4
 803942c:	c0 03 20 00 	l.mtspr r3,r4,0x0
 8039430:	44 00 48 00 	l.jr r9
 8039434:	15 00 00 00 	l.nop 0x0

08039438 <disable_ext_int>:
 8039438:	d7 e1 17 fc 	l.sw 0xfffffffc(r1),r2
 803943c:	9c 60 00 11 	l.addi r3,r0,0x11
 8039440:	9c 21 ff fc 	l.addi r1,r1,0xfffffffc
 8039444:	b4 83 00 00 	l.mfspr r4,r3,0x0
 8039448:	9c 40 ff fb 	l.addi r2,r0,0xfffffffb
 803944c:	e0 84 10 03 	l.and r4,r4,r2
 8039450:	c0 03 20 00 	l.mtspr r3,r4,0x0
 8039454:	9c 21 00 04 	l.addi r1,r1,0x4
 8039458:	44 00 48 00 	l.jr r9
 803945c:	84 41 ff fc 	l.lwz r2,0xfffffffc(r1)

08039460 <timer_enabled>:
 8039460:	9d 60 00 11 	l.addi r11,r0,0x11
 8039464:	b5 6b 00 00 	l.mfspr r11,r11,0x0
 8039468:	44 00 48 00 	l.jr r9
 803946c:	a5 6b 00 02 	l.andi r11,r11,0x2

08039470 <enable_timer>:
 8039470:	9c 60 00 11 	l.addi r3,r0,0x11
 8039474:	b4 83 00 00 	l.mfspr r4,r3,0x0
 8039478:	a8 84 00 02 	l.ori r4,r4,0x2
 803947c:	c0 03 20 00 	l.mtspr r3,r4,0x0
 8039480:	44 00 48 00 	l.jr r9
 8039484:	15 00 00 00 	l.nop 0x0

08039488 <disable_timer>:
 8039488:	d7 e1 17 fc 	l.sw 0xfffffffc(r1),r2
 803948c:	9c 60 00 11 	l.addi r3,r0,0x11
 8039490:	9c 21 ff fc 	l.addi r1,r1,0xfffffffc
 8039494:	b4 83 00 00 	l.mfspr r4,r3,0x0
 8039498:	9c 40 ff fd 	l.addi r2,r0,0xfffffffd
 803949c:	e0 84 10 03 	l.and r4,r4,r2
 80394a0:	c0 03 20 00 	l.mtspr r3,r4,0x0
 80394a4:	9c 21 00 04 	l.addi r1,r1,0x4
 80394a8:	44 00 48 00 	l.jr r9
 80394ac:	84 41 ff fc 	l.lwz r2,0xfffffffc(r1)

080394b0 <xsr_enabled>:
 80394b0:	9d 60 00 11 	l.addi r11,r0,0x11
 80394b4:	b5 6b 00 00 	l.mfspr r11,r11,0x0
 80394b8:	44 00 48 00 	l.jr r9
 80394bc:	a5 6b 00 06 	l.andi r11,r11,0x6

080394c0 <enable_xsr>:
 80394c0:	9c 60 00 11 	l.addi r3,r0,0x11
 80394c4:	b4 83 00 00 	l.mfspr r4,r3,0x0
 80394c8:	a8 84 00 06 	l.ori r4,r4,0x6
 80394cc:	c0 03 20 00 	l.mtspr r3,r4,0x0
 80394d0:	44 00 48 00 	l.jr r9
 80394d4:	15 00 00 00 	l.nop 0x0

080394d8 <disable_xsr>:
 80394d8:	d7 e1 17 fc 	l.sw 0xfffffffc(r1),r2
 80394dc:	9c 60 00 11 	l.addi r3,r0,0x11
 80394e0:	9c 21 ff fc 	l.addi r1,r1,0xfffffffc
 80394e4:	b4 83 00 00 	l.mfspr r4,r3,0x0
 80394e8:	9c 40 ff f9 	l.addi r2,r0,0xfffffff9
 80394ec:	e0 84 10 03 	l.and r4,r4,r2
 80394f0:	c0 03 20 00 	l.mtspr r3,r4,0x0
 80394f4:	9c 21 00 04 	l.addi r1,r1,0x4
 80394f8:	44 00 48 00 	l.jr r9
 80394fc:	84 41 ff fc 	l.lwz r2,0xfffffffc(r1)

08039500 <enable_immu>:
 8039500:	9c 60 00 11 	l.addi r3,r0,0x11
 8039504:	b4 83 00 00 	l.mfspr r4,r3,0x0
 8039508:	a8 84 00 40 	l.ori r4,r4,0x40
 803950c:	c0 03 20 00 	l.mtspr r3,r4,0x0
 8039510:	44 00 48 00 	l.jr r9
 8039514:	15 00 00 00 	l.nop 0x0

08039518 <disable_immu>:
 8039518:	d7 e1 17 fc 	l.sw 0xfffffffc(r1),r2
 803951c:	9c 60 00 11 	l.addi r3,r0,0x11
 8039520:	9c 21 ff fc 	l.addi r1,r1,0xfffffffc
 8039524:	b4 83 00 00 	l.mfspr r4,r3,0x0
 8039528:	9c 40 ff bf 	l.addi r2,r0,0xffffffbf
 803952c:	e0 84 10 03 	l.and r4,r4,r2
 8039530:	c0 03 20 00 	l.mtspr r3,r4,0x0
 8039534:	9c 21 00 04 	l.addi r1,r1,0x4
 8039538:	44 00 48 00 	l.jr r9
 803953c:	84 41 ff fc 	l.lwz r2,0xfffffffc(r1)

08039540 <enable_dmmu>:
 8039540:	9c 60 00 11 	l.addi r3,r0,0x11
 8039544:	b4 83 00 00 	l.mfspr r4,r3,0x0
 8039548:	a8 84 00 20 	l.ori r4,r4,0x20
 803954c:	c0 03 20 00 	l.mtspr r3,r4,0x0
 8039550:	44 00 48 00 	l.jr r9
 8039554:	15 00 00 00 	l.nop 0x0

08039558 <disable_dmmu>:
 8039558:	d7 e1 17 fc 	l.sw 0xfffffffc(r1),r2
 803955c:	9c 60 00 11 	l.addi r3,r0,0x11
 8039560:	9c 21 ff fc 	l.addi r1,r1,0xfffffffc
 8039564:	b4 83 00 00 	l.mfspr r4,r3,0x0
 8039568:	9c 40 ff df 	l.addi r2,r0,0xffffffdf
 803956c:	e0 84 10 03 	l.and r4,r4,r2
 8039570:	c0 03 20 00 	l.mtspr r3,r4,0x0
 8039574:	9c 21 00 04 	l.addi r1,r1,0x4
 8039578:	44 00 48 00 	l.jr r9
 803957c:	84 41 ff fc 	l.lwz r2,0xfffffffc(r1)

08039580 <enable_fp_xsr>:
 8039580:	d7 e1 17 fc 	l.sw 0xfffffffc(r1),r2
 8039584:	9c 60 00 14 	l.addi r3,r0,0x14
 8039588:	9c 21 ff fc 	l.addi r1,r1,0xfffffffc
 803958c:	b4 83 00 00 	l.mfspr r4,r3,0x0
 8039590:	9c 40 f0 07 	l.addi r2,r0,0xfffff007
 8039594:	e0 84 10 03 	l.and r4,r4,r2
 8039598:	a8 84 00 01 	l.ori r4,r4,0x1
 803959c:	c0 03 20 00 	l.mtspr r3,r4,0x0
 80395a0:	9c 21 00 04 	l.addi r1,r1,0x4
 80395a4:	44 00 48 00 	l.jr r9
 80395a8:	84 41 ff fc 	l.lwz r2,0xfffffffc(r1)

080395ac <set_fp_round_mode>:
 80395ac:	d7 e1 17 fc 	l.sw 0xfffffffc(r1),r2
 80395b0:	9c 80 00 14 	l.addi r4,r0,0x14
 80395b4:	9c 21 ff fc 	l.addi r1,r1,0xfffffffc
 80395b8:	b4 a4 00 00 	l.mfspr r5,r4,0x0
 80395bc:	9c 40 ff f9 	l.addi r2,r0,0xfffffff9
 80395c0:	e0 a5 10 03 	l.and r5,r5,r2
 80395c4:	e0 65 18 04 	l.or r3,r5,r3
 80395c8:	c0 04 18 00 	l.mtspr r4,r3,0x0
 80395cc:	9c 21 00 04 	l.addi r1,r1,0x4
 80395d0:	44 00 48 00 	l.jr r9
 80395d4:	84 41 ff fc 	l.lwz r2,0xfffffffc(r1)

080395d8 <get_fp_round_mode>:
 80395d8:	9d 60 00 14 	l.addi r11,r0,0x14
 80395dc:	b5 6b 00 00 	l.mfspr r11,r11,0x0
 80395e0:	44 00 48 00 	l.jr r9
 80395e4:	a5 6b 00 06 	l.andi r11,r11,0x6

080395e8 <set_fp_round_precision>:
 80395e8:	44 00 48 00 	l.jr r9
 80395ec:	15 00 00 00 	l.nop 0x0

080395f0 <disable_icache>:
 80395f0:	d7 e1 17 fc 	l.sw 0xfffffffc(r1),r2
 80395f4:	9c 60 00 11 	l.addi r3,r0,0x11
 80395f8:	9c 21 ff fc 	l.addi r1,r1,0xfffffffc
 80395fc:	b4 83 00 00 	l.mfspr r4,r3,0x0
 8039600:	9c 40 ff ef 	l.addi r2,r0,0xffffffef
 8039604:	e0 84 10 03 	l.and r4,r4,r2
 8039608:	c0 03 20 00 	l.mtspr r3,r4,0x0
 803960c:	15 00 00 00 	l.nop 0x0
 8039610:	15 00 00 00 	l.nop 0x0
 8039614:	15 00 00 00 	l.nop 0x0
 8039618:	15 00 00 00 	l.nop 0x0
 803961c:	15 00 00 00 	l.nop 0x0
 8039620:	15 00 00 00 	l.nop 0x0
 8039624:	15 00 00 00 	l.nop 0x0
 8039628:	15 00 00 00 	l.nop 0x0
 803962c:	15 00 00 00 	l.nop 0x0
 8039630:	9c 21 00 04 	l.addi r1,r1,0x4
 8039634:	44 00 48 00 	l.jr r9
 8039638:	84 41 ff fc 	l.lwz r2,0xfffffffc(r1)

0803963c <disable_dcache>:
 803963c:	d7 e1 17 fc 	l.sw 0xfffffffc(r1),r2
 8039640:	9c 60 00 11 	l.addi r3,r0,0x11
 8039644:	9c 21 ff fc 	l.addi r1,r1,0xfffffffc
 8039648:	b4 83 00 00 	l.mfspr r4,r3,0x0
 803964c:	9c 40 ff f7 	l.addi r2,r0,0xfffffff7
 8039650:	e0 84 10 03 	l.and r4,r4,r2
 8039654:	c0 03 20 00 	l.mtspr r3,r4,0x0
 8039658:	15 00 00 00 	l.nop 0x0
 803965c:	15 00 00 00 	l.nop 0x0
 8039660:	15 00 00 00 	l.nop 0x0
 8039664:	15 00 00 00 	l.nop 0x0
 8039668:	15 00 00 00 	l.nop 0x0
 803966c:	15 00 00 00 	l.nop 0x0
 8039670:	15 00 00 00 	l.nop 0x0
 8039674:	15 00 00 00 	l.nop 0x0
 8039678:	15 00 00 00 	l.nop 0x0
 803967c:	9c 21 00 04 	l.addi r1,r1,0x4
 8039680:	44 00 48 00 	l.jr r9
 8039684:	84 41 ff fc 	l.lwz r2,0xfffffffc(r1)

08039688 <check_dcache>:
 8039688:	9c 60 00 05 	l.addi r3,r0,0x5
 803968c:	b4 63 00 00 	l.mfspr r3,r3,0x0
 8039690:	a5 63 00 78 	l.andi r11,r3,0x78
 8039694:	9c 80 00 01 	l.addi r4,r0,0x1
 8039698:	b9 6b 00 43 	l.srli r11,r11,0x3
 803969c:	a4 a3 00 07 	l.andi r5,r3,0x7
 80396a0:	a4 63 00 80 	l.andi r3,r3,0x80
 80396a4:	e0 a4 28 08 	l.sll r5,r4,r5
 80396a8:	e1 64 58 08 	l.sll r11,r4,r11
 80396ac:	bc 03 00 00 	l.sfeqi r3,0x0
 80396b0:	10 00 00 03 	l.bf 80396bc <check_dcache+0x34>
 80396b4:	9c 80 00 10 	l.addi r4,r0,0x10
 80396b8:	9c 80 00 20 	l.addi r4,r0,0x20
 80396bc:	e1 6b 2b 06 	l.mul r11,r11,r5
 80396c0:	44 00 48 00 	l.jr r9
 80396c4:	e1 6b 23 06 	l.mul r11,r11,r4

080396c8 <get_dcache_block_size>:
 80396c8:	9c 60 00 05 	l.addi r3,r0,0x5
 80396cc:	b4 63 00 00 	l.mfspr r3,r3,0x0
 80396d0:	a4 63 00 80 	l.andi r3,r3,0x80
 80396d4:	9d 60 00 10 	l.addi r11,r0,0x10
 80396d8:	b8 63 00 47 	l.srli r3,r3,0x7
 80396dc:	44 00 48 00 	l.jr r9
 80396e0:	e1 6b 18 08 	l.sll r11,r11,r3

080396e4 <invalidate_dcache_range>:
 80396e4:	9c a0 00 05 	l.addi r5,r0,0x5
 80396e8:	b4 a5 00 00 	l.mfspr r5,r5,0x0
 80396ec:	a4 a5 00 80 	l.andi r5,r5,0x80
 80396f0:	9c c0 00 10 	l.addi r6,r0,0x10
 80396f4:	b8 a5 00 47 	l.srli r5,r5,0x7
 80396f8:	e0 c6 28 08 	l.sll r6,r6,r5
 80396fc:	9c a5 00 04 	l.addi r5,r5,0x4
 8039700:	e0 63 28 48 	l.srl r3,r3,r5
 8039704:	e0 63 28 08 	l.sll r3,r3,r5
 8039708:	00 00 00 04 	l.j 8039718 <invalidate_dcache_range+0x34>
 803970c:	9c a0 18 03 	l.addi r5,r0,0x1803
 8039710:	c0 05 18 00 	l.mtspr r5,r3,0x0
 8039714:	e0 63 30 00 	l.add r3,r3,r6
 8039718:	e4 83 20 00 	l.sfltu r3,r4
 803971c:	13 ff ff fd 	l.bf 8039710 <invalidate_dcache_range+0x2c>
 8039720:	15 00 00 00 	l.nop 0x0
 8039724:	44 00 48 00 	l.jr r9
 8039728:	15 00 00 00 	l.nop 0x0

0803972c <invalidate_dcache_range_all>:
 803972c:	9c 60 00 05 	l.addi r3,r0,0x5
 8039730:	b4 63 00 00 	l.mfspr r3,r3,0x0
 8039734:	a4 63 00 80 	l.andi r3,r3,0x80
 8039738:	9c 80 08 00 	l.addi r4,r0,0x800
 803973c:	b8 63 00 47 	l.srli r3,r3,0x7
 8039740:	bc 03 00 00 	l.sfeqi r3,0x0
 8039744:	10 00 00 03 	l.bf 8039750 <invalidate_dcache_range_all+0x24>
 8039748:	9c c3 00 04 	l.addi r6,r3,0x4
 803974c:	9c 80 04 00 	l.addi r4,r0,0x400
 8039750:	9c 60 00 00 	l.addi r3,r0,0x0
 8039754:	9c a0 18 03 	l.addi r5,r0,0x1803
 8039758:	e0 e3 30 08 	l.sll r7,r3,r6
 803975c:	c0 05 38 00 	l.mtspr r5,r7,0x0
 8039760:	9c 63 00 01 	l.addi r3,r3,0x1
 8039764:	e4 83 20 00 	l.sfltu r3,r4
 8039768:	13 ff ff fc 	l.bf 8039758 <invalidate_dcache_range_all+0x2c>
 803976c:	15 00 00 00 	l.nop 0x0
 8039770:	44 00 48 00 	l.jr r9
 8039774:	15 00 00 00 	l.nop 0x0

08039778 <enable_jtag_ctrl_exception>:
 8039778:	9c 80 33 6d 	l.addi r4,r0,0x336d
 803977c:	9c 60 30 14 	l.addi r3,r0,0x3014
 8039780:	c0 03 20 00 	l.mtspr r3,r4,0x0
 8039784:	44 00 48 00 	l.jr r9
 8039788:	15 00 00 00 	l.nop 0x0

0803978c <disable_jtag_ctrl_exception>:
 803978c:	9c 80 00 00 	l.addi r4,r0,0x0
 8039790:	9c 60 30 14 	l.addi r3,r0,0x3014
 8039794:	c0 03 20 00 	l.mtspr r3,r4,0x0
 8039798:	44 00 48 00 	l.jr r9
 803979c:	15 00 00 00 	l.nop 0x0

080397a0 <enable_stb>:
 80397a0:	44 00 48 00 	l.jr r9
 80397a4:	15 00 00 00 	l.nop 0x0

080397a8 <enable_hwp>:
 80397a8:	9c 63 00 10 	l.addi r3,r3,0x10
 80397ac:	b4 83 00 00 	l.mfspr r4,r3,0x0
 80397b0:	a8 84 00 39 	l.ori r4,r4,0x39
 80397b4:	c0 03 20 00 	l.mtspr r3,r4,0x0
 80397b8:	44 00 48 00 	l.jr r9
 80397bc:	15 00 00 00 	l.nop 0x0

080397c0 <disable_hwp>:
 80397c0:	d7 e1 17 fc 	l.sw 0xfffffffc(r1),r2
 80397c4:	9c 63 00 10 	l.addi r3,r3,0x10
 80397c8:	9c 21 ff fc 	l.addi r1,r1,0xfffffffc
 80397cc:	b4 83 00 00 	l.mfspr r4,r3,0x0
 80397d0:	9c 40 ff fe 	l.addi r2,r0,0xfffffffe
 80397d4:	e0 84 10 03 	l.and r4,r4,r2
 80397d8:	c0 03 20 00 	l.mtspr r3,r4,0x0
 80397dc:	9c 21 00 04 	l.addi r1,r1,0x4
 80397e0:	44 00 48 00 	l.jr r9
 80397e4:	84 41 ff fc 	l.lwz r2,0xfffffffc(r1)

080397e8 <hwp_enabled>:
 80397e8:	9c 63 00 10 	l.addi r3,r3,0x10
 80397ec:	b5 63 00 00 	l.mfspr r11,r3,0x0
 80397f0:	44 00 48 00 	l.jr r9
 80397f4:	a5 6b 00 01 	l.andi r11,r11,0x1

080397f8 <set_hwp>:
 80397f8:	e1 64 18 00 	l.add r11,r4,r3
 80397fc:	c0 0b 38 00 	l.mtspr r11,r7,0x0
 8039800:	9d 6b 00 08 	l.addi r11,r11,0x8
 8039804:	e0 a6 28 04 	l.or r5,r6,r5
 8039808:	c0 0b 28 00 	l.mtspr r11,r5,0x0
 803980c:	9c 63 00 10 	l.addi r3,r3,0x10
 8039810:	b4 a3 00 00 	l.mfspr r5,r3,0x0
 8039814:	9c 84 00 03 	l.addi r4,r4,0x3
 8039818:	e0 84 20 00 	l.add r4,r4,r4
 803981c:	e1 08 20 08 	l.sll r8,r8,r4
 8039820:	e1 05 40 04 	l.or r8,r5,r8
 8039824:	c0 03 40 00 	l.mtspr r3,r8,0x0
 8039828:	44 00 48 00 	l.jr r9
 803982c:	15 00 00 00 	l.nop 0x0

08039830 <enable_hwdt>:
 8039830:	18 c0 00 03 	l.movhi r6,0x3
 8039834:	9c a3 00 12 	l.addi r5,r3,0x12
 8039838:	a8 c6 0c 78 	l.ori r6,r6,0xc78
 803983c:	e0 84 33 06 	l.mul r4,r4,r6
 8039840:	c0 05 20 00 	l.mtspr r5,r4,0x0
 8039844:	9c 63 00 10 	l.addi r3,r3,0x10
 8039848:	b4 83 00 00 	l.mfspr r4,r3,0x0
 803984c:	a8 84 00 04 	l.ori r4,r4,0x4
 8039850:	c0 03 20 00 	l.mtspr r3,r4,0x0
 8039854:	44 00 48 00 	l.jr r9
 8039858:	15 00 00 00 	l.nop 0x0

0803985c <disable_hwdt>:
 803985c:	d7 e1 17 fc 	l.sw 0xfffffffc(r1),r2
 8039860:	9c 83 00 12 	l.addi r4,r3,0x12
 8039864:	9c 21 ff fc 	l.addi r1,r1,0xfffffffc
 8039868:	9c a0 00 00 	l.addi r5,r0,0x0
 803986c:	c0 04 28 00 	l.mtspr r4,r5,0x0
 8039870:	9c 63 00 10 	l.addi r3,r3,0x10
 8039874:	b4 83 00 00 	l.mfspr r4,r3,0x0
 8039878:	9c 40 ff fb 	l.addi r2,r0,0xfffffffb
 803987c:	e0 84 10 03 	l.and r4,r4,r2
 8039880:	c0 03 20 00 	l.mtspr r3,r4,0x0
 8039884:	9c 21 00 04 	l.addi r1,r1,0x4
 8039888:	44 00 48 00 	l.jr r9
 803988c:	84 41 ff fc 	l.lwz r2,0xfffffffc(r1)

08039890 <print_hwp_all_info>:
 8039890:	44 00 48 00 	l.jr r9
 8039894:	15 00 00 00 	l.nop 0x0

08039898 <print_hwp_info>:
 8039898:	44 00 48 00 	l.jr r9
 803989c:	15 00 00 00 	l.nop 0x0

080398a0 <disable_htb>:
 80398a0:	d7 e1 17 fc 	l.sw 0xfffffffc(r1),r2
 80398a4:	9c 60 77 00 	l.addi r3,r0,0x7700
 80398a8:	9c 21 ff fc 	l.addi r1,r1,0xfffffffc
 80398ac:	b4 83 00 00 	l.mfspr r4,r3,0x0
 80398b0:	9c 40 ff fe 	l.addi r2,r0,0xfffffffe
 80398b4:	e0 84 10 03 	l.and r4,r4,r2
 80398b8:	c0 03 20 00 	l.mtspr r3,r4,0x0
 80398bc:	9c 21 00 04 	l.addi r1,r1,0x4
 80398c0:	44 00 48 00 	l.jr r9
 80398c4:	84 41 ff fc 	l.lwz r2,0xfffffffc(r1)

080398c8 <syscall_xsr>:
 80398c8:	d7 e1 17 fc 	l.sw 0xfffffffc(r1),r2
 80398cc:	9c 60 00 40 	l.addi r3,r0,0x40
 80398d0:	9c 21 ff fc 	l.addi r1,r1,0xfffffffc
 80398d4:	b4 63 00 00 	l.mfspr r3,r3,0x0
 80398d8:	9c 80 00 20 	l.addi r4,r0,0x20
 80398dc:	b4 84 00 00 	l.mfspr r4,r4,0x0
 80398e0:	84 a4 ff fc 	l.lwz r5,0xfffffffc(r4)
 80398e4:	a4 85 ff ff 	l.andi r4,r5,0xffff
 80398e8:	a4 a5 00 01 	l.andi r5,r5,0x1
 80398ec:	bc 05 00 00 	l.sfeqi r5,0x0
 80398f0:	10 00 00 04 	l.bf 8039900 <syscall_xsr+0x38>
 80398f4:	a4 a4 00 02 	l.andi r5,r4,0x2
 80398f8:	9c 40 ff fd 	l.addi r2,r0,0xfffffffd
 80398fc:	e0 63 10 03 	l.and r3,r3,r2
 8039900:	bc 05 00 00 	l.sfeqi r5,0x0
 8039904:	10 00 00 03 	l.bf 8039910 <syscall_xsr+0x48>
 8039908:	a4 a4 00 04 	l.andi r5,r4,0x4
 803990c:	a8 63 00 02 	l.ori r3,r3,0x2
 8039910:	bc 05 00 00 	l.sfeqi r5,0x0
 8039914:	10 00 00 03 	l.bf 8039920 <syscall_xsr+0x58>
 8039918:	9c 40 ff fb 	l.addi r2,r0,0xfffffffb
 803991c:	e0 63 10 03 	l.and r3,r3,r2
 8039920:	a4 84 00 08 	l.andi r4,r4,0x8
 8039924:	bc 04 00 00 	l.sfeqi r4,0x0
 8039928:	10 00 00 03 	l.bf 8039934 <syscall_xsr+0x6c>
 803992c:	9c 80 00 40 	l.addi r4,r0,0x40
 8039930:	a8 63 00 04 	l.ori r3,r3,0x4
 8039934:	c0 04 18 00 	l.mtspr r4,r3,0x0
 8039938:	9c 21 00 04 	l.addi r1,r1,0x4
 803993c:	44 00 48 00 	l.jr r9
 8039940:	84 41 ff fc 	l.lwz r2,0xfffffffc(r1)

08039944 <buserr_xsr>:
 8039944:	d7 e1 4f fc 	l.sw 0xfffffffc(r1),r9
 8039948:	07 ff ff d6 	l.jal 80398a0 <disable_htb>
 803994c:	9c 21 ff f0 	l.addi r1,r1,0xfffffff0
 8039950:	04 00 10 bc 	l.jal 803dc40 <CpuIdGet>
 8039954:	15 00 00 00 	l.nop 0x0
 8039958:	9c 80 00 20 	l.addi r4,r0,0x20
 803995c:	b4 84 00 00 	l.mfspr r4,r4,0x0
 8039960:	9c 60 00 30 	l.addi r3,r0,0x30
 8039964:	b4 63 00 00 	l.mfspr r3,r3,0x0
 8039968:	d4 01 18 08 	l.sw 0x8(r1),r3
 803996c:	18 60 08 03 	l.movhi r3,0x803
 8039970:	d4 01 20 04 	l.sw 0x4(r1),r4
 8039974:	a8 63 47 9c 	l.ori r3,r3,0x479c
 8039978:	04 00 03 e3 	l.jal 803a904 <_ecm_printf>
 803997c:	d4 01 58 00 	l.sw 0x0(r1),r11
 8039980:	18 60 08 03 	l.movhi r3,0x803
 8039984:	04 00 03 e0 	l.jal 803a904 <_ecm_printf>
 8039988:	a8 63 47 e1 	l.ori r3,r3,0x47e1
 803998c:	9c 60 60 11 	l.addi r3,r0,0x6011
 8039990:	b4 63 00 00 	l.mfspr r3,r3,0x0
 8039994:	bc 03 00 00 	l.sfeqi r3,0x0
 8039998:	0c 00 00 07 	l.bnf 80399b4 <buserr_xsr+0x70>
 803999c:	9c 60 60 00 	l.addi r3,r0,0x6000
 80399a0:	9c 60 68 11 	l.addi r3,r0,0x6811
 80399a4:	b4 63 00 00 	l.mfspr r3,r3,0x0
 80399a8:	bc 03 00 00 	l.sfeqi r3,0x0
 80399ac:	10 00 00 04 	l.bf 80399bc <buserr_xsr+0x78>
 80399b0:	9c 60 68 00 	l.addi r3,r0,0x6800
 80399b4:	07 ff ff b9 	l.jal 8039898 <print_hwp_info>
 80399b8:	15 00 00 00 	l.nop 0x0
 80399bc:	04 00 01 9c 	l.jal 803a02c <exit>
 80399c0:	9c 60 ff ff 	l.addi r3,r0,0xffffffff

080399c4 <get_xsr_str>:
 80399c4:	d7 e1 17 fc 	l.sw 0xfffffffc(r1),r2
 80399c8:	18 40 08 08 	l.movhi r2,0x808
 80399cc:	b8 63 00 02 	l.slli r3,r3,0x2
 80399d0:	a8 42 e1 60 	l.ori r2,r2,0xe160
 80399d4:	9c 21 ff fc 	l.addi r1,r1,0xfffffffc
 80399d8:	e0 63 10 00 	l.add r3,r3,r2
 80399dc:	85 63 00 00 	l.lwz r11,0x0(r3)
 80399e0:	9c 21 00 04 	l.addi r1,r1,0x4
 80399e4:	44 00 48 00 	l.jr r9
 80399e8:	84 41 ff fc 	l.lwz r2,0xfffffffc(r1)

080399ec <get_xsr>:
 80399ec:	d7 e1 17 fc 	l.sw 0xfffffffc(r1),r2
 80399f0:	18 40 08 08 	l.movhi r2,0x808
 80399f4:	b8 63 00 02 	l.slli r3,r3,0x2
 80399f8:	a8 42 e1 9c 	l.ori r2,r2,0xe19c
 80399fc:	9c 21 ff fc 	l.addi r1,r1,0xfffffffc
 8039a00:	e0 63 10 00 	l.add r3,r3,r2
 8039a04:	85 63 00 00 	l.lwz r11,0x0(r3)
 8039a08:	9c 21 00 04 	l.addi r1,r1,0x4
 8039a0c:	44 00 48 00 	l.jr r9
 8039a10:	84 41 ff fc 	l.lwz r2,0xfffffffc(r1)

08039a14 <add_xsr>:
 8039a14:	d7 e1 17 fc 	l.sw 0xfffffffc(r1),r2
 8039a18:	18 40 08 08 	l.movhi r2,0x808
 8039a1c:	b8 63 00 02 	l.slli r3,r3,0x2
 8039a20:	a8 42 e1 9c 	l.ori r2,r2,0xe19c
 8039a24:	9c 21 ff fc 	l.addi r1,r1,0xfffffffc
 8039a28:	e0 63 10 00 	l.add r3,r3,r2
 8039a2c:	d4 03 20 00 	l.sw 0x0(r3),r4
 8039a30:	9c 21 00 04 	l.addi r1,r1,0x4
 8039a34:	44 00 48 00 	l.jr r9
 8039a38:	84 41 ff fc 	l.lwz r2,0xfffffffc(r1)

08039a3c <sys_enable_timer>:
 8039a3c:	20 00 00 02 	l.sys 0x2
 8039a40:	44 00 48 00 	l.jr r9
 8039a44:	15 00 00 00 	l.nop 0x0

08039a48 <sys_disable_timer>:
 8039a48:	20 00 00 01 	l.sys 0x1
 8039a4c:	44 00 48 00 	l.jr r9
 8039a50:	15 00 00 00 	l.nop 0x0

08039a54 <sys_enable_ext_int>:
 8039a54:	20 00 00 08 	l.sys 0x8
 8039a58:	44 00 48 00 	l.jr r9
 8039a5c:	15 00 00 00 	l.nop 0x0

08039a60 <sys_disable_ext_int>:
 8039a60:	20 00 00 04 	l.sys 0x4
 8039a64:	44 00 48 00 	l.jr r9
 8039a68:	15 00 00 00 	l.nop 0x0

08039a6c <sys_enable_int>:
 8039a6c:	20 00 00 0a 	l.sys 0xa
 8039a70:	44 00 48 00 	l.jr r9
 8039a74:	15 00 00 00 	l.nop 0x0

08039a78 <sys_disable_int>:
 8039a78:	20 00 00 05 	l.sys 0x5
 8039a7c:	44 00 48 00 	l.jr r9
 8039a80:	15 00 00 00 	l.nop 0x0

08039a84 <reset_timer_ticks>:
 8039a84:	18 60 08 0e 	l.movhi r3,0x80e
 8039a88:	d7 e1 17 fc 	l.sw 0xfffffffc(r1),r2
 8039a8c:	a8 63 63 40 	l.ori r3,r3,0x6340
 8039a90:	9c 40 00 00 	l.addi r2,r0,0x0
 8039a94:	9c 21 ff fc 	l.addi r1,r1,0xfffffffc
 8039a98:	d4 03 10 00 	l.sw 0x0(r3),r2
 8039a9c:	9c 21 00 04 	l.addi r1,r1,0x4
 8039aa0:	44 00 48 00 	l.jr r9
 8039aa4:	84 41 ff fc 	l.lwz r2,0xfffffffc(r1)

08039aa8 <get_timer_ticks>:
 8039aa8:	18 60 08 0e 	l.movhi r3,0x80e
 8039aac:	a8 63 63 40 	l.ori r3,r3,0x6340
 8039ab0:	85 63 00 00 	l.lwz r11,0x0(r3)
 8039ab4:	44 00 48 00 	l.jr r9
 8039ab8:	15 00 00 00 	l.nop 0x0

08039abc <get_timer_ms_per_ticks>:
 8039abc:	18 60 08 0e 	l.movhi r3,0x80e
 8039ac0:	a8 63 76 5c 	l.ori r3,r3,0x765c
 8039ac4:	44 00 48 00 	l.jr r9
 8039ac8:	85 63 00 00 	l.lwz r11,0x0(r3)

08039acc <stop_timer>:
 8039acc:	d7 e1 4f fc 	l.sw 0xfffffffc(r1),r9
 8039ad0:	07 ff ff de 	l.jal 8039a48 <sys_disable_timer>
 8039ad4:	9c 21 ff fc 	l.addi r1,r1,0xfffffffc
 8039ad8:	9c 80 00 00 	l.addi r4,r0,0x0
 8039adc:	9c 60 50 00 	l.addi r3,r0,0x5000
 8039ae0:	c0 03 20 00 	l.mtspr r3,r4,0x0
 8039ae4:	9c 21 00 04 	l.addi r1,r1,0x4
 8039ae8:	85 21 ff fc 	l.lwz r9,0xfffffffc(r1)
 8039aec:	44 00 48 00 	l.jr r9
 8039af0:	15 00 00 00 	l.nop 0x0

08039af4 <init_timer>:
 8039af4:	d7 e1 4f fc 	l.sw 0xfffffffc(r1),r9
 8039af8:	d7 e1 17 f8 	l.sw 0xfffffff8(r1),r2
 8039afc:	9c 21 ff f8 	l.addi r1,r1,0xfffffff8
 8039b00:	07 ff ff f3 	l.jal 8039acc <stop_timer>
 8039b04:	a8 43 00 00 	l.ori r2,r3,0x0
 8039b08:	18 60 08 0e 	l.movhi r3,0x80e
 8039b0c:	9c 80 00 00 	l.addi r4,r0,0x0
 8039b10:	a8 63 63 40 	l.ori r3,r3,0x6340
 8039b14:	d4 03 20 00 	l.sw 0x0(r3),r4
 8039b18:	9c 80 03 e8 	l.addi r4,r0,0x3e8
 8039b1c:	18 60 08 0e 	l.movhi r3,0x80e
 8039b20:	e0 84 13 09 	l.div r4,r4,r2
 8039b24:	a8 63 76 5c 	l.ori r3,r3,0x765c
 8039b28:	d4 03 20 00 	l.sw 0x0(r3),r4
 8039b2c:	18 60 0b e8 	l.movhi r3,0xbe8
 8039b30:	18 80 60 00 	l.movhi r4,0x6000
 8039b34:	a8 63 b4 c0 	l.ori r3,r3,0xb4c0
 8039b38:	e0 43 13 09 	l.div r2,r3,r2
 8039b3c:	18 60 0f ff 	l.movhi r3,0xfff
 8039b40:	a8 63 ff ff 	l.ori r3,r3,0xffff
 8039b44:	e0 42 18 03 	l.and r2,r2,r3
 8039b48:	9c 60 50 00 	l.addi r3,r0,0x5000
 8039b4c:	e0 42 20 04 	l.or r2,r2,r4
 8039b50:	c0 03 10 00 	l.mtspr r3,r2,0x0
 8039b54:	9c 21 00 08 	l.addi r1,r1,0x8
 8039b58:	85 21 ff fc 	l.lwz r9,0xfffffffc(r1)
 8039b5c:	03 ff ff b8 	l.j 8039a3c <sys_enable_timer>
 8039b60:	84 41 ff f8 	l.lwz r2,0xfffffff8(r1)

08039b64 <clear_timer>:
 8039b64:	d7 e1 17 fc 	l.sw 0xfffffffc(r1),r2
 8039b68:	9c 60 77 00 	l.addi r3,r0,0x7700
 8039b6c:	9c 21 ff fc 	l.addi r1,r1,0xfffffffc
 8039b70:	b4 83 00 00 	l.mfspr r4,r3,0x0
 8039b74:	9c 40 ff fe 	l.addi r2,r0,0xfffffffe
 8039b78:	e0 84 10 03 	l.and r4,r4,r2
 8039b7c:	c0 03 20 00 	l.mtspr r3,r4,0x0
 8039b80:	9c 60 50 00 	l.addi r3,r0,0x5000
 8039b84:	b4 83 00 00 	l.mfspr r4,r3,0x0
 8039b88:	18 40 ef ff 	l.movhi r2,0xefff
 8039b8c:	a8 42 ff ff 	l.ori r2,r2,0xffff
 8039b90:	e0 84 10 03 	l.and r4,r4,r2
 8039b94:	c0 03 20 00 	l.mtspr r3,r4,0x0
 8039b98:	9c 80 00 07 	l.addi r4,r0,0x7
 8039b9c:	9c 60 77 00 	l.addi r3,r0,0x7700
 8039ba0:	c0 03 20 00 	l.mtspr r3,r4,0x0
 8039ba4:	9c 21 00 04 	l.addi r1,r1,0x4
 8039ba8:	44 00 48 00 	l.jr r9
 8039bac:	84 41 ff fc 	l.lwz r2,0xfffffffc(r1)

08039bb0 <get_tick>:
 8039bb0:	18 60 04 00 	l.movhi r3,0x400
 8039bb4:	a8 63 4c 40 	l.ori r3,r3,0x4c40
 8039bb8:	85 63 00 00 	l.lwz r11,0x0(r3)
 8039bbc:	44 00 48 00 	l.jr r9
 8039bc0:	15 00 00 00 	l.nop 0x0

08039bc4 <timer_tick_init>:
 8039bc4:	9c c0 03 e8 	l.addi r6,r0,0x3e8
 8039bc8:	18 a0 04 00 	l.movhi r5,0x400
 8039bcc:	e0 c6 23 0a 	l.divu r6,r6,r4
 8039bd0:	a8 a5 4c 40 	l.ori r5,r5,0x4c40
 8039bd4:	d7 e1 17 fc 	l.sw 0xfffffffc(r1),r2
 8039bd8:	d4 05 20 04 	l.sw 0x4(r5),r4
 8039bdc:	d4 05 30 08 	l.sw 0x8(r5),r6
 8039be0:	9c 21 ff fc 	l.addi r1,r1,0xfffffffc
 8039be4:	18 c0 60 00 	l.movhi r6,0x6000
 8039be8:	9c a0 50 00 	l.addi r5,r0,0x5000
 8039bec:	c0 05 30 00 	l.mtspr r5,r6,0x0
 8039bf0:	b4 c5 00 00 	l.mfspr r6,r5,0x0
 8039bf4:	e0 63 23 0a 	l.divu r3,r3,r4
 8039bf8:	18 40 0f ff 	l.movhi r2,0xfff
 8039bfc:	a8 42 ff ff 	l.ori r2,r2,0xffff
 8039c00:	e0 63 10 03 	l.and r3,r3,r2
 8039c04:	e0 66 18 04 	l.or r3,r6,r3
 8039c08:	c0 05 18 00 	l.mtspr r5,r3,0x0
 8039c0c:	9c 60 00 11 	l.addi r3,r0,0x11
 8039c10:	b4 83 00 00 	l.mfspr r4,r3,0x0
 8039c14:	a8 84 00 02 	l.ori r4,r4,0x2
 8039c18:	c0 03 20 00 	l.mtspr r3,r4,0x0
 8039c1c:	9c 21 00 04 	l.addi r1,r1,0x4
 8039c20:	44 00 48 00 	l.jr r9
 8039c24:	84 41 ff fc 	l.lwz r2,0xfffffffc(r1)

08039c28 <timer_init>:
 8039c28:	18 80 04 00 	l.movhi r4,0x400
 8039c2c:	d7 e1 17 fc 	l.sw 0xfffffffc(r1),r2
 8039c30:	a8 84 4c 40 	l.ori r4,r4,0x4c40
 8039c34:	9c 21 ff fc 	l.addi r1,r1,0xfffffffc
 8039c38:	d4 04 18 0c 	l.sw 0xc(r4),r3
 8039c3c:	9c 64 00 18 	l.addi r3,r4,0x18
 8039c40:	9c 80 00 01 	l.addi r4,r0,0x1
 8039c44:	18 40 04 00 	l.movhi r2,0x400
 8039c48:	d4 03 20 00 	l.sw 0x0(r3),r4
 8039c4c:	a8 42 4d d8 	l.ori r2,r2,0x4dd8
 8039c50:	9c 63 00 18 	l.addi r3,r3,0x18
 8039c54:	e4 23 10 00 	l.sfne r3,r2
 8039c58:	13 ff ff fb 	l.bf 8039c44 <timer_init+0x1c>
 8039c5c:	15 00 00 00 	l.nop 0x0
 8039c60:	9c 21 00 04 	l.addi r1,r1,0x4
 8039c64:	44 00 48 00 	l.jr r9
 8039c68:	84 41 ff fc 	l.lwz r2,0xfffffffc(r1)

08039c6c <timer_get_ms>:
 8039c6c:	18 60 04 00 	l.movhi r3,0x400
 8039c70:	9d 60 50 01 	l.addi r11,r0,0x5001
 8039c74:	a8 63 4c 40 	l.ori r3,r3,0x4c40
 8039c78:	84 83 00 00 	l.lwz r4,0x0(r3)
 8039c7c:	b5 6b 00 00 	l.mfspr r11,r11,0x0
 8039c80:	18 a0 00 03 	l.movhi r5,0x3
 8039c84:	84 63 00 08 	l.lwz r3,0x8(r3)
 8039c88:	a8 a5 0c 78 	l.ori r5,r5,0xc78
 8039c8c:	e0 64 1b 06 	l.mul r3,r4,r3
 8039c90:	e1 6b 2b 0a 	l.divu r11,r11,r5
 8039c94:	44 00 48 00 	l.jr r9
 8039c98:	e1 6b 18 00 	l.add r11,r11,r3

08039c9c <timer_delay>:
 8039c9c:	18 80 04 00 	l.movhi r4,0x400
 8039ca0:	a8 84 4c 40 	l.ori r4,r4,0x4c40
 8039ca4:	84 c4 00 08 	l.lwz r6,0x8(r4)
 8039ca8:	84 a4 00 00 	l.lwz r5,0x0(r4)
 8039cac:	e0 63 33 0a 	l.divu r3,r3,r6
 8039cb0:	e0 63 28 00 	l.add r3,r3,r5
 8039cb4:	84 a4 00 00 	l.lwz r5,0x0(r4)
 8039cb8:	e4 85 18 00 	l.sfltu r5,r3
 8039cbc:	13 ff ff fe 	l.bf 8039cb4 <timer_delay+0x18>
 8039cc0:	15 00 00 00 	l.nop 0x0
 8039cc4:	44 00 48 00 	l.jr r9
 8039cc8:	15 00 00 00 	l.nop 0x0

08039ccc <timer_sched_timeout_cb>:
 8039ccc:	18 e0 04 00 	l.movhi r7,0x400
 8039cd0:	d7 e1 17 fc 	l.sw 0xfffffffc(r1),r2
 8039cd4:	a8 e7 4c 58 	l.ori r7,r7,0x4c58
 8039cd8:	9c 21 ff fc 	l.addi r1,r1,0xfffffffc
 8039cdc:	9d 60 00 00 	l.addi r11,r0,0x0
 8039ce0:	85 07 00 00 	l.lwz r8,0x0(r7)
 8039ce4:	bc 08 00 00 	l.sfeqi r8,0x0
 8039ce8:	10 00 00 1b 	l.bf 8039d54 <timer_sched_timeout_cb+0x88>
 8039cec:	9d 0b 00 01 	l.addi r8,r11,0x1
 8039cf0:	19 80 04 00 	l.movhi r12,0x400
 8039cf4:	18 40 04 00 	l.movhi r2,0x400
 8039cf8:	a9 8c 4c 40 	l.ori r12,r12,0x4c40
 8039cfc:	a8 42 4c 40 	l.ori r2,r2,0x4c40
 8039d00:	84 ec 00 08 	l.lwz r7,0x8(r12)
 8039d04:	bc 2b ff ff 	l.sfnei r11,0xffffffff
 8039d08:	e0 63 3b 0a 	l.divu r3,r3,r7
 8039d0c:	e0 eb 58 00 	l.add r7,r11,r11
 8039d10:	e0 e7 58 00 	l.add r7,r7,r11
 8039d14:	b8 e7 00 03 	l.slli r7,r7,0x3
 8039d18:	e0 e7 60 00 	l.add r7,r7,r12
 8039d1c:	85 8c 00 00 	l.lwz r12,0x0(r12)
 8039d20:	d4 07 18 10 	l.sw 0x10(r7),r3
 8039d24:	e0 63 60 00 	l.add r3,r3,r12
 8039d28:	d4 07 20 1c 	l.sw 0x1c(r7),r4
 8039d2c:	d4 07 18 14 	l.sw 0x14(r7),r3
 8039d30:	e0 68 40 00 	l.add r3,r8,r8
 8039d34:	e1 03 40 00 	l.add r8,r3,r8
 8039d38:	b9 08 00 03 	l.slli r8,r8,0x3
 8039d3c:	e1 08 10 00 	l.add r8,r8,r2
 8039d40:	9c 40 00 00 	l.addi r2,r0,0x0
 8039d44:	10 00 00 0a 	l.bf 8039d6c <timer_sched_timeout_cb+0xa0>
 8039d48:	d4 08 10 00 	l.sw 0x0(r8),r2
 8039d4c:	00 00 00 0b 	l.j 8039d78 <timer_sched_timeout_cb+0xac>
 8039d50:	9c 21 00 04 	l.addi r1,r1,0x4
 8039d54:	a9 68 00 00 	l.ori r11,r8,0x0
 8039d58:	bc 28 00 10 	l.sfnei r8,0x10
 8039d5c:	13 ff ff e1 	l.bf 8039ce0 <timer_sched_timeout_cb+0x14>
 8039d60:	9c e7 00 18 	l.addi r7,r7,0x18
 8039d64:	00 00 00 04 	l.j 8039d74 <timer_sched_timeout_cb+0xa8>
 8039d68:	9d 60 ff ff 	l.addi r11,r0,0xffffffff
 8039d6c:	d4 07 28 20 	l.sw 0x20(r7),r5
 8039d70:	d4 07 30 24 	l.sw 0x24(r7),r6
 8039d74:	9c 21 00 04 	l.addi r1,r1,0x4
 8039d78:	44 00 48 00 	l.jr r9
 8039d7c:	84 41 ff fc 	l.lwz r2,0xfffffffc(r1)

08039d80 <timer_cancel_timeout>:
 8039d80:	d7 e1 4f fc 	l.sw 0xfffffffc(r1),r9
 8039d84:	d7 e1 17 f8 	l.sw 0xfffffff8(r1),r2
 8039d88:	bc 43 00 0f 	l.sfgtui r3,0xf
 8039d8c:	10 00 00 0f 	l.bf 8039dc8 <timer_cancel_timeout+0x48>
 8039d90:	9c 21 ff f8 	l.addi r1,r1,0xfffffff8
 8039d94:	9c 63 00 01 	l.addi r3,r3,0x1
 8039d98:	18 40 04 00 	l.movhi r2,0x400
 8039d9c:	e0 83 18 00 	l.add r4,r3,r3
 8039da0:	a8 42 4c 40 	l.ori r2,r2,0x4c40
 8039da4:	e0 64 18 00 	l.add r3,r4,r3
 8039da8:	9c 80 00 01 	l.addi r4,r0,0x1
 8039dac:	b8 63 00 03 	l.slli r3,r3,0x3
 8039db0:	e0 63 10 00 	l.add r3,r3,r2
 8039db4:	d4 03 20 00 	l.sw 0x0(r3),r4
 8039db8:	9c 21 00 08 	l.addi r1,r1,0x8
 8039dbc:	85 21 ff fc 	l.lwz r9,0xfffffffc(r1)
 8039dc0:	44 00 48 00 	l.jr r9
 8039dc4:	84 41 ff f8 	l.lwz r2,0xfffffff8(r1)
 8039dc8:	9c 21 00 08 	l.addi r1,r1,0x8
 8039dcc:	18 60 08 03 	l.movhi r3,0x803
 8039dd0:	85 21 ff fc 	l.lwz r9,0xfffffffc(r1)
 8039dd4:	a8 63 49 28 	l.ori r3,r3,0x4928
 8039dd8:	00 00 02 cb 	l.j 803a904 <_ecm_printf>
 8039ddc:	84 41 ff f8 	l.lwz r2,0xfffffff8(r1)

08039de0 <gettimeofday>:
 8039de0:	d7 e1 4f fc 	l.sw 0xfffffffc(r1),r9
 8039de4:	d7 e1 17 f8 	l.sw 0xfffffff8(r1),r2
 8039de8:	9c 21 ff f8 	l.addi r1,r1,0xfffffff8
 8039dec:	07 ff ff a0 	l.jal 8039c6c <timer_get_ms>
 8039df0:	a8 43 00 00 	l.ori r2,r3,0x0
 8039df4:	9c 80 03 e8 	l.addi r4,r0,0x3e8
 8039df8:	e0 6b 23 0a 	l.divu r3,r11,r4
 8039dfc:	d4 02 18 00 	l.sw 0x0(r2),r3
 8039e00:	e0 63 23 06 	l.mul r3,r3,r4
 8039e04:	e1 6b 18 02 	l.sub r11,r11,r3
 8039e08:	e0 8b 23 06 	l.mul r4,r11,r4
 8039e0c:	d4 02 20 04 	l.sw 0x4(r2),r4
 8039e10:	9c 21 00 08 	l.addi r1,r1,0x8
 8039e14:	9d 60 00 00 	l.addi r11,r0,0x0
 8039e18:	85 21 ff fc 	l.lwz r9,0xfffffffc(r1)
 8039e1c:	44 00 48 00 	l.jr r9
 8039e20:	84 41 ff f8 	l.lwz r2,0xfffffff8(r1)

08039e24 <timeoffset>:
 8039e24:	d7 e1 4f fc 	l.sw 0xfffffffc(r1),r9
 8039e28:	d7 e1 17 f8 	l.sw 0xfffffff8(r1),r2
 8039e2c:	9c 21 ff f0 	l.addi r1,r1,0xfffffff0
 8039e30:	a8 43 00 00 	l.ori r2,r3,0x0
 8039e34:	9c 80 00 00 	l.addi r4,r0,0x0
 8039e38:	07 ff ff ea 	l.jal 8039de0 <gettimeofday>
 8039e3c:	a8 61 00 00 	l.ori r3,r1,0x0
 8039e40:	85 61 00 00 	l.lwz r11,0x0(r1)
 8039e44:	9c 21 00 10 	l.addi r1,r1,0x10
 8039e48:	e1 62 58 00 	l.add r11,r2,r11
 8039e4c:	85 21 ff fc 	l.lwz r9,0xfffffffc(r1)
 8039e50:	44 00 48 00 	l.jr r9
 8039e54:	84 41 ff f8 	l.lwz r2,0xfffffff8(r1)

08039e58 <hw_bench_tic>:
 8039e58:	9c 80 76 00 	l.addi r4,r0,0x7600
 8039e5c:	b4 84 00 00 	l.mfspr r4,r4,0x0
 8039e60:	18 60 08 08 	l.movhi r3,0x808
 8039e64:	a8 63 ee 4c 	l.ori r3,r3,0xee4c
 8039e68:	d4 03 20 00 	l.sw 0x0(r3),r4
 8039e6c:	85 63 00 00 	l.lwz r11,0x0(r3)
 8039e70:	44 00 48 00 	l.jr r9
 8039e74:	15 00 00 00 	l.nop 0x0

08039e78 <hw_bench_toc>:
 8039e78:	9c 80 76 00 	l.addi r4,r0,0x7600
 8039e7c:	b4 84 00 00 	l.mfspr r4,r4,0x0
 8039e80:	18 60 08 08 	l.movhi r3,0x808
 8039e84:	a8 63 ee 50 	l.ori r3,r3,0xee50
 8039e88:	d4 03 20 00 	l.sw 0x0(r3),r4
 8039e8c:	85 63 00 00 	l.lwz r11,0x0(r3)
 8039e90:	44 00 48 00 	l.jr r9
 8039e94:	15 00 00 00 	l.nop 0x0

08039e98 <hw_bench_time_clk>:
 8039e98:	18 60 08 08 	l.movhi r3,0x808
 8039e9c:	a8 63 ee 50 	l.ori r3,r3,0xee50
 8039ea0:	85 63 00 00 	l.lwz r11,0x0(r3)
 8039ea4:	18 60 08 08 	l.movhi r3,0x808
 8039ea8:	a8 63 ee 4c 	l.ori r3,r3,0xee4c
 8039eac:	84 83 00 00 	l.lwz r4,0x0(r3)
 8039eb0:	18 60 08 08 	l.movhi r3,0x808
 8039eb4:	e1 6b 20 02 	l.sub r11,r11,r4
 8039eb8:	a8 63 ee 54 	l.ori r3,r3,0xee54
 8039ebc:	84 63 00 00 	l.lwz r3,0x0(r3)
 8039ec0:	44 00 48 00 	l.jr r9
 8039ec4:	e1 6b 18 02 	l.sub r11,r11,r3

08039ec8 <hw_bench_timer_init>:
 8039ec8:	d7 e1 4f fc 	l.sw 0xfffffffc(r1),r9
 8039ecc:	9c 80 00 07 	l.addi r4,r0,0x7
 8039ed0:	9c 21 ff fc 	l.addi r1,r1,0xfffffffc
 8039ed4:	9c 60 77 00 	l.addi r3,r0,0x7700
 8039ed8:	c0 03 20 00 	l.mtspr r3,r4,0x0
 8039edc:	07 ff ff df 	l.jal 8039e58 <hw_bench_tic>
 8039ee0:	15 00 00 00 	l.nop 0x0
 8039ee4:	07 ff ff dd 	l.jal 8039e58 <hw_bench_tic>
 8039ee8:	15 00 00 00 	l.nop 0x0
 8039eec:	07 ff ff e3 	l.jal 8039e78 <hw_bench_toc>
 8039ef0:	15 00 00 00 	l.nop 0x0
 8039ef4:	18 60 08 08 	l.movhi r3,0x808
 8039ef8:	a8 63 ee 50 	l.ori r3,r3,0xee50
 8039efc:	84 83 00 00 	l.lwz r4,0x0(r3)
 8039f00:	18 60 08 08 	l.movhi r3,0x808
 8039f04:	a8 63 ee 4c 	l.ori r3,r3,0xee4c
 8039f08:	84 63 00 00 	l.lwz r3,0x0(r3)
 8039f0c:	e0 84 18 02 	l.sub r4,r4,r3
 8039f10:	18 60 08 08 	l.movhi r3,0x808
 8039f14:	a8 63 ee 54 	l.ori r3,r3,0xee54
 8039f18:	d4 03 20 00 	l.sw 0x0(r3),r4
 8039f1c:	84 63 00 00 	l.lwz r3,0x0(r3)
 8039f20:	9c 21 00 04 	l.addi r1,r1,0x4
 8039f24:	85 21 ff fc 	l.lwz r9,0xfffffffc(r1)
 8039f28:	44 00 48 00 	l.jr r9
 8039f2c:	15 00 00 00 	l.nop 0x0

08039f30 <printtime>:
 8039f30:	d7 e1 4f fc 	l.sw 0xfffffffc(r1),r9
 8039f34:	07 ff ff 4e 	l.jal 8039c6c <timer_get_ms>
 8039f38:	9c 21 ff f4 	l.addi r1,r1,0xfffffff4
 8039f3c:	9c 60 03 e8 	l.addi r3,r0,0x3e8
 8039f40:	e0 8b 1b 0a 	l.divu r4,r11,r3
 8039f44:	e0 64 1b 06 	l.mul r3,r4,r3
 8039f48:	e1 6b 18 02 	l.sub r11,r11,r3
 8039f4c:	18 60 08 03 	l.movhi r3,0x803
 8039f50:	d4 01 20 00 	l.sw 0x0(r1),r4
 8039f54:	a8 63 49 34 	l.ori r3,r3,0x4934
 8039f58:	04 00 02 6b 	l.jal 803a904 <_ecm_printf>
 8039f5c:	d4 01 58 04 	l.sw 0x4(r1),r11
 8039f60:	9c 21 00 0c 	l.addi r1,r1,0xc
 8039f64:	85 21 ff fc 	l.lwz r9,0xfffffffc(r1)
 8039f68:	44 00 48 00 	l.jr r9
 8039f6c:	15 00 00 00 	l.nop 0x0

08039f70 <_frnd>:
 8039f70:	18 80 08 03 	l.movhi r4,0x803
 8039f74:	d7 e1 4f fc 	l.sw 0xfffffffc(r1),r9
 8039f78:	a8 84 8c f0 	l.ori r4,r4,0x8cf0
 8039f7c:	9c 21 ff f8 	l.addi r1,r1,0xfffffff8
 8039f80:	84 84 00 00 	l.lwz r4,0x0(r4)
 8039f84:	d4 01 20 00 	l.sw 0x0(r1),r4
 8039f88:	07 ff fc 09 	l.jal 8038fac <_fadd>
 8039f8c:	84 81 00 00 	l.lwz r4,0x0(r1)
 8039f90:	07 ff fc 04 	l.jal 8038fa0 <_ftoi>
 8039f94:	a8 6b 00 00 	l.ori r3,r11,0x0
 8039f98:	9c 21 00 08 	l.addi r1,r1,0x8
 8039f9c:	85 21 ff fc 	l.lwz r9,0xfffffffc(r1)
 8039fa0:	03 ff fb fd 	l.j 8038f94 <_itof>
 8039fa4:	a8 6b 00 00 	l.ori r3,r11,0x0

08039fa8 <_fabs>:
 8039fa8:	d7 e1 17 fc 	l.sw 0xfffffffc(r1),r2
 8039fac:	9c 21 ff f4 	l.addi r1,r1,0xfffffff4
 8039fb0:	18 40 7f ff 	l.movhi r2,0x7fff
 8039fb4:	9c 21 00 0c 	l.addi r1,r1,0xc
 8039fb8:	a8 42 ff ff 	l.ori r2,r2,0xffff
 8039fbc:	e1 63 10 03 	l.and r11,r3,r2
 8039fc0:	44 00 48 00 	l.jr r9
 8039fc4:	84 41 ff fc 	l.lwz r2,0xfffffffc(r1)

08039fc8 <_fneg>:
 8039fc8:	d7 e1 17 fc 	l.sw 0xfffffffc(r1),r2
 8039fcc:	9c 21 ff f4 	l.addi r1,r1,0xfffffff4
 8039fd0:	18 40 80 00 	l.movhi r2,0x8000
 8039fd4:	9c 21 00 0c 	l.addi r1,r1,0xc
 8039fd8:	e1 63 10 00 	l.add r11,r3,r2
 8039fdc:	44 00 48 00 	l.jr r9
 8039fe0:	84 41 ff fc 	l.lwz r2,0xfffffffc(r1)

08039fe4 <disable_htb>:
 8039fe4:	d7 e1 17 fc 	l.sw 0xfffffffc(r1),r2
 8039fe8:	9c 60 77 00 	l.addi r3,r0,0x7700
 8039fec:	9c 21 ff fc 	l.addi r1,r1,0xfffffffc
 8039ff0:	b4 83 00 00 	l.mfspr r4,r3,0x0
 8039ff4:	9c 40 ff fe 	l.addi r2,r0,0xfffffffe
 8039ff8:	e0 84 10 03 	l.and r4,r4,r2
 8039ffc:	c0 03 20 00 	l.mtspr r3,r4,0x0
 803a000:	9c 21 00 04 	l.addi r1,r1,0x4
 803a004:	44 00 48 00 	l.jr r9
 803a008:	84 41 ff fc 	l.lwz r2,0xfffffffc(r1)

0803a00c <call>:
 803a00c:	d7 e1 4f fc 	l.sw 0xfffffffc(r1),r9
 803a010:	9c 21 ff fc 	l.addi r1,r1,0xfffffffc
 803a014:	48 00 18 00 	l.jalr r3
 803a018:	15 00 00 00 	l.nop 0x0
 803a01c:	9c 21 00 04 	l.addi r1,r1,0x4
 803a020:	85 21 ff fc 	l.lwz r9,0xfffffffc(r1)
 803a024:	44 00 48 00 	l.jr r9
 803a028:	15 00 00 00 	l.nop 0x0

0803a02c <exit>:
 803a02c:	d7 e1 4f fc 	l.sw 0xfffffffc(r1),r9
 803a030:	d7 e1 17 f8 	l.sw 0xfffffff8(r1),r2
 803a034:	9c 21 ff f4 	l.addi r1,r1,0xfffffff4
 803a038:	07 ff ff eb 	l.jal 8039fe4 <disable_htb>
 803a03c:	a8 43 00 00 	l.ori r2,r3,0x0
 803a040:	18 60 08 03 	l.movhi r3,0x803
 803a044:	d4 01 10 00 	l.sw 0x0(r1),r2
 803a048:	04 00 02 2f 	l.jal 803a904 <_ecm_printf>
 803a04c:	a8 63 49 8d 	l.ori r3,r3,0x498d
 803a050:	07 ff fd ca 	l.jal 8039778 <enable_jtag_ctrl_exception>
 803a054:	15 00 00 00 	l.nop 0x0
 803a058:	21 00 00 00 	l.trap 0x0
 803a05c:	00 00 00 00 	l.j 803a05c <exit+0x30>
 803a060:	15 00 00 00 	l.nop 0x0

0803a064 <report>:
 803a064:	d7 e1 17 f8 	l.sw 0xfffffff8(r1),r2
 803a068:	a8 43 00 00 	l.ori r2,r3,0x0
 803a06c:	18 60 08 03 	l.movhi r3,0x803
 803a070:	d7 e1 4f fc 	l.sw 0xfffffffc(r1),r9
 803a074:	a8 63 49 97 	l.ori r3,r3,0x4997
 803a078:	04 00 19 8b 	l.jal 80406a4 <Uart0_Str>
 803a07c:	9c 21 ff f8 	l.addi r1,r1,0xfffffff8
 803a080:	04 00 19 b1 	l.jal 8040744 <Uart0_Hex>
 803a084:	a8 62 00 00 	l.ori r3,r2,0x0
 803a088:	18 60 08 03 	l.movhi r3,0x803
 803a08c:	9c 21 00 08 	l.addi r1,r1,0x8
 803a090:	a8 63 6e 06 	l.ori r3,r3,0x6e06
 803a094:	85 21 ff fc 	l.lwz r9,0xfffffffc(r1)
 803a098:	00 00 19 83 	l.j 80406a4 <Uart0_Str>
 803a09c:	84 41 ff f8 	l.lwz r2,0xfffffff8(r1)

0803a0a0 <printf_null>:
 803a0a0:	44 00 48 00 	l.jr r9
 803a0a4:	a9 63 00 00 	l.ori r11,r3,0x0

0803a0a8 <assert_failed>:
 803a0a8:	d7 e1 4f fc 	l.sw 0xfffffffc(r1),r9
 803a0ac:	d7 e1 17 f4 	l.sw 0xfffffff4(r1),r2
 803a0b0:	d7 e1 77 f8 	l.sw 0xfffffff8(r1),r14
 803a0b4:	9c 21 ff ec 	l.addi r1,r1,0xffffffec
 803a0b8:	a9 c3 00 00 	l.ori r14,r3,0x0
 803a0bc:	07 ff ff ca 	l.jal 8039fe4 <disable_htb>
 803a0c0:	a8 44 00 00 	l.ori r2,r4,0x0
 803a0c4:	18 60 08 03 	l.movhi r3,0x803
 803a0c8:	d4 01 70 00 	l.sw 0x0(r1),r14
 803a0cc:	a8 63 49 9b 	l.ori r3,r3,0x499b
 803a0d0:	04 00 02 0d 	l.jal 803a904 <_ecm_printf>
 803a0d4:	d4 01 10 04 	l.sw 0x4(r1),r2
 803a0d8:	07 ff ff d5 	l.jal 803a02c <exit>
 803a0dc:	9c 60 ff ff 	l.addi r3,r0,0xffffffff

0803a0e0 <throwex>:
 803a0e0:	d7 e1 4f fc 	l.sw 0xfffffffc(r1),r9
 803a0e4:	d7 e1 17 ec 	l.sw 0xffffffec(r1),r2
 803a0e8:	d7 e1 77 f0 	l.sw 0xfffffff0(r1),r14
 803a0ec:	d7 e1 87 f4 	l.sw 0xfffffff4(r1),r16
 803a0f0:	d7 e1 97 f8 	l.sw 0xfffffff8(r1),r18
 803a0f4:	a8 44 00 00 	l.ori r2,r4,0x0
 803a0f8:	9c 21 ff d0 	l.addi r1,r1,0xffffffd0
 803a0fc:	18 80 08 00 	l.movhi r4,0x800
 803a100:	a9 c3 00 00 	l.ori r14,r3,0x0
 803a104:	aa 45 00 00 	l.ori r18,r5,0x0
 803a108:	9c 61 00 10 	l.addi r3,r1,0x10
 803a10c:	a8 84 00 4c 	l.ori r4,r4,0x4c
 803a110:	9c a0 00 0c 	l.addi r5,r0,0xc
 803a114:	04 01 25 ed 	l.jal 80838c8 <memcpy>
 803a118:	aa 06 00 00 	l.ori r16,r6,0x0
 803a11c:	a4 6e 00 03 	l.andi r3,r14,0x3
 803a120:	9c 81 00 1c 	l.addi r4,r1,0x1c
 803a124:	b8 63 00 02 	l.slli r3,r3,0x2
 803a128:	d4 01 90 00 	l.sw 0x0(r1),r18
 803a12c:	d4 01 80 04 	l.sw 0x4(r1),r16
 803a130:	e0 64 18 00 	l.add r3,r4,r3
 803a134:	84 63 ff f4 	l.lwz r3,0xfffffff4(r3)
 803a138:	d4 01 10 0c 	l.sw 0xc(r1),r2
 803a13c:	d4 01 18 08 	l.sw 0x8(r1),r3
 803a140:	18 60 08 03 	l.movhi r3,0x803
 803a144:	04 00 01 f0 	l.jal 803a904 <_ecm_printf>
 803a148:	a8 63 49 b5 	l.ori r3,r3,0x49b5
 803a14c:	9c 21 00 30 	l.addi r1,r1,0x30
 803a150:	85 21 ff fc 	l.lwz r9,0xfffffffc(r1)
 803a154:	84 41 ff ec 	l.lwz r2,0xffffffec(r1)
 803a158:	85 c1 ff f0 	l.lwz r14,0xfffffff0(r1)
 803a15c:	86 01 ff f4 	l.lwz r16,0xfffffff4(r1)
 803a160:	44 00 48 00 	l.jr r9
 803a164:	86 41 ff f8 	l.lwz r18,0xfffffff8(r1)

0803a168 <strrev>:
 803a168:	d7 e1 17 f8 	l.sw 0xfffffff8(r1),r2
 803a16c:	d7 e1 4f fc 	l.sw 0xfffffffc(r1),r9
 803a170:	9c 21 ff f8 	l.addi r1,r1,0xfffffff8
 803a174:	04 01 2a 76 	l.jal 8084b4c <strlen>
 803a178:	a8 43 00 00 	l.ori r2,r3,0x0
 803a17c:	9c ab ff ff 	l.addi r5,r11,0xffffffff
 803a180:	a8 82 00 00 	l.ori r4,r2,0x0
 803a184:	00 00 00 08 	l.j 803a1a4 <strrev+0x3c>
 803a188:	e0 a2 28 00 	l.add r5,r2,r5
 803a18c:	8c c4 00 00 	l.lbz r6,0x0(r4)
 803a190:	90 65 00 00 	l.lbs r3,0x0(r5)
 803a194:	d8 05 30 00 	l.sb 0x0(r5),r6
 803a198:	d8 04 18 00 	l.sb 0x0(r4),r3
 803a19c:	9c a5 ff ff 	l.addi r5,r5,0xffffffff
 803a1a0:	9c 84 00 01 	l.addi r4,r4,0x1
 803a1a4:	e4 45 20 00 	l.sfgtu r5,r4
 803a1a8:	13 ff ff f9 	l.bf 803a18c <strrev+0x24>
 803a1ac:	a9 62 00 00 	l.ori r11,r2,0x0
 803a1b0:	9c 21 00 08 	l.addi r1,r1,0x8
 803a1b4:	85 21 ff fc 	l.lwz r9,0xfffffffc(r1)
 803a1b8:	44 00 48 00 	l.jr r9
 803a1bc:	84 41 ff f8 	l.lwz r2,0xfffffff8(r1)

0803a1c0 <itoa>:
 803a1c0:	d7 e1 17 f0 	l.sw 0xfffffff0(r1),r2
 803a1c4:	d7 e1 77 f4 	l.sw 0xfffffff4(r1),r14
 803a1c8:	d7 e1 87 f8 	l.sw 0xfffffff8(r1),r16
 803a1cc:	d7 e1 4f fc 	l.sw 0xfffffffc(r1),r9
 803a1d0:	9c 45 ff fe 	l.addi r2,r5,0xfffffffe
 803a1d4:	9c 21 ff f0 	l.addi r1,r1,0xfffffff0
 803a1d8:	a9 c4 00 00 	l.ori r14,r4,0x0
 803a1dc:	bc a2 00 0e 	l.sfleui r2,0xe
 803a1e0:	10 00 00 06 	l.bf 803a1f8 <itoa+0x38>
 803a1e4:	aa 06 00 00 	l.ori r16,r6,0x0
 803a1e8:	9c 40 00 00 	l.addi r2,r0,0x0
 803a1ec:	9d c0 00 00 	l.addi r14,r0,0x0
 803a1f0:	00 00 00 1d 	l.j 803a264 <itoa+0xa4>
 803a1f4:	d8 04 10 00 	l.sb 0x0(r4),r2
 803a1f8:	b8 43 00 9f 	l.srai r2,r3,0x1f
 803a1fc:	e0 82 18 05 	l.xor r4,r2,r3
 803a200:	e0 84 10 02 	l.sub r4,r4,r2
 803a204:	a8 4e 00 00 	l.ori r2,r14,0x0
 803a208:	e0 e4 2b 09 	l.div r7,r4,r5
 803a20c:	e0 c7 2b 06 	l.mul r6,r7,r5
 803a210:	e0 84 30 02 	l.sub r4,r4,r6
 803a214:	18 c0 08 08 	l.movhi r6,0x808
 803a218:	bc 27 00 00 	l.sfnei r7,0x0
 803a21c:	a8 c6 e3 34 	l.ori r6,r6,0xe334
 803a220:	e0 84 30 00 	l.add r4,r4,r6
 803a224:	8c 84 00 00 	l.lbz r4,0x0(r4)
 803a228:	d8 02 20 00 	l.sb 0x0(r2),r4
 803a22c:	9c 42 00 01 	l.addi r2,r2,0x1
 803a230:	13 ff ff f6 	l.bf 803a208 <itoa+0x48>
 803a234:	a8 87 00 00 	l.ori r4,r7,0x0
 803a238:	bd 63 00 00 	l.sfgesi r3,0x0
 803a23c:	10 00 00 05 	l.bf 803a250 <itoa+0x90>
 803a240:	9c c0 00 00 	l.addi r6,r0,0x0
 803a244:	9c 60 00 2d 	l.addi r3,r0,0x2d
 803a248:	d8 02 18 00 	l.sb 0x0(r2),r3
 803a24c:	9c 42 00 01 	l.addi r2,r2,0x1
 803a250:	a8 6e 00 00 	l.ori r3,r14,0x0
 803a254:	d8 02 30 00 	l.sb 0x0(r2),r6
 803a258:	07 ff ff c4 	l.jal 803a168 <strrev>
 803a25c:	e0 42 70 02 	l.sub r2,r2,r14
 803a260:	d4 10 10 00 	l.sw 0x0(r16),r2
 803a264:	9c 21 00 10 	l.addi r1,r1,0x10
 803a268:	a9 6e 00 00 	l.ori r11,r14,0x0
 803a26c:	85 21 ff fc 	l.lwz r9,0xfffffffc(r1)
 803a270:	84 41 ff f0 	l.lwz r2,0xfffffff0(r1)
 803a274:	85 c1 ff f4 	l.lwz r14,0xfffffff4(r1)
 803a278:	44 00 48 00 	l.jr r9
 803a27c:	86 01 ff f8 	l.lwz r16,0xfffffff8(r1)

0803a280 <itoan>:
 803a280:	b8 e7 00 18 	l.slli r7,r7,0x18
 803a284:	d7 e1 17 fc 	l.sw 0xfffffffc(r1),r2
 803a288:	9d 65 ff fe 	l.addi r11,r5,0xfffffffe
 803a28c:	9c 21 ff fc 	l.addi r1,r1,0xfffffffc
 803a290:	bc ab 00 0e 	l.sfleui r11,0xe
 803a294:	10 00 00 06 	l.bf 803a2ac <itoan+0x2c>
 803a298:	b8 e7 00 98 	l.srai r7,r7,0x18
 803a29c:	9c 40 00 00 	l.addi r2,r0,0x0
 803a2a0:	9d 60 00 00 	l.addi r11,r0,0x0
 803a2a4:	00 00 00 46 	l.j 803a3bc <itoan+0x13c>
 803a2a8:	d8 04 10 00 	l.sb 0x0(r4),r2
 803a2ac:	bc 08 00 00 	l.sfeqi r8,0x0
 803a2b0:	10 00 00 08 	l.bf 803a2d0 <itoan+0x50>
 803a2b4:	9d 64 00 20 	l.addi r11,r4,0x20
 803a2b8:	9d 00 00 00 	l.addi r8,r0,0x0
 803a2bc:	e5 63 40 00 	l.sfges r3,r8
 803a2c0:	10 00 00 05 	l.bf 803a2d4 <itoan+0x54>
 803a2c4:	9d 80 00 00 	l.addi r12,r0,0x0
 803a2c8:	e0 60 18 02 	l.sub r3,r0,r3
 803a2cc:	9d 00 00 01 	l.addi r8,r0,0x1
 803a2d0:	9d 80 00 00 	l.addi r12,r0,0x0
 803a2d4:	e1 a3 2b 0a 	l.divu r13,r3,r5
 803a2d8:	e1 ed 2b 06 	l.mul r15,r13,r5
 803a2dc:	18 40 08 08 	l.movhi r2,0x808
 803a2e0:	e0 63 78 02 	l.sub r3,r3,r15
 803a2e4:	a8 42 e3 34 	l.ori r2,r2,0xe334
 803a2e8:	9d 8c 00 01 	l.addi r12,r12,0x1
 803a2ec:	e0 63 10 00 	l.add r3,r3,r2
 803a2f0:	bc 2d 00 00 	l.sfnei r13,0x0
 803a2f4:	8c 63 00 00 	l.lbz r3,0x0(r3)
 803a2f8:	d8 0b 18 00 	l.sb 0x0(r11),r3
 803a2fc:	a8 6d 00 00 	l.ori r3,r13,0x0
 803a300:	13 ff ff f5 	l.bf 803a2d4 <itoan+0x54>
 803a304:	9d 6b 00 01 	l.addi r11,r11,0x1
 803a308:	e0 c6 60 02 	l.sub r6,r6,r12
 803a30c:	e0 c6 40 02 	l.sub r6,r6,r8
 803a310:	a5 08 00 ff 	l.andi r8,r8,0xff
 803a314:	bc 08 00 00 	l.sfeqi r8,0x0
 803a318:	10 00 00 0d 	l.bf 803a34c <itoan+0xcc>
 803a31c:	9d 60 00 00 	l.addi r11,r0,0x0
 803a320:	ac 67 00 20 	l.xori r3,r7,0x20
 803a324:	a4 63 00 ff 	l.andi r3,r3,0xff
 803a328:	bc 03 00 00 	l.sfeqi r3,0x0
 803a32c:	10 00 00 08 	l.bf 803a34c <itoan+0xcc>
 803a330:	9c 40 00 2d 	l.addi r2,r0,0x2d
 803a334:	9d 60 00 01 	l.addi r11,r0,0x1
 803a338:	00 00 00 05 	l.j 803a34c <itoan+0xcc>
 803a33c:	d8 04 10 00 	l.sb 0x0(r4),r2
 803a340:	9c c6 ff ff 	l.addi r6,r6,0xffffffff
 803a344:	d8 03 38 00 	l.sb 0x0(r3),r7
 803a348:	9d 6b 00 01 	l.addi r11,r11,0x1
 803a34c:	bd 46 00 00 	l.sfgtsi r6,0x0
 803a350:	13 ff ff fc 	l.bf 803a340 <itoan+0xc0>
 803a354:	e0 64 58 00 	l.add r3,r4,r11
 803a358:	bc 08 00 00 	l.sfeqi r8,0x0
 803a35c:	10 00 00 0c 	l.bf 803a38c <itoan+0x10c>
 803a360:	9c 6c 00 1f 	l.addi r3,r12,0x1f
 803a364:	ac e7 00 20 	l.xori r7,r7,0x20
 803a368:	a4 e7 00 ff 	l.andi r7,r7,0xff
 803a36c:	9c e7 ff ff 	l.addi r7,r7,0xffffffff
 803a370:	bd 67 00 00 	l.sfgesi r7,0x0
 803a374:	10 00 00 06 	l.bf 803a38c <itoan+0x10c>
 803a378:	9c 40 00 2d 	l.addi r2,r0,0x2d
 803a37c:	e0 64 58 00 	l.add r3,r4,r11
 803a380:	9d 6b 00 01 	l.addi r11,r11,0x1
 803a384:	d8 03 10 00 	l.sb 0x0(r3),r2
 803a388:	9c 6c 00 1f 	l.addi r3,r12,0x1f
 803a38c:	e0 64 18 00 	l.add r3,r4,r3
 803a390:	8c 43 00 00 	l.lbz r2,0x0(r3)
 803a394:	e0 a4 58 00 	l.add r5,r4,r11
 803a398:	9d 8c ff ff 	l.addi r12,r12,0xffffffff
 803a39c:	d8 05 10 00 	l.sb 0x0(r5),r2
 803a3a0:	9d 6b 00 01 	l.addi r11,r11,0x1
 803a3a4:	bd 4c 00 00 	l.sfgtsi r12,0x0
 803a3a8:	13 ff ff fa 	l.bf 803a390 <itoan+0x110>
 803a3ac:	9c 63 ff ff 	l.addi r3,r3,0xffffffff
 803a3b0:	e0 84 58 00 	l.add r4,r4,r11
 803a3b4:	9c 40 00 00 	l.addi r2,r0,0x0
 803a3b8:	d8 04 10 00 	l.sb 0x0(r4),r2
 803a3bc:	9c 21 00 04 	l.addi r1,r1,0x4
 803a3c0:	44 00 48 00 	l.jr r9
 803a3c4:	84 41 ff fc 	l.lwz r2,0xfffffffc(r1)

0803a3c8 <uitoan>:
 803a3c8:	b8 e7 00 18 	l.slli r7,r7,0x18
 803a3cc:	d7 e1 17 f4 	l.sw 0xfffffff4(r1),r2
 803a3d0:	d7 e1 77 f8 	l.sw 0xfffffff8(r1),r14
 803a3d4:	d7 e1 4f fc 	l.sw 0xfffffffc(r1),r9
 803a3d8:	a9 c4 00 00 	l.ori r14,r4,0x0
 803a3dc:	9c 85 ff fe 	l.addi r4,r5,0xfffffffe
 803a3e0:	9c 21 ff f4 	l.addi r1,r1,0xfffffff4
 803a3e4:	b8 e7 00 98 	l.srai r7,r7,0x18
 803a3e8:	bc a4 00 0e 	l.sfleui r4,0xe
 803a3ec:	10 00 00 06 	l.bf 803a404 <uitoan+0x3c>
 803a3f0:	a8 4e 00 00 	l.ori r2,r14,0x0
 803a3f4:	9c 40 00 00 	l.addi r2,r0,0x0
 803a3f8:	9d 60 00 00 	l.addi r11,r0,0x0
 803a3fc:	00 00 00 1b 	l.j 803a468 <uitoan+0xa0>
 803a400:	d8 0e 10 00 	l.sb 0x0(r14),r2
 803a404:	e0 83 2b 0a 	l.divu r4,r3,r5
 803a408:	e1 04 2b 06 	l.mul r8,r4,r5
 803a40c:	e0 63 40 02 	l.sub r3,r3,r8
 803a410:	19 00 08 08 	l.movhi r8,0x808
 803a414:	bc 24 00 00 	l.sfnei r4,0x0
 803a418:	a9 08 e3 34 	l.ori r8,r8,0xe334
 803a41c:	e0 63 40 00 	l.add r3,r3,r8
 803a420:	8c 63 00 00 	l.lbz r3,0x0(r3)
 803a424:	d8 02 18 00 	l.sb 0x0(r2),r3
 803a428:	9c 42 00 01 	l.addi r2,r2,0x1
 803a42c:	13 ff ff f6 	l.bf 803a404 <uitoan+0x3c>
 803a430:	a8 64 00 00 	l.ori r3,r4,0x0
 803a434:	00 00 00 05 	l.j 803a448 <uitoan+0x80>
 803a438:	e0 62 70 02 	l.sub r3,r2,r14
 803a43c:	d8 02 38 00 	l.sb 0x0(r2),r7
 803a440:	9c 63 00 01 	l.addi r3,r3,0x1
 803a444:	9c 42 00 01 	l.addi r2,r2,0x1
 803a448:	e5 83 30 00 	l.sflts r3,r6
 803a44c:	13 ff ff fc 	l.bf 803a43c <uitoan+0x74>
 803a450:	15 00 00 00 	l.nop 0x0
 803a454:	9c 60 00 00 	l.addi r3,r0,0x0
 803a458:	d8 02 18 00 	l.sb 0x0(r2),r3
 803a45c:	07 ff ff 43 	l.jal 803a168 <strrev>
 803a460:	a8 6e 00 00 	l.ori r3,r14,0x0
 803a464:	e1 62 70 02 	l.sub r11,r2,r14
 803a468:	9c 21 00 0c 	l.addi r1,r1,0xc
 803a46c:	85 21 ff fc 	l.lwz r9,0xfffffffc(r1)
 803a470:	84 41 ff f4 	l.lwz r2,0xfffffff4(r1)
 803a474:	44 00 48 00 	l.jr r9
 803a478:	85 c1 ff f8 	l.lwz r14,0xfffffff8(r1)

0803a47c <enx_atoull>:
 803a47c:	d7 e1 17 fc 	l.sw 0xfffffffc(r1),r2
 803a480:	a8 83 00 00 	l.ori r4,r3,0x0
 803a484:	9c 21 ff fc 	l.addi r1,r1,0xfffffffc
 803a488:	9c 40 00 00 	l.addi r2,r0,0x0
 803a48c:	00 00 00 20 	l.j 803a50c <enx_atoull+0x90>
 803a490:	9c 60 00 00 	l.addi r3,r0,0x0
 803a494:	e0 43 18 00 	l.add r2,r3,r3
 803a498:	e4 82 18 00 	l.sfltu r2,r3
 803a49c:	10 00 00 03 	l.bf 803a4a8 <enx_atoull+0x2c>
 803a4a0:	9d 60 00 01 	l.addi r11,r0,0x1
 803a4a4:	9d 60 00 00 	l.addi r11,r0,0x0
 803a4a8:	e1 08 40 00 	l.add r8,r8,r8
 803a4ac:	b8 62 00 5e 	l.srli r3,r2,0x1e
 803a4b0:	e1 0b 40 00 	l.add r8,r11,r8
 803a4b4:	b8 a8 00 02 	l.slli r5,r8,0x2
 803a4b8:	e0 a3 28 04 	l.or r5,r3,r5
 803a4bc:	b8 62 00 02 	l.slli r3,r2,0x2
 803a4c0:	e0 62 18 00 	l.add r3,r2,r3
 803a4c4:	e4 83 10 00 	l.sfltu r3,r2
 803a4c8:	10 00 00 03 	l.bf 803a4d4 <enx_atoull+0x58>
 803a4cc:	9c e0 00 01 	l.addi r7,r0,0x1
 803a4d0:	9c e0 00 00 	l.addi r7,r0,0x0
 803a4d4:	9c c6 ff d0 	l.addi r6,r6,0xffffffd0
 803a4d8:	e0 a8 28 00 	l.add r5,r8,r5
 803a4dc:	b9 66 00 9f 	l.srai r11,r6,0x1f
 803a4e0:	e0 c3 30 02 	l.sub r6,r3,r6
 803a4e4:	e0 e7 28 00 	l.add r7,r7,r5
 803a4e8:	e4 46 18 00 	l.sfgtu r6,r3
 803a4ec:	10 00 00 03 	l.bf 803a4f8 <enx_atoull+0x7c>
 803a4f0:	9c 40 00 01 	l.addi r2,r0,0x1
 803a4f4:	9c 40 00 00 	l.addi r2,r0,0x0
 803a4f8:	e0 e7 58 02 	l.sub r7,r7,r11
 803a4fc:	a8 66 00 00 	l.ori r3,r6,0x0
 803a500:	e1 87 10 02 	l.sub r12,r7,r2
 803a504:	9c 84 00 01 	l.addi r4,r4,0x1
 803a508:	a8 4c 00 00 	l.ori r2,r12,0x0
 803a50c:	90 c4 00 00 	l.lbs r6,0x0(r4)
 803a510:	9c a6 ff d0 	l.addi r5,r6,0xffffffd0
 803a514:	a4 a5 00 ff 	l.andi r5,r5,0xff
 803a518:	bc a5 00 09 	l.sfleui r5,0x9
 803a51c:	13 ff ff de 	l.bf 803a494 <enx_atoull+0x18>
 803a520:	a9 02 00 00 	l.ori r8,r2,0x0
 803a524:	9c 21 00 04 	l.addi r1,r1,0x4
 803a528:	a9 62 00 00 	l.ori r11,r2,0x0
 803a52c:	a9 83 00 00 	l.ori r12,r3,0x0
 803a530:	44 00 48 00 	l.jr r9
 803a534:	84 41 ff fc 	l.lwz r2,0xfffffffc(r1)

0803a538 <enx_atoll>:
 803a538:	d7 e1 17 fc 	l.sw 0xfffffffc(r1),r2
 803a53c:	a8 83 00 00 	l.ori r4,r3,0x0
 803a540:	9c 21 ff fc 	l.addi r1,r1,0xfffffffc
 803a544:	90 44 00 00 	l.lbs r2,0x0(r4)
 803a548:	ac 62 00 09 	l.xori r3,r2,0x9
 803a54c:	a4 63 00 ff 	l.andi r3,r3,0xff
 803a550:	9c 63 ff ff 	l.addi r3,r3,0xffffffff
 803a554:	bd 83 00 00 	l.sfltsi r3,0x0
 803a558:	13 ff ff fb 	l.bf 803a544 <enx_atoll+0xc>
 803a55c:	9c 84 00 01 	l.addi r4,r4,0x1
 803a560:	9c 84 ff ff 	l.addi r4,r4,0xffffffff
 803a564:	ac a2 00 20 	l.xori r5,r2,0x20
 803a568:	a4 a5 00 ff 	l.andi r5,r5,0xff
 803a56c:	9c a5 ff ff 	l.addi r5,r5,0xffffffff
 803a570:	b8 a5 00 5f 	l.srli r5,r5,0x1f
 803a574:	bc 25 00 00 	l.sfnei r5,0x0
 803a578:	13 ff ff f3 	l.bf 803a544 <enx_atoll+0xc>
 803a57c:	9c 84 00 01 	l.addi r4,r4,0x1
 803a580:	9c 84 ff ff 	l.addi r4,r4,0xffffffff
 803a584:	bc 22 00 2b 	l.sfnei r2,0x2b
 803a588:	10 00 00 04 	l.bf 803a598 <enx_atoll+0x60>
 803a58c:	bc 22 00 2d 	l.sfnei r2,0x2d
 803a590:	00 00 00 06 	l.j 803a5a8 <enx_atoll+0x70>
 803a594:	9c 84 00 01 	l.addi r4,r4,0x1
 803a598:	10 00 00 04 	l.bf 803a5a8 <enx_atoll+0x70>
 803a59c:	15 00 00 00 	l.nop 0x0
 803a5a0:	9c 84 00 01 	l.addi r4,r4,0x1
 803a5a4:	9c a0 00 01 	l.addi r5,r0,0x1
 803a5a8:	9c 40 00 00 	l.addi r2,r0,0x0
 803a5ac:	00 00 00 20 	l.j 803a62c <enx_atoll+0xf4>
 803a5b0:	9c 60 00 00 	l.addi r3,r0,0x0
 803a5b4:	e0 43 18 00 	l.add r2,r3,r3
 803a5b8:	e4 82 18 00 	l.sfltu r2,r3
 803a5bc:	10 00 00 03 	l.bf 803a5c8 <enx_atoll+0x90>
 803a5c0:	9d 80 00 01 	l.addi r12,r0,0x1
 803a5c4:	9d 80 00 00 	l.addi r12,r0,0x0
 803a5c8:	e1 6b 58 00 	l.add r11,r11,r11
 803a5cc:	b8 62 00 5e 	l.srli r3,r2,0x1e
 803a5d0:	e1 6c 58 00 	l.add r11,r12,r11
 803a5d4:	b8 cb 00 02 	l.slli r6,r11,0x2
 803a5d8:	e0 c3 30 04 	l.or r6,r3,r6
 803a5dc:	b8 62 00 02 	l.slli r3,r2,0x2
 803a5e0:	e0 62 18 00 	l.add r3,r2,r3
 803a5e4:	e4 83 10 00 	l.sfltu r3,r2
 803a5e8:	10 00 00 03 	l.bf 803a5f4 <enx_atoll+0xbc>
 803a5ec:	9d 00 00 01 	l.addi r8,r0,0x1
 803a5f0:	9d 00 00 00 	l.addi r8,r0,0x0
 803a5f4:	9c e7 ff d0 	l.addi r7,r7,0xffffffd0
 803a5f8:	e0 cb 30 00 	l.add r6,r11,r6
 803a5fc:	b9 87 00 9f 	l.srai r12,r7,0x1f
 803a600:	e0 e3 38 02 	l.sub r7,r3,r7
 803a604:	e1 08 30 00 	l.add r8,r8,r6
 803a608:	e4 47 18 00 	l.sfgtu r7,r3
 803a60c:	10 00 00 03 	l.bf 803a618 <enx_atoll+0xe0>
 803a610:	9c 40 00 01 	l.addi r2,r0,0x1
 803a614:	9c 40 00 00 	l.addi r2,r0,0x0
 803a618:	e1 08 60 02 	l.sub r8,r8,r12
 803a61c:	a8 67 00 00 	l.ori r3,r7,0x0
 803a620:	e1 a8 10 02 	l.sub r13,r8,r2
 803a624:	9c 84 00 01 	l.addi r4,r4,0x1
 803a628:	a8 4d 00 00 	l.ori r2,r13,0x0
 803a62c:	90 e4 00 00 	l.lbs r7,0x0(r4)
 803a630:	9c c7 ff d0 	l.addi r6,r7,0xffffffd0
 803a634:	a4 c6 00 ff 	l.andi r6,r6,0xff
 803a638:	bc a6 00 09 	l.sfleui r6,0x9
 803a63c:	13 ff ff de 	l.bf 803a5b4 <enx_atoll+0x7c>
 803a640:	a9 62 00 00 	l.ori r11,r2,0x0
 803a644:	bc 25 00 00 	l.sfnei r5,0x0
 803a648:	10 00 00 0c 	l.bf 803a678 <enx_atoll+0x140>
 803a64c:	a8 c2 00 00 	l.ori r6,r2,0x0
 803a650:	e0 40 18 02 	l.sub r2,r0,r3
 803a654:	bc 42 00 00 	l.sfgtui r2,0x0
 803a658:	10 00 00 03 	l.bf 803a664 <enx_atoll+0x12c>
 803a65c:	9c 60 00 01 	l.addi r3,r0,0x1
 803a660:	a8 65 00 00 	l.ori r3,r5,0x0
 803a664:	e0 c0 30 02 	l.sub r6,r0,r6
 803a668:	a8 82 00 00 	l.ori r4,r2,0x0
 803a66c:	e0 a6 18 02 	l.sub r5,r6,r3
 803a670:	a8 64 00 00 	l.ori r3,r4,0x0
 803a674:	a8 45 00 00 	l.ori r2,r5,0x0
 803a678:	9c 21 00 04 	l.addi r1,r1,0x4
 803a67c:	a9 62 00 00 	l.ori r11,r2,0x0
 803a680:	a9 83 00 00 	l.ori r12,r3,0x0
 803a684:	44 00 48 00 	l.jr r9
 803a688:	84 41 ff fc 	l.lwz r2,0xfffffffc(r1)

0803a68c <IPtoStr>:
 803a68c:	d7 e1 17 fc 	l.sw 0xfffffffc(r1),r2
 803a690:	9c 21 ff f4 	l.addi r1,r1,0xfffffff4
 803a694:	9d 00 00 00 	l.addi r8,r0,0x0
 803a698:	d4 01 18 00 	l.sw 0x0(r1),r3
 803a69c:	a9 61 00 00 	l.ori r11,r1,0x0
 803a6a0:	9e a1 00 03 	l.addi r21,r1,0x3
 803a6a4:	a8 64 00 00 	l.ori r3,r4,0x0
 803a6a8:	9e 60 00 0a 	l.addi r19,r0,0xa
 803a6ac:	9d e1 00 04 	l.addi r15,r1,0x4
 803a6b0:	a4 c6 00 01 	l.andi r6,r6,0x1
 803a6b4:	9e 20 00 03 	l.addi r17,r0,0x3
 803a6b8:	8d 8b 00 00 	l.lbz r12,0x0(r11)
 803a6bc:	9c e0 00 00 	l.addi r7,r0,0x0
 803a6c0:	e1 ac 9b 0a 	l.divu r13,r12,r19
 803a6c4:	ba ed 00 03 	l.slli r23,r13,0x3
 803a6c8:	e3 2d 68 00 	l.add r25,r13,r13
 803a6cc:	e2 f9 b8 00 	l.add r23,r25,r23
 803a6d0:	e2 ec b8 02 	l.sub r23,r12,r23
 803a6d4:	a5 8d 00 ff 	l.andi r12,r13,0xff
 803a6d8:	9e f7 00 30 	l.addi r23,r23,0x30
 803a6dc:	e1 af 38 00 	l.add r13,r15,r7
 803a6e0:	9c e7 00 01 	l.addi r7,r7,0x1
 803a6e4:	d8 0d b8 00 	l.sb 0x0(r13),r23
 803a6e8:	bc 2c 00 00 	l.sfnei r12,0x0
 803a6ec:	13 ff ff f5 	l.bf 803a6c0 <IPtoStr+0x34>
 803a6f0:	a4 e7 00 ff 	l.andi r7,r7,0xff
 803a6f4:	bc 26 00 00 	l.sfnei r6,0x0
 803a6f8:	0c 00 00 1b 	l.bnf 803a764 <IPtoStr+0xd8>
 803a6fc:	d8 0b 60 00 	l.sb 0x0(r11),r12
 803a700:	e1 91 38 02 	l.sub r12,r17,r7
 803a704:	00 00 00 09 	l.j 803a728 <IPtoStr+0x9c>
 803a708:	a5 8c 00 ff 	l.andi r12,r12,0xff
 803a70c:	e5 88 28 00 	l.sflts r8,r5
 803a710:	0c 00 00 24 	l.bnf 803a7a0 <IPtoStr+0x114>
 803a714:	a5 8c 00 ff 	l.andi r12,r12,0xff
 803a718:	9c 40 00 30 	l.addi r2,r0,0x30
 803a71c:	9d 08 00 01 	l.addi r8,r8,0x1
 803a720:	d8 03 10 00 	l.sb 0x0(r3),r2
 803a724:	9c 63 00 01 	l.addi r3,r3,0x1
 803a728:	bc 2c 00 00 	l.sfnei r12,0x0
 803a72c:	13 ff ff f8 	l.bf 803a70c <IPtoStr+0x80>
 803a730:	9d 8c ff ff 	l.addi r12,r12,0xffffffff
 803a734:	9d 8c 00 01 	l.addi r12,r12,0x1
 803a738:	00 00 00 0c 	l.j 803a768 <IPtoStr+0xdc>
 803a73c:	bc 27 00 00 	l.sfnei r7,0x0
 803a740:	0c 00 00 18 	l.bnf 803a7a0 <IPtoStr+0x114>
 803a744:	15 00 00 00 	l.nop 0x0
 803a748:	9c e7 ff ff 	l.addi r7,r7,0xffffffff
 803a74c:	9d 08 00 01 	l.addi r8,r8,0x1
 803a750:	a4 e7 00 ff 	l.andi r7,r7,0xff
 803a754:	e1 8f 38 00 	l.add r12,r15,r7
 803a758:	8d 8c 00 00 	l.lbz r12,0x0(r12)
 803a75c:	d8 03 60 00 	l.sb 0x0(r3),r12
 803a760:	9c 63 00 01 	l.addi r3,r3,0x1
 803a764:	bc 27 00 00 	l.sfnei r7,0x0
 803a768:	13 ff ff f6 	l.bf 803a740 <IPtoStr+0xb4>
 803a76c:	e5 88 28 00 	l.sflts r8,r5
 803a770:	0c 00 00 0c 	l.bnf 803a7a0 <IPtoStr+0x114>
 803a774:	15 00 00 00 	l.nop 0x0
 803a778:	9c 40 00 2e 	l.addi r2,r0,0x2e
 803a77c:	9d 83 00 01 	l.addi r12,r3,0x1
 803a780:	e4 0b a8 00 	l.sfeq r11,r21
 803a784:	10 00 00 06 	l.bf 803a79c <IPtoStr+0x110>
 803a788:	d8 03 10 00 	l.sb 0x0(r3),r2
 803a78c:	9d 08 00 01 	l.addi r8,r8,0x1
 803a790:	9d 6b 00 01 	l.addi r11,r11,0x1
 803a794:	03 ff ff c9 	l.j 803a6b8 <IPtoStr+0x2c>
 803a798:	a8 6c 00 00 	l.ori r3,r12,0x0
 803a79c:	d8 03 38 00 	l.sb 0x0(r3),r7
 803a7a0:	9c 21 00 0c 	l.addi r1,r1,0xc
 803a7a4:	e1 63 20 02 	l.sub r11,r3,r4
 803a7a8:	44 00 48 00 	l.jr r9
 803a7ac:	84 41 ff fc 	l.lwz r2,0xfffffffc(r1)

0803a7b0 <strnstr>:
 803a7b0:	d7 e1 17 e4 	l.sw 0xffffffe4(r1),r2
 803a7b4:	d7 e1 77 e8 	l.sw 0xffffffe8(r1),r14
 803a7b8:	d7 e1 4f fc 	l.sw 0xfffffffc(r1),r9
 803a7bc:	d7 e1 87 ec 	l.sw 0xffffffec(r1),r16
 803a7c0:	d7 e1 97 f0 	l.sw 0xfffffff0(r1),r18
 803a7c4:	d7 e1 a7 f4 	l.sw 0xfffffff4(r1),r20
 803a7c8:	d7 e1 b7 f8 	l.sw 0xfffffff8(r1),r22
 803a7cc:	a8 43 00 00 	l.ori r2,r3,0x0
 803a7d0:	92 84 00 00 	l.lbs r20,0x0(r4)
 803a7d4:	9c 21 ff e4 	l.addi r1,r1,0xffffffe4
 803a7d8:	bc 14 00 00 	l.sfeqi r20,0x0
 803a7dc:	10 00 00 22 	l.bf 803a864 <strnstr+0xb4>
 803a7e0:	a9 c5 00 00 	l.ori r14,r5,0x0
 803a7e4:	9e 44 00 01 	l.addi r18,r4,0x1
 803a7e8:	04 01 28 d9 	l.jal 8084b4c <strlen>
 803a7ec:	a8 72 00 00 	l.ori r3,r18,0x0
 803a7f0:	00 00 00 03 	l.j 803a7fc <strnstr+0x4c>
 803a7f4:	aa 0b 00 00 	l.ori r16,r11,0x0
 803a7f8:	a8 56 00 00 	l.ori r2,r22,0x0
 803a7fc:	bc 0e 00 00 	l.sfeqi r14,0x0
 803a800:	10 00 00 14 	l.bf 803a850 <strnstr+0xa0>
 803a804:	15 00 00 00 	l.nop 0x0
 803a808:	90 c2 00 00 	l.lbs r6,0x0(r2)
 803a80c:	bc 06 00 00 	l.sfeqi r6,0x0
 803a810:	10 00 00 12 	l.bf 803a858 <strnstr+0xa8>
 803a814:	9d ce ff ff 	l.addi r14,r14,0xffffffff
 803a818:	e4 26 a0 00 	l.sfne r6,r20
 803a81c:	13 ff ff f7 	l.bf 803a7f8 <strnstr+0x48>
 803a820:	9e c2 00 01 	l.addi r22,r2,0x1
 803a824:	e4 50 70 00 	l.sfgtu r16,r14
 803a828:	10 00 00 0e 	l.bf 803a860 <strnstr+0xb0>
 803a82c:	a8 76 00 00 	l.ori r3,r22,0x0
 803a830:	a8 92 00 00 	l.ori r4,r18,0x0
 803a834:	04 01 29 04 	l.jal 8084c44 <strncmp>
 803a838:	a8 b0 00 00 	l.ori r5,r16,0x0
 803a83c:	bc 2b 00 00 	l.sfnei r11,0x0
 803a840:	13 ff ff ee 	l.bf 803a7f8 <strnstr+0x48>
 803a844:	15 00 00 00 	l.nop 0x0
 803a848:	00 00 00 08 	l.j 803a868 <strnstr+0xb8>
 803a84c:	9c 21 00 1c 	l.addi r1,r1,0x1c
 803a850:	00 00 00 05 	l.j 803a864 <strnstr+0xb4>
 803a854:	a8 4e 00 00 	l.ori r2,r14,0x0
 803a858:	00 00 00 03 	l.j 803a864 <strnstr+0xb4>
 803a85c:	a8 46 00 00 	l.ori r2,r6,0x0
 803a860:	9c 40 00 00 	l.addi r2,r0,0x0
 803a864:	9c 21 00 1c 	l.addi r1,r1,0x1c
 803a868:	a9 62 00 00 	l.ori r11,r2,0x0
 803a86c:	85 21 ff fc 	l.lwz r9,0xfffffffc(r1)
 803a870:	84 41 ff e4 	l.lwz r2,0xffffffe4(r1)
 803a874:	85 c1 ff e8 	l.lwz r14,0xffffffe8(r1)
 803a878:	86 01 ff ec 	l.lwz r16,0xffffffec(r1)
 803a87c:	86 41 ff f0 	l.lwz r18,0xfffffff0(r1)
 803a880:	86 81 ff f4 	l.lwz r20,0xfffffff4(r1)
 803a884:	44 00 48 00 	l.jr r9
 803a888:	86 c1 ff f8 	l.lwz r22,0xfffffff8(r1)

0803a88c <Uart0_Tx>:
 803a88c:	18 80 f8 00 	l.movhi r4,0xf800
 803a890:	84 a4 00 00 	l.lwz r5,0x0(r4)
 803a894:	a4 a5 00 20 	l.andi r5,r5,0x20
 803a898:	bc 25 00 00 	l.sfnei r5,0x0
 803a89c:	13 ff ff fd 	l.bf 803a890 <Uart0_Tx+0x4>
 803a8a0:	15 00 00 00 	l.nop 0x0
 803a8a4:	18 80 f8 00 	l.movhi r4,0xf800
 803a8a8:	a4 63 00 ff 	l.andi r3,r3,0xff
 803a8ac:	a8 84 00 04 	l.ori r4,r4,0x4
 803a8b0:	d8 04 18 02 	l.sb 0x2(r4),r3
 803a8b4:	44 00 48 00 	l.jr r9
 803a8b8:	15 00 00 00 	l.nop 0x0

0803a8bc <sprintf>:
 803a8bc:	d7 e1 4f fc 	l.sw 0xfffffffc(r1),r9
 803a8c0:	9c 21 ff fc 	l.addi r1,r1,0xfffffffc
 803a8c4:	a8 a4 00 00 	l.ori r5,r4,0x0
 803a8c8:	9c c1 00 04 	l.addi r6,r1,0x4
 803a8cc:	04 00 07 d2 	l.jal 803c814 <vsnprintf>
 803a8d0:	9c 80 ff ff 	l.addi r4,r0,0xffffffff
 803a8d4:	9c 21 00 04 	l.addi r1,r1,0x4
 803a8d8:	85 21 ff fc 	l.lwz r9,0xfffffffc(r1)
 803a8dc:	44 00 48 00 	l.jr r9
 803a8e0:	15 00 00 00 	l.nop 0x0

0803a8e4 <snprintf>:
 803a8e4:	d7 e1 4f fc 	l.sw 0xfffffffc(r1),r9
 803a8e8:	9c 21 ff fc 	l.addi r1,r1,0xfffffffc
 803a8ec:	04 00 07 ca 	l.jal 803c814 <vsnprintf>
 803a8f0:	9c c1 00 04 	l.addi r6,r1,0x4
 803a8f4:	9c 21 00 04 	l.addi r1,r1,0x4
 803a8f8:	85 21 ff fc 	l.lwz r9,0xfffffffc(r1)
 803a8fc:	44 00 48 00 	l.jr r9
 803a900:	15 00 00 00 	l.nop 0x0

0803a904 <_ecm_printf>:
 803a904:	d7 e1 4f fc 	l.sw 0xfffffffc(r1),r9
 803a908:	d7 e1 17 f4 	l.sw 0xfffffff4(r1),r2
 803a90c:	d7 e1 77 f8 	l.sw 0xfffffff8(r1),r14
 803a910:	9c 21 fb dc 	l.addi r1,r1,0xfffffbdc
 803a914:	a8 43 00 00 	l.ori r2,r3,0x0
 803a918:	9c 80 00 00 	l.addi r4,r0,0x0
 803a91c:	a8 61 00 00 	l.ori r3,r1,0x0
 803a920:	04 01 24 8d 	l.jal 8083b54 <memset>
 803a924:	9c a0 04 00 	l.addi r5,r0,0x400
 803a928:	9c 60 00 02 	l.addi r3,r0,0x2
 803a92c:	9c 80 ff b0 	l.addi r4,r0,0xffffffb0
 803a930:	d8 01 18 00 	l.sb 0x0(r1),r3
 803a934:	d8 01 20 01 	l.sb 0x1(r1),r4
 803a938:	a8 a2 00 00 	l.ori r5,r2,0x0
 803a93c:	9c 61 00 03 	l.addi r3,r1,0x3
 803a940:	9c 80 03 fd 	l.addi r4,r0,0x3fd
 803a944:	04 00 07 b4 	l.jal 803c814 <vsnprintf>
 803a948:	9c c1 04 24 	l.addi r6,r1,0x424
 803a94c:	bd ab 00 ff 	l.sflesi r11,0xff
 803a950:	10 00 00 14 	l.bf 803a9a0 <_ecm_printf+0x9c>
 803a954:	a8 4b 00 00 	l.ori r2,r11,0x0
 803a958:	9d c1 04 00 	l.addi r14,r1,0x400
 803a95c:	18 80 08 00 	l.movhi r4,0x800
 803a960:	9c a0 00 15 	l.addi r5,r0,0x15
 803a964:	a8 84 00 58 	l.ori r4,r4,0x58
 803a968:	04 01 23 d8 	l.jal 80838c8 <memcpy>
 803a96c:	a8 6e 00 00 	l.ori r3,r14,0x0
 803a970:	04 00 17 4d 	l.jal 80406a4 <Uart0_Str>
 803a974:	a8 6e 00 00 	l.ori r3,r14,0x0
 803a978:	04 00 17 73 	l.jal 8040744 <Uart0_Hex>
 803a97c:	a8 62 00 00 	l.ori r3,r2,0x0
 803a980:	07 ff ff c3 	l.jal 803a88c <Uart0_Tx>
 803a984:	9c 60 00 29 	l.addi r3,r0,0x29
 803a988:	07 ff ff c1 	l.jal 803a88c <Uart0_Tx>
 803a98c:	9c 60 00 0d 	l.addi r3,r0,0xd
 803a990:	07 ff ff bf 	l.jal 803a88c <Uart0_Tx>
 803a994:	9c 60 00 0a 	l.addi r3,r0,0xa
 803a998:	07 ff ff bd 	l.jal 803a88c <Uart0_Tx>
 803a99c:	9c 60 00 03 	l.addi r3,r0,0x3
 803a9a0:	9c 81 04 18 	l.addi r4,r1,0x418
 803a9a4:	d8 01 10 02 	l.sb 0x2(r1),r2
 803a9a8:	e0 64 10 00 	l.add r3,r4,r2
 803a9ac:	9c 80 00 03 	l.addi r4,r0,0x3
 803a9b0:	a9 c1 00 00 	l.ori r14,r1,0x0
 803a9b4:	db e3 23 eb 	l.sb 0xfffffbeb(r3),r4
 803a9b8:	9c 80 00 00 	l.addi r4,r0,0x0
 803a9bc:	00 00 00 04 	l.j 803a9cc <_ecm_printf+0xc8>
 803a9c0:	db e3 23 ec 	l.sb 0xfffffbec(r3),r4
 803a9c4:	07 ff ff b2 	l.jal 803a88c <Uart0_Tx>
 803a9c8:	9d ce 00 01 	l.addi r14,r14,0x1
 803a9cc:	90 6e 00 00 	l.lbs r3,0x0(r14)
 803a9d0:	bc 23 00 00 	l.sfnei r3,0x0
 803a9d4:	13 ff ff fc 	l.bf 803a9c4 <_ecm_printf+0xc0>
 803a9d8:	a9 62 00 00 	l.ori r11,r2,0x0
 803a9dc:	9c 21 04 24 	l.addi r1,r1,0x424
 803a9e0:	85 21 ff fc 	l.lwz r9,0xfffffffc(r1)
 803a9e4:	84 41 ff f4 	l.lwz r2,0xfffffff4(r1)
 803a9e8:	44 00 48 00 	l.jr r9
 803a9ec:	85 c1 ff f8 	l.lwz r14,0xfffffff8(r1)

0803a9f0 <_printf>:
 803a9f0:	d7 e1 17 f4 	l.sw 0xfffffff4(r1),r2
 803a9f4:	d7 e1 4f fc 	l.sw 0xfffffffc(r1),r9
 803a9f8:	d7 e1 77 f8 	l.sw 0xfffffff8(r1),r14
 803a9fc:	9c 21 fb e0 	l.addi r1,r1,0xfffffbe0
 803aa00:	a8 a3 00 00 	l.ori r5,r3,0x0
 803aa04:	9c 80 04 00 	l.addi r4,r0,0x400
 803aa08:	a8 61 00 00 	l.ori r3,r1,0x0
 803aa0c:	04 00 07 82 	l.jal 803c814 <vsnprintf>
 803aa10:	9c c1 04 20 	l.addi r6,r1,0x420
 803aa14:	bd ab 03 ff 	l.sflesi r11,0x3ff
 803aa18:	10 00 00 12 	l.bf 803aa60 <_printf+0x70>
 803aa1c:	a8 4b 00 00 	l.ori r2,r11,0x0
 803aa20:	9d c1 04 00 	l.addi r14,r1,0x400
 803aa24:	18 80 08 03 	l.movhi r4,0x803
 803aa28:	9c a0 00 12 	l.addi r5,r0,0x12
 803aa2c:	a8 84 49 dd 	l.ori r4,r4,0x49dd
 803aa30:	04 01 23 a6 	l.jal 80838c8 <memcpy>
 803aa34:	a8 6e 00 00 	l.ori r3,r14,0x0
 803aa38:	04 00 17 1b 	l.jal 80406a4 <Uart0_Str>
 803aa3c:	a8 6e 00 00 	l.ori r3,r14,0x0
 803aa40:	04 00 17 41 	l.jal 8040744 <Uart0_Hex>
 803aa44:	a8 62 00 00 	l.ori r3,r2,0x0
 803aa48:	07 ff ff 91 	l.jal 803a88c <Uart0_Tx>
 803aa4c:	9c 60 00 29 	l.addi r3,r0,0x29
 803aa50:	07 ff ff 8f 	l.jal 803a88c <Uart0_Tx>
 803aa54:	9c 60 00 0d 	l.addi r3,r0,0xd
 803aa58:	07 ff ff 8d 	l.jal 803a88c <Uart0_Tx>
 803aa5c:	9c 60 00 0a 	l.addi r3,r0,0xa
 803aa60:	00 00 00 04 	l.j 803aa70 <_printf+0x80>
 803aa64:	a9 c1 00 00 	l.ori r14,r1,0x0
 803aa68:	07 ff ff 89 	l.jal 803a88c <Uart0_Tx>
 803aa6c:	9d ce 00 01 	l.addi r14,r14,0x1
 803aa70:	90 6e 00 00 	l.lbs r3,0x0(r14)
 803aa74:	bc 23 00 00 	l.sfnei r3,0x0
 803aa78:	13 ff ff fc 	l.bf 803aa68 <_printf+0x78>
 803aa7c:	a9 62 00 00 	l.ori r11,r2,0x0
 803aa80:	9c 21 04 20 	l.addi r1,r1,0x420
 803aa84:	85 21 ff fc 	l.lwz r9,0xfffffffc(r1)
 803aa88:	84 41 ff f4 	l.lwz r2,0xfffffff4(r1)
 803aa8c:	44 00 48 00 	l.jr r9
 803aa90:	85 c1 ff f8 	l.lwz r14,0xfffffff8(r1)

0803aa94 <qsort>:
 803aa94:	d7 e1 17 d4 	l.sw 0xffffffd4(r1),r2
 803aa98:	b8 44 00 5f 	l.srli r2,r4,0x1f
 803aa9c:	d7 e1 77 d8 	l.sw 0xffffffd8(r1),r14
 803aaa0:	d7 e1 d7 f0 	l.sw 0xfffffff0(r1),r26
 803aaa4:	d7 e1 4f fc 	l.sw 0xfffffffc(r1),r9
 803aaa8:	d7 e1 87 dc 	l.sw 0xffffffdc(r1),r16
 803aaac:	d7 e1 97 e0 	l.sw 0xffffffe0(r1),r18
 803aab0:	d7 e1 a7 e4 	l.sw 0xffffffe4(r1),r20
 803aab4:	d7 e1 b7 e8 	l.sw 0xffffffe8(r1),r22
 803aab8:	d7 e1 c7 ec 	l.sw 0xffffffec(r1),r24
 803aabc:	d7 e1 e7 f4 	l.sw 0xfffffff4(r1),r28
 803aac0:	d7 e1 f7 f8 	l.sw 0xfffffff8(r1),r30
 803aac4:	9c 21 ff c0 	l.addi r1,r1,0xffffffc0
 803aac8:	ab 44 00 00 	l.ori r26,r4,0x0
 803aacc:	d4 01 18 04 	l.sw 0x4(r1),r3
 803aad0:	a9 c5 00 00 	l.ori r14,r5,0x0
 803aad4:	d4 01 30 10 	l.sw 0x10(r1),r6
 803aad8:	00 00 00 2a 	l.j 803ab80 <qsort+0xec>
 803aadc:	e0 42 20 00 	l.add r2,r2,r4
 803aae0:	d4 01 80 00 	l.sw 0x0(r1),r16
 803aae4:	aa 9c 00 00 	l.ori r20,r28,0x0
 803aae8:	00 00 00 1b 	l.j 803ab54 <qsort+0xc0>
 803aaec:	aa 5e 00 00 	l.ori r18,r30,0x0
 803aaf0:	a8 94 00 00 	l.ori r4,r20,0x0
 803aaf4:	84 a1 00 10 	l.lwz r5,0x10(r1)
 803aaf8:	48 00 28 00 	l.jalr r5
 803aafc:	aa d2 00 00 	l.ori r22,r18,0x0
 803ab00:	bd ab 00 00 	l.sflesi r11,0x0
 803ab04:	10 00 00 18 	l.bf 803ab64 <qsort+0xd0>
 803ab08:	ab 14 00 00 	l.ori r24,r20,0x0
 803ab0c:	00 00 00 08 	l.j 803ab2c <qsort+0x98>
 803ab10:	9c 80 00 00 	l.addi r4,r0,0x0
 803ab14:	8c b6 00 00 	l.lbz r5,0x0(r22)
 803ab18:	90 78 00 00 	l.lbs r3,0x0(r24)
 803ab1c:	d8 18 28 00 	l.sb 0x0(r24),r5
 803ab20:	d8 16 18 00 	l.sb 0x0(r22),r3
 803ab24:	9f 18 00 01 	l.addi r24,r24,0x1
 803ab28:	9e d6 00 01 	l.addi r22,r22,0x1
 803ab2c:	e5 84 70 00 	l.sflts r4,r14
 803ab30:	13 ff ff f9 	l.bf 803ab14 <qsort+0x80>
 803ab34:	9c 84 00 01 	l.addi r4,r4,0x1
 803ab38:	84 61 00 00 	l.lwz r3,0x0(r1)
 803ab3c:	84 81 00 08 	l.lwz r4,0x8(r1)
 803ab40:	84 a1 00 0c 	l.lwz r5,0xc(r1)
 803ab44:	e0 63 20 00 	l.add r3,r3,r4
 803ab48:	e2 52 28 00 	l.add r18,r18,r5
 803ab4c:	d4 01 18 00 	l.sw 0x0(r1),r3
 803ab50:	e2 94 28 00 	l.add r20,r20,r5
 803ab54:	84 61 00 00 	l.lwz r3,0x0(r1)
 803ab58:	bd 63 00 00 	l.sfgesi r3,0x0
 803ab5c:	13 ff ff e5 	l.bf 803aaf0 <qsort+0x5c>
 803ab60:	a8 72 00 00 	l.ori r3,r18,0x0
 803ab64:	9e 10 00 01 	l.addi r16,r16,0x1
 803ab68:	e3 de 70 00 	l.add r30,r30,r14
 803ab6c:	e3 9c 70 00 	l.add r28,r28,r14
 803ab70:	e0 70 10 00 	l.add r3,r16,r2
 803ab74:	e5 83 d0 00 	l.sflts r3,r26
 803ab78:	13 ff ff da 	l.bf 803aae0 <qsort+0x4c>
 803ab7c:	15 00 00 00 	l.nop 0x0
 803ab80:	b8 42 00 81 	l.srai r2,r2,0x1
 803ab84:	bd a2 00 00 	l.sflesi r2,0x0
 803ab88:	10 00 00 0a 	l.bf 803abb0 <qsort+0x11c>
 803ab8c:	e0 80 10 02 	l.sub r4,r0,r2
 803ab90:	e3 82 73 06 	l.mul r28,r2,r14
 803ab94:	e0 a4 73 06 	l.mul r5,r4,r14
 803ab98:	87 c1 00 04 	l.lwz r30,0x4(r1)
 803ab9c:	9e 00 00 00 	l.addi r16,r0,0x0
 803aba0:	e3 9e e0 00 	l.add r28,r30,r28
 803aba4:	d4 01 20 08 	l.sw 0x8(r1),r4
 803aba8:	03 ff ff f2 	l.j 803ab70 <qsort+0xdc>
 803abac:	d4 01 28 0c 	l.sw 0xc(r1),r5
 803abb0:	9c 21 00 40 	l.addi r1,r1,0x40
 803abb4:	85 21 ff fc 	l.lwz r9,0xfffffffc(r1)
 803abb8:	84 41 ff d4 	l.lwz r2,0xffffffd4(r1)
 803abbc:	85 c1 ff d8 	l.lwz r14,0xffffffd8(r1)
 803abc0:	86 01 ff dc 	l.lwz r16,0xffffffdc(r1)
 803abc4:	86 41 ff e0 	l.lwz r18,0xffffffe0(r1)
 803abc8:	86 81 ff e4 	l.lwz r20,0xffffffe4(r1)
 803abcc:	86 c1 ff e8 	l.lwz r22,0xffffffe8(r1)
 803abd0:	87 01 ff ec 	l.lwz r24,0xffffffec(r1)
 803abd4:	87 41 ff f0 	l.lwz r26,0xfffffff0(r1)
 803abd8:	87 81 ff f4 	l.lwz r28,0xfffffff4(r1)
 803abdc:	44 00 48 00 	l.jr r9
 803abe0:	87 c1 ff f8 	l.lwz r30,0xfffffff8(r1)

0803abe4 <modf>:
 803abe4:	d7 e1 a7 f8 	l.sw 0xfffffff8(r1),r20
 803abe8:	aa 85 00 00 	l.ori r20,r5,0x0
 803abec:	18 a0 08 00 	l.movhi r5,0x800
 803abf0:	d7 e1 17 e8 	l.sw 0xffffffe8(r1),r2
 803abf4:	d7 e1 77 ec 	l.sw 0xffffffec(r1),r14
 803abf8:	d7 e1 4f fc 	l.sw 0xfffffffc(r1),r9
 803abfc:	d7 e1 87 f0 	l.sw 0xfffffff0(r1),r16
 803ac00:	d7 e1 97 f4 	l.sw 0xfffffff4(r1),r18
 803ac04:	a8 a5 00 78 	l.ori r5,r5,0x78
 803ac08:	9c 21 ff e8 	l.addi r1,r1,0xffffffe8
 803ac0c:	a9 c3 00 00 	l.ori r14,r3,0x0
 803ac10:	84 c5 00 04 	l.lwz r6,0x4(r5)
 803ac14:	84 a5 00 00 	l.lwz r5,0x0(r5)
 803ac18:	04 01 4b 5d 	l.jal 808d98c <__gtdf2>
 803ac1c:	a8 44 00 00 	l.ori r2,r4,0x0
 803ac20:	bd 4b 00 00 	l.sfgtsi r11,0x0
 803ac24:	0c 00 00 14 	l.bnf 803ac74 <modf+0x90>
 803ac28:	18 a0 7f ff 	l.movhi r5,0x7fff
 803ac2c:	18 a0 08 00 	l.movhi r5,0x800
 803ac30:	a8 6e 00 00 	l.ori r3,r14,0x0
 803ac34:	a8 a5 00 80 	l.ori r5,r5,0x80
 803ac38:	84 c5 00 04 	l.lwz r6,0x4(r5)
 803ac3c:	84 a5 00 00 	l.lwz r5,0x0(r5)
 803ac40:	04 01 4b 8f 	l.jal 808da7c <__ltdf2>
 803ac44:	a8 82 00 00 	l.ori r4,r2,0x0
 803ac48:	bd 8b 00 00 	l.sfltsi r11,0x0
 803ac4c:	0c 00 00 0a 	l.bnf 803ac74 <modf+0x90>
 803ac50:	18 a0 7f ff 	l.movhi r5,0x7fff
 803ac54:	18 60 08 00 	l.movhi r3,0x800
 803ac58:	a8 63 00 70 	l.ori r3,r3,0x70
 803ac5c:	84 83 00 00 	l.lwz r4,0x0(r3)
 803ac60:	84 a3 00 04 	l.lwz r5,0x4(r3)
 803ac64:	d4 14 20 00 	l.sw 0x0(r20),r4
 803ac68:	d4 14 28 04 	l.sw 0x4(r20),r5
 803ac6c:	00 00 00 56 	l.j 803adc4 <modf+0x1e0>
 803ac70:	9c 21 00 18 	l.addi r1,r1,0x18
 803ac74:	a8 a5 ff ff 	l.ori r5,r5,0xffff
 803ac78:	e2 0e 28 03 	l.and r16,r14,r5
 803ac7c:	b8 70 00 54 	l.srli r3,r16,0x14
 803ac80:	bc 03 00 00 	l.sfeqi r3,0x0
 803ac84:	10 00 00 0a 	l.bf 803acac <modf+0xc8>
 803ac88:	aa 42 00 00 	l.ori r18,r2,0x0
 803ac8c:	ac 83 07 ff 	l.xori r4,r3,0x7ff
 803ac90:	e0 a0 20 02 	l.sub r5,r0,r4
 803ac94:	e0 a5 20 04 	l.or r5,r5,r4
 803ac98:	ac a5 ff ff 	l.xori r5,r5,0xffffffff
 803ac9c:	b8 a5 00 5f 	l.srli r5,r5,0x1f
 803aca0:	bc 05 00 00 	l.sfeqi r5,0x0
 803aca4:	10 00 00 16 	l.bf 803acfc <modf+0x118>
 803aca8:	9c 83 fc 02 	l.addi r4,r3,0xfffffc02
 803acac:	a8 82 00 00 	l.ori r4,r2,0x0
 803acb0:	18 40 08 00 	l.movhi r2,0x800
 803acb4:	a8 6e 00 00 	l.ori r3,r14,0x0
 803acb8:	a8 42 00 70 	l.ori r2,r2,0x70
 803acbc:	84 a2 00 00 	l.lwz r5,0x0(r2)
 803acc0:	84 c2 00 04 	l.lwz r6,0x4(r2)
 803acc4:	04 01 4b 32 	l.jal 808d98c <__gtdf2>
 803acc8:	9c 40 00 00 	l.addi r2,r0,0x0
 803accc:	e5 4b 10 00 	l.sfgts r11,r2
 803acd0:	10 00 00 03 	l.bf 803acdc <modf+0xf8>
 803acd4:	a8 80 f0 7f 	l.ori r4,r0,0xf07f
 803acd8:	18 40 80 00 	l.movhi r2,0x8000
 803acdc:	9d c0 00 00 	l.addi r14,r0,0x0
 803ace0:	a8 64 00 00 	l.ori r3,r4,0x0
 803ace4:	e0 82 00 04 	l.or r4,r2,r0
 803ace8:	e0 a3 00 04 	l.or r5,r3,r0
 803acec:	d4 14 20 00 	l.sw 0x0(r20),r4
 803acf0:	d4 14 28 04 	l.sw 0x4(r20),r5
 803acf4:	00 00 00 33 	l.j 803adc0 <modf+0x1dc>
 803acf8:	a8 4e 00 00 	l.ori r2,r14,0x0
 803acfc:	bd 44 00 15 	l.sfgtsi r4,0x15
 803ad00:	10 00 00 09 	l.bf 803ad24 <modf+0x140>
 803ad04:	bd 44 00 35 	l.sfgtsi r4,0x35
 803ad08:	18 60 00 1f 	l.movhi r3,0x1f
 803ad0c:	aa 45 00 00 	l.ori r18,r5,0x0
 803ad10:	a8 63 ff ff 	l.ori r3,r3,0xffff
 803ad14:	e0 83 20 88 	l.sra r4,r3,r4
 803ad18:	ac 84 ff ff 	l.xori r4,r4,0xffffffff
 803ad1c:	00 00 00 0a 	l.j 803ad44 <modf+0x160>
 803ad20:	e2 04 80 03 	l.and r16,r4,r16
 803ad24:	10 00 00 09 	l.bf 803ad48 <modf+0x164>
 803ad28:	18 a0 08 00 	l.movhi r5,0x800
 803ad2c:	1a 40 7f ff 	l.movhi r18,0x7fff
 803ad30:	9c 63 fb ec 	l.addi r3,r3,0xfffffbec
 803ad34:	aa 52 ff ff 	l.ori r18,r18,0xffff
 803ad38:	e2 52 18 88 	l.sra r18,r18,r3
 803ad3c:	ae 52 ff ff 	l.xori r18,r18,0xffffffff
 803ad40:	e2 52 10 03 	l.and r18,r18,r2
 803ad44:	18 a0 08 00 	l.movhi r5,0x800
 803ad48:	a8 6e 00 00 	l.ori r3,r14,0x0
 803ad4c:	a8 a5 00 70 	l.ori r5,r5,0x70
 803ad50:	84 c5 00 04 	l.lwz r6,0x4(r5)
 803ad54:	84 a5 00 00 	l.lwz r5,0x0(r5)
 803ad58:	04 01 4b 0d 	l.jal 808d98c <__gtdf2>
 803ad5c:	a8 82 00 00 	l.ori r4,r2,0x0
 803ad60:	bd 4b 00 00 	l.sfgtsi r11,0x0
 803ad64:	0c 00 00 0d 	l.bnf 803ad98 <modf+0x1b4>
 803ad68:	18 a0 80 00 	l.movhi r5,0x8000
 803ad6c:	a8 70 00 00 	l.ori r3,r16,0x0
 803ad70:	a8 92 00 00 	l.ori r4,r18,0x0
 803ad74:	a8 b0 00 00 	l.ori r5,r16,0x0
 803ad78:	d4 14 18 00 	l.sw 0x0(r20),r3
 803ad7c:	d4 14 20 04 	l.sw 0x4(r20),r4
 803ad80:	a8 d2 00 00 	l.ori r6,r18,0x0
 803ad84:	a8 6e 00 00 	l.ori r3,r14,0x0
 803ad88:	04 01 48 8d 	l.jal 808cfbc <__subdf3>
 803ad8c:	a8 82 00 00 	l.ori r4,r2,0x0
 803ad90:	00 00 00 0b 	l.j 803adbc <modf+0x1d8>
 803ad94:	a9 cb 00 00 	l.ori r14,r11,0x0
 803ad98:	d4 14 90 04 	l.sw 0x4(r20),r18
 803ad9c:	e0 70 28 00 	l.add r3,r16,r5
 803ada0:	a8 82 00 00 	l.ori r4,r2,0x0
 803ada4:	d4 14 18 00 	l.sw 0x0(r20),r3
 803ada8:	a8 b0 00 00 	l.ori r5,r16,0x0
 803adac:	a8 6e 00 00 	l.ori r3,r14,0x0
 803adb0:	04 01 48 64 	l.jal 808cf40 <__adddf3>
 803adb4:	a8 d2 00 00 	l.ori r6,r18,0x0
 803adb8:	a9 cb 00 00 	l.ori r14,r11,0x0
 803adbc:	a8 4c 00 00 	l.ori r2,r12,0x0
 803adc0:	9c 21 00 18 	l.addi r1,r1,0x18
 803adc4:	a9 6e 00 00 	l.ori r11,r14,0x0
 803adc8:	85 21 ff fc 	l.lwz r9,0xfffffffc(r1)
 803adcc:	a9 82 00 00 	l.ori r12,r2,0x0
 803add0:	85 c1 ff ec 	l.lwz r14,0xffffffec(r1)
 803add4:	84 41 ff e8 	l.lwz r2,0xffffffe8(r1)
 803add8:	86 01 ff f0 	l.lwz r16,0xfffffff0(r1)
 803addc:	86 41 ff f4 	l.lwz r18,0xfffffff4(r1)
 803ade0:	44 00 48 00 	l.jr r9
 803ade4:	86 81 ff f8 	l.lwz r20,0xfffffff8(r1)

0803ade8 <enx_cvt>:
 803ade8:	d7 e1 17 d4 	l.sw 0xffffffd4(r1),r2
 803adec:	d7 e1 77 d8 	l.sw 0xffffffd8(r1),r14
 803adf0:	d7 e1 87 dc 	l.sw 0xffffffdc(r1),r16
 803adf4:	d7 e1 97 e0 	l.sw 0xffffffe0(r1),r18
 803adf8:	d7 e1 a7 e4 	l.sw 0xffffffe4(r1),r20
 803adfc:	d7 e1 d7 f0 	l.sw 0xfffffff0(r1),r26
 803ae00:	d7 e1 4f fc 	l.sw 0xfffffffc(r1),r9
 803ae04:	d7 e1 b7 e8 	l.sw 0xffffffe8(r1),r22
 803ae08:	d7 e1 c7 ec 	l.sw 0xffffffec(r1),r24
 803ae0c:	d7 e1 e7 f4 	l.sw 0xfffffff4(r1),r28
 803ae10:	d7 e1 f7 f8 	l.sw 0xfffffff8(r1),r30
 803ae14:	aa 03 00 00 	l.ori r16,r3,0x0
 803ae18:	9c 21 ff bc 	l.addi r1,r1,0xffffffbc
 803ae1c:	aa 44 00 00 	l.ori r18,r4,0x0
 803ae20:	a8 45 00 00 	l.ori r2,r5,0x0
 803ae24:	ab 46 00 00 	l.ori r26,r6,0x0
 803ae28:	aa 87 00 00 	l.ori r20,r7,0x0
 803ae2c:	bd 85 00 00 	l.sfltsi r5,0x0
 803ae30:	10 00 00 07 	l.bf 803ae4c <enx_cvt+0x64>
 803ae34:	a9 c8 00 00 	l.ori r14,r8,0x0
 803ae38:	bd 45 01 5e 	l.sfgtsi r5,0x15e
 803ae3c:	10 00 00 06 	l.bf 803ae54 <enx_cvt+0x6c>
 803ae40:	9c 60 00 00 	l.addi r3,r0,0x0
 803ae44:	00 00 00 07 	l.j 803ae60 <enx_cvt+0x78>
 803ae48:	18 a0 08 00 	l.movhi r5,0x800
 803ae4c:	00 00 00 03 	l.j 803ae58 <enx_cvt+0x70>
 803ae50:	9c 40 00 00 	l.addi r2,r0,0x0
 803ae54:	9c 40 01 5e 	l.addi r2,r0,0x15e
 803ae58:	9c 60 00 00 	l.addi r3,r0,0x0
 803ae5c:	18 a0 08 00 	l.movhi r5,0x800
 803ae60:	d4 14 18 00 	l.sw 0x0(r20),r3
 803ae64:	a9 70 00 00 	l.ori r11,r16,0x0
 803ae68:	a9 92 00 00 	l.ori r12,r18,0x0
 803ae6c:	a8 a5 00 88 	l.ori r5,r5,0x88
 803ae70:	e0 6b 00 04 	l.or r3,r11,r0
 803ae74:	e0 8c 00 04 	l.or r4,r12,r0
 803ae78:	84 c5 00 04 	l.lwz r6,0x4(r5)
 803ae7c:	84 a5 00 00 	l.lwz r5,0x0(r5)
 803ae80:	04 01 4a ff 	l.jal 808da7c <__ltdf2>
 803ae84:	15 00 00 00 	l.nop 0x0
 803ae88:	bd 8b 00 00 	l.sfltsi r11,0x0
 803ae8c:	0c 00 00 06 	l.bnf 803aea4 <enx_cvt+0xbc>
 803ae90:	9f c1 00 10 	l.addi r30,r1,0x10
 803ae94:	9c 60 00 01 	l.addi r3,r0,0x1
 803ae98:	18 80 80 00 	l.movhi r4,0x8000
 803ae9c:	d4 14 18 00 	l.sw 0x0(r20),r3
 803aea0:	e2 10 20 00 	l.add r16,r16,r4
 803aea4:	a8 70 00 00 	l.ori r3,r16,0x0
 803aea8:	1a 00 08 00 	l.movhi r16,0x800
 803aeac:	a8 92 00 00 	l.ori r4,r18,0x0
 803aeb0:	a8 be 00 00 	l.ori r5,r30,0x0
 803aeb4:	07 ff ff 4c 	l.jal 803abe4 <modf>
 803aeb8:	aa 10 00 88 	l.ori r16,r16,0x88
 803aebc:	84 61 00 10 	l.lwz r3,0x10(r1)
 803aec0:	84 81 00 14 	l.lwz r4,0x14(r1)
 803aec4:	aa cb 00 00 	l.ori r22,r11,0x0
 803aec8:	84 b0 00 00 	l.lwz r5,0x0(r16)
 803aecc:	84 d0 00 04 	l.lwz r6,0x4(r16)
 803aed0:	04 01 4a 91 	l.jal 808d914 <__nedf2>
 803aed4:	ab 0c 00 00 	l.ori r24,r12,0x0
 803aed8:	bc 2b 00 00 	l.sfnei r11,0x0
 803aedc:	0c 00 00 42 	l.bnf 803afe4 <enx_cvt+0x1fc>
 803aee0:	a8 76 00 00 	l.ori r3,r22,0x0
 803aee4:	9f 8e 01 60 	l.addi r28,r14,0x160
 803aee8:	1a 00 08 00 	l.movhi r16,0x800
 803aeec:	1b c0 08 00 	l.movhi r30,0x800
 803aef0:	aa 9c 00 00 	l.ori r20,r28,0x0
 803aef4:	9e 40 00 00 	l.addi r18,r0,0x0
 803aef8:	aa 10 00 90 	l.ori r16,r16,0x90
 803aefc:	00 00 00 20 	l.j 803af7c <enx_cvt+0x194>
 803af00:	ab de 00 98 	l.ori r30,r30,0x98
 803af04:	84 b0 00 00 	l.lwz r5,0x0(r16)
 803af08:	84 d0 00 04 	l.lwz r6,0x4(r16)
 803af0c:	84 61 00 00 	l.lwz r3,0x0(r1)
 803af10:	84 81 00 04 	l.lwz r4,0x4(r1)
 803af14:	04 01 49 4f 	l.jal 808d450 <__divdf3>
 803af18:	9e 94 ff ff 	l.addi r20,r20,0xffffffff
 803af1c:	e0 6b 00 04 	l.or r3,r11,r0
 803af20:	e0 8c 00 04 	l.or r4,r12,r0
 803af24:	07 ff ff 30 	l.jal 803abe4 <modf>
 803af28:	9c a1 00 10 	l.addi r5,r1,0x10
 803af2c:	84 be 00 00 	l.lwz r5,0x0(r30)
 803af30:	84 de 00 04 	l.lwz r6,0x4(r30)
 803af34:	e0 6b 00 04 	l.or r3,r11,r0
 803af38:	e0 8c 00 04 	l.or r4,r12,r0
 803af3c:	d4 01 58 08 	l.sw 0x8(r1),r11
 803af40:	d4 01 60 0c 	l.sw 0xc(r1),r12
 803af44:	04 01 47 ff 	l.jal 808cf40 <__adddf3>
 803af48:	9e 52 00 01 	l.addi r18,r18,0x1
 803af4c:	84 b0 00 00 	l.lwz r5,0x0(r16)
 803af50:	84 d0 00 04 	l.lwz r6,0x4(r16)
 803af54:	e0 6b 00 04 	l.or r3,r11,r0
 803af58:	e0 8c 00 04 	l.or r4,r12,r0
 803af5c:	04 01 48 3a 	l.jal 808d044 <__muldf3>
 803af60:	15 00 00 00 	l.nop 0x0
 803af64:	e0 6b 00 04 	l.or r3,r11,r0
 803af68:	e0 8c 00 04 	l.or r4,r12,r0
 803af6c:	04 01 4b a1 	l.jal 808ddf0 <__fixdfsi>
 803af70:	15 00 00 00 	l.nop 0x0
 803af74:	9d 6b 00 30 	l.addi r11,r11,0x30
 803af78:	d8 14 58 00 	l.sb 0x0(r20),r11
 803af7c:	18 e0 08 00 	l.movhi r7,0x800
 803af80:	84 a1 00 10 	l.lwz r5,0x10(r1)
 803af84:	84 c1 00 14 	l.lwz r6,0x14(r1)
 803af88:	a8 e7 00 88 	l.ori r7,r7,0x88
 803af8c:	d4 01 28 00 	l.sw 0x0(r1),r5
 803af90:	d4 01 30 04 	l.sw 0x4(r1),r6
 803af94:	e0 65 00 04 	l.or r3,r5,r0
 803af98:	e0 86 00 04 	l.or r4,r6,r0
 803af9c:	84 a7 00 00 	l.lwz r5,0x0(r7)
 803afa0:	84 c7 00 04 	l.lwz r6,0x4(r7)
 803afa4:	04 01 4a 5c 	l.jal 808d914 <__nedf2>
 803afa8:	15 00 00 00 	l.nop 0x0
 803afac:	bc 2b 00 00 	l.sfnei r11,0x0
 803afb0:	13 ff ff d5 	l.bf 803af04 <enx_cvt+0x11c>
 803afb4:	15 00 00 00 	l.nop 0x0
 803afb8:	00 00 00 06 	l.j 803afd0 <enx_cvt+0x1e8>
 803afbc:	aa 0e 00 00 	l.ori r16,r14,0x0
 803afc0:	8c 74 00 00 	l.lbz r3,0x0(r20)
 803afc4:	9e 94 00 01 	l.addi r20,r20,0x1
 803afc8:	d8 10 18 00 	l.sb 0x0(r16),r3
 803afcc:	9e 10 00 01 	l.addi r16,r16,0x1
 803afd0:	e4 94 e0 00 	l.sfltu r20,r28
 803afd4:	13 ff ff fb 	l.bf 803afc0 <enx_cvt+0x1d8>
 803afd8:	84 61 00 44 	l.lwz r3,0x44(r1)
 803afdc:	00 00 00 28 	l.j 803b07c <enx_cvt+0x294>
 803afe0:	bc 23 00 00 	l.sfnei r3,0x0
 803afe4:	a8 98 00 00 	l.ori r4,r24,0x0
 803afe8:	84 b0 00 00 	l.lwz r5,0x0(r16)
 803afec:	84 d0 00 04 	l.lwz r6,0x4(r16)
 803aff0:	04 01 4a 67 	l.jal 808d98c <__gtdf2>
 803aff4:	9e 40 00 00 	l.addi r18,r0,0x0
 803aff8:	e5 4b 90 00 	l.sfgts r11,r18
 803affc:	10 00 00 07 	l.bf 803b018 <enx_cvt+0x230>
 803b000:	18 e0 08 00 	l.movhi r7,0x800
 803b004:	00 00 00 1c 	l.j 803b074 <enx_cvt+0x28c>
 803b008:	aa 0e 00 00 	l.ori r16,r14,0x0
 803b00c:	9e 52 ff ff 	l.addi r18,r18,0xffffffff
 803b010:	aa d4 00 00 	l.ori r22,r20,0x0
 803b014:	ab 10 00 00 	l.ori r24,r16,0x0
 803b018:	a8 76 00 00 	l.ori r3,r22,0x0
 803b01c:	a8 e7 00 90 	l.ori r7,r7,0x90
 803b020:	84 a7 00 00 	l.lwz r5,0x0(r7)
 803b024:	84 c7 00 04 	l.lwz r6,0x4(r7)
 803b028:	04 01 48 07 	l.jal 808d044 <__muldf3>
 803b02c:	a8 98 00 00 	l.ori r4,r24,0x0
 803b030:	18 e0 08 00 	l.movhi r7,0x800
 803b034:	aa 8b 00 00 	l.ori r20,r11,0x0
 803b038:	a8 e7 00 a0 	l.ori r7,r7,0xa0
 803b03c:	a8 74 00 00 	l.ori r3,r20,0x0
 803b040:	a8 8c 00 00 	l.ori r4,r12,0x0
 803b044:	84 a7 00 00 	l.lwz r5,0x0(r7)
 803b048:	84 c7 00 04 	l.lwz r6,0x4(r7)
 803b04c:	04 01 4a 8c 	l.jal 808da7c <__ltdf2>
 803b050:	aa 0c 00 00 	l.ori r16,r12,0x0
 803b054:	bd 8b 00 00 	l.sfltsi r11,0x0
 803b058:	13 ff ff ed 	l.bf 803b00c <enx_cvt+0x224>
 803b05c:	18 e0 08 00 	l.movhi r7,0x800
 803b060:	a8 74 00 00 	l.ori r3,r20,0x0
 803b064:	a8 90 00 00 	l.ori r4,r16,0x0
 803b068:	d4 01 18 08 	l.sw 0x8(r1),r3
 803b06c:	d4 01 20 0c 	l.sw 0xc(r1),r4
 803b070:	aa 0e 00 00 	l.ori r16,r14,0x0
 803b074:	84 61 00 44 	l.lwz r3,0x44(r1)
 803b078:	bc 23 00 00 	l.sfnei r3,0x0
 803b07c:	10 00 00 03 	l.bf 803b088 <enx_cvt+0x2a0>
 803b080:	e0 4e 10 00 	l.add r2,r14,r2
 803b084:	e0 42 90 00 	l.add r2,r2,r18
 803b088:	e4 82 70 00 	l.sfltu r2,r14
 803b08c:	0c 00 00 17 	l.bnf 803b0e8 <enx_cvt+0x300>
 803b090:	d4 1a 90 00 	l.sw 0x0(r26),r18
 803b094:	9c 80 00 00 	l.addi r4,r0,0x0
 803b098:	00 00 00 43 	l.j 803b1a4 <enx_cvt+0x3bc>
 803b09c:	d8 0e 20 00 	l.sb 0x0(r14),r4
 803b0a0:	84 b4 00 00 	l.lwz r5,0x0(r20)
 803b0a4:	84 d4 00 04 	l.lwz r6,0x4(r20)
 803b0a8:	04 01 47 e7 	l.jal 808d044 <__muldf3>
 803b0ac:	a8 98 00 00 	l.ori r4,r24,0x0
 803b0b0:	a8 eb 00 00 	l.ori r7,r11,0x0
 803b0b4:	a8 8c 00 00 	l.ori r4,r12,0x0
 803b0b8:	a8 67 00 00 	l.ori r3,r7,0x0
 803b0bc:	07 ff fe ca 	l.jal 803abe4 <modf>
 803b0c0:	a8 b2 00 00 	l.ori r5,r18,0x0
 803b0c4:	84 61 00 08 	l.lwz r3,0x8(r1)
 803b0c8:	84 81 00 0c 	l.lwz r4,0xc(r1)
 803b0cc:	aa cb 00 00 	l.ori r22,r11,0x0
 803b0d0:	04 01 4b 48 	l.jal 808ddf0 <__fixdfsi>
 803b0d4:	ab 0c 00 00 	l.ori r24,r12,0x0
 803b0d8:	9d 6b 00 30 	l.addi r11,r11,0x30
 803b0dc:	d8 10 58 00 	l.sb 0x0(r16),r11
 803b0e0:	00 00 00 06 	l.j 803b0f8 <enx_cvt+0x310>
 803b0e4:	9e 10 00 01 	l.addi r16,r16,0x1
 803b0e8:	1a 80 08 00 	l.movhi r20,0x800
 803b0ec:	9f 8e 01 60 	l.addi r28,r14,0x160
 803b0f0:	aa 94 00 90 	l.ori r20,r20,0x90
 803b0f4:	9e 41 00 08 	l.addi r18,r1,0x8
 803b0f8:	e4 50 10 00 	l.sfgtu r16,r2
 803b0fc:	10 00 00 04 	l.bf 803b10c <enx_cvt+0x324>
 803b100:	e4 90 e0 00 	l.sfltu r16,r28
 803b104:	13 ff ff e7 	l.bf 803b0a0 <enx_cvt+0x2b8>
 803b108:	a8 76 00 00 	l.ori r3,r22,0x0
 803b10c:	9c 6e 01 60 	l.addi r3,r14,0x160
 803b110:	e4 82 18 00 	l.sfltu r2,r3
 803b114:	10 00 00 04 	l.bf 803b124 <enx_cvt+0x33c>
 803b118:	9c a0 00 00 	l.addi r5,r0,0x0
 803b11c:	00 00 00 22 	l.j 803b1a4 <enx_cvt+0x3bc>
 803b120:	d8 0e 29 5f 	l.sb 0x15f(r14),r5
 803b124:	8c 62 00 00 	l.lbz r3,0x0(r2)
 803b128:	9c 63 00 05 	l.addi r3,r3,0x5
 803b12c:	d8 02 18 00 	l.sb 0x0(r2),r3
 803b130:	00 00 00 17 	l.j 803b18c <enx_cvt+0x3a4>
 803b134:	a8 62 00 00 	l.ori r3,r2,0x0
 803b138:	e4 a2 70 00 	l.sfleu r2,r14
 803b13c:	10 00 00 07 	l.bf 803b158 <enx_cvt+0x370>
 803b140:	d8 02 30 00 	l.sb 0x0(r2),r6
 803b144:	9c 42 ff ff 	l.addi r2,r2,0xffffffff
 803b148:	8c 82 00 00 	l.lbz r4,0x0(r2)
 803b14c:	9c 84 00 01 	l.addi r4,r4,0x1
 803b150:	00 00 00 0f 	l.j 803b18c <enx_cvt+0x3a4>
 803b154:	d8 02 20 00 	l.sb 0x0(r2),r4
 803b158:	9c e0 00 31 	l.addi r7,r0,0x31
 803b15c:	d8 02 38 00 	l.sb 0x0(r2),r7
 803b160:	84 9a 00 00 	l.lwz r4,0x0(r26)
 803b164:	9c 84 00 01 	l.addi r4,r4,0x1
 803b168:	d4 1a 20 00 	l.sw 0x0(r26),r4
 803b16c:	84 81 00 44 	l.lwz r4,0x44(r1)
 803b170:	bc 24 00 00 	l.sfnei r4,0x0
 803b174:	10 00 00 06 	l.bf 803b18c <enx_cvt+0x3a4>
 803b178:	e4 a3 70 00 	l.sfleu r3,r14
 803b17c:	10 00 00 03 	l.bf 803b188 <enx_cvt+0x3a0>
 803b180:	9c a0 00 30 	l.addi r5,r0,0x30
 803b184:	d8 03 28 00 	l.sb 0x0(r3),r5
 803b188:	9c 63 00 01 	l.addi r3,r3,0x1
 803b18c:	90 82 00 00 	l.lbs r4,0x0(r2)
 803b190:	bd 44 00 39 	l.sfgtsi r4,0x39
 803b194:	13 ff ff e9 	l.bf 803b138 <enx_cvt+0x350>
 803b198:	9c c0 00 30 	l.addi r6,r0,0x30
 803b19c:	9c c0 00 00 	l.addi r6,r0,0x0
 803b1a0:	d8 03 30 00 	l.sb 0x0(r3),r6
 803b1a4:	9c 21 00 44 	l.addi r1,r1,0x44
 803b1a8:	a9 6e 00 00 	l.ori r11,r14,0x0
 803b1ac:	85 21 ff fc 	l.lwz r9,0xfffffffc(r1)
 803b1b0:	84 41 ff d4 	l.lwz r2,0xffffffd4(r1)
 803b1b4:	85 c1 ff d8 	l.lwz r14,0xffffffd8(r1)
 803b1b8:	86 01 ff dc 	l.lwz r16,0xffffffdc(r1)
 803b1bc:	86 41 ff e0 	l.lwz r18,0xffffffe0(r1)
 803b1c0:	86 81 ff e4 	l.lwz r20,0xffffffe4(r1)
 803b1c4:	86 c1 ff e8 	l.lwz r22,0xffffffe8(r1)
 803b1c8:	87 01 ff ec 	l.lwz r24,0xffffffec(r1)
 803b1cc:	87 41 ff f0 	l.lwz r26,0xfffffff0(r1)
 803b1d0:	87 81 ff f4 	l.lwz r28,0xfffffff4(r1)
 803b1d4:	44 00 48 00 	l.jr r9
 803b1d8:	87 c1 ff f8 	l.lwz r30,0xfffffff8(r1)

0803b1dc <flt>:
 803b1dc:	d7 e1 17 d4 	l.sw 0xffffffd4(r1),r2
 803b1e0:	d7 e1 77 d8 	l.sw 0xffffffd8(r1),r14
 803b1e4:	d7 e1 87 dc 	l.sw 0xffffffdc(r1),r16
 803b1e8:	d7 e1 a7 e4 	l.sw 0xffffffe4(r1),r20
 803b1ec:	d7 e1 b7 e8 	l.sw 0xffffffe8(r1),r22
 803b1f0:	d7 e1 c7 ec 	l.sw 0xffffffec(r1),r24
 803b1f4:	d7 e1 e7 f4 	l.sw 0xfffffff4(r1),r28
 803b1f8:	d7 e1 4f fc 	l.sw 0xfffffffc(r1),r9
 803b1fc:	d7 e1 97 e0 	l.sw 0xffffffe0(r1),r18
 803b200:	d7 e1 d7 f0 	l.sw 0xfffffff0(r1),r26
 803b204:	d7 e1 f7 f8 	l.sw 0xfffffff8(r1),r30
 803b208:	9c 21 ff 1c 	l.addi r1,r1,0xffffff1c
 803b20c:	b9 08 00 18 	l.slli r8,r8,0x18
 803b210:	86 01 00 e4 	l.lwz r16,0xe4(r1)
 803b214:	a8 43 00 00 	l.ori r2,r3,0x0
 803b218:	a4 70 00 10 	l.andi r3,r16,0x10
 803b21c:	ab 04 00 00 	l.ori r24,r4,0x0
 803b220:	ab 85 00 00 	l.ori r28,r5,0x0
 803b224:	aa 86 00 00 	l.ori r20,r6,0x0
 803b228:	a9 c7 00 00 	l.ori r14,r7,0x0
 803b22c:	bc 03 00 00 	l.sfeqi r3,0x0
 803b230:	10 00 00 04 	l.bf 803b240 <flt+0x64>
 803b234:	ba c8 00 98 	l.srai r22,r8,0x18
 803b238:	9c 60 ff fe 	l.addi r3,r0,0xfffffffe
 803b23c:	e2 10 18 03 	l.and r16,r16,r3
 803b240:	9c 80 00 20 	l.addi r4,r0,0x20
 803b244:	a4 70 00 01 	l.andi r3,r16,0x1
 803b248:	bc 03 00 00 	l.sfeqi r3,0x0
 803b24c:	10 00 00 04 	l.bf 803b25c <flt+0x80>
 803b250:	d4 01 20 08 	l.sw 0x8(r1),r4
 803b254:	9c a0 00 30 	l.addi r5,r0,0x30
 803b258:	d4 01 28 08 	l.sw 0x8(r1),r5
 803b25c:	a6 50 00 02 	l.andi r18,r16,0x2
 803b260:	bc 12 00 00 	l.sfeqi r18,0x0
 803b264:	10 00 00 1d 	l.bf 803b2d8 <flt+0xfc>
 803b268:	bd 8e 00 00 	l.sfltsi r14,0x0
 803b26c:	18 a0 08 00 	l.movhi r5,0x800
 803b270:	a8 78 00 00 	l.ori r3,r24,0x0
 803b274:	a8 a5 00 a8 	l.ori r5,r5,0xa8
 803b278:	84 c5 00 04 	l.lwz r6,0x4(r5)
 803b27c:	84 a5 00 00 	l.lwz r5,0x0(r5)
 803b280:	04 01 49 ff 	l.jal 808da7c <__ltdf2>
 803b284:	a8 9c 00 00 	l.ori r4,r28,0x0
 803b288:	bd 8b 00 00 	l.sfltsi r11,0x0
 803b28c:	0c 00 00 07 	l.bnf 803b2a8 <flt+0xcc>
 803b290:	a4 70 00 04 	l.andi r3,r16,0x4
 803b294:	18 c0 80 00 	l.movhi r6,0x8000
 803b298:	9e 94 ff ff 	l.addi r20,r20,0xffffffff
 803b29c:	e3 18 30 00 	l.add r24,r24,r6
 803b2a0:	00 00 00 0d 	l.j 803b2d4 <flt+0xf8>
 803b2a4:	9e 40 00 2d 	l.addi r18,r0,0x2d
 803b2a8:	bc 03 00 00 	l.sfeqi r3,0x0
 803b2ac:	10 00 00 04 	l.bf 803b2bc <flt+0xe0>
 803b2b0:	9e 40 00 2b 	l.addi r18,r0,0x2b
 803b2b4:	00 00 00 08 	l.j 803b2d4 <flt+0xf8>
 803b2b8:	9e 94 ff ff 	l.addi r20,r20,0xffffffff
 803b2bc:	a6 50 00 08 	l.andi r18,r16,0x8
 803b2c0:	bc 12 00 00 	l.sfeqi r18,0x0
 803b2c4:	10 00 00 05 	l.bf 803b2d8 <flt+0xfc>
 803b2c8:	bd 8e 00 00 	l.sfltsi r14,0x0
 803b2cc:	9e 94 ff ff 	l.addi r20,r20,0xffffffff
 803b2d0:	9e 40 00 20 	l.addi r18,r0,0x20
 803b2d4:	bd 8e 00 00 	l.sfltsi r14,0x0
 803b2d8:	10 00 00 0c 	l.bf 803b308 <flt+0x12c>
 803b2dc:	bc 2e 00 00 	l.sfnei r14,0x0
 803b2e0:	10 00 00 0c 	l.bf 803b310 <flt+0x134>
 803b2e4:	ac 76 00 47 	l.xori r3,r22,0x47
 803b2e8:	ad d6 00 67 	l.xori r14,r22,0x67
 803b2ec:	a4 63 00 ff 	l.andi r3,r3,0xff
 803b2f0:	a5 ce 00 ff 	l.andi r14,r14,0xff
 803b2f4:	9c 63 ff ff 	l.addi r3,r3,0xffffffff
 803b2f8:	9d ce ff ff 	l.addi r14,r14,0xffffffff
 803b2fc:	e1 ce 18 04 	l.or r14,r14,r3
 803b300:	00 00 00 03 	l.j 803b30c <flt+0x130>
 803b304:	b9 ce 00 5f 	l.srli r14,r14,0x1f
 803b308:	9d c0 00 06 	l.addi r14,r0,0x6
 803b30c:	ac 76 00 47 	l.xori r3,r22,0x47
 803b310:	a4 63 00 ff 	l.andi r3,r3,0xff
 803b314:	9c 63 ff ff 	l.addi r3,r3,0xffffffff
 803b318:	b8 63 00 5f 	l.srli r3,r3,0x1f
 803b31c:	d4 01 18 04 	l.sw 0x4(r1),r3
 803b320:	ac 76 00 45 	l.xori r3,r22,0x45
 803b324:	a4 63 00 ff 	l.andi r3,r3,0xff
 803b328:	9c 63 ff ff 	l.addi r3,r3,0xffffffff
 803b32c:	bd 83 00 00 	l.sfltsi r3,0x0
 803b330:	10 00 00 05 	l.bf 803b344 <flt+0x168>
 803b334:	84 e1 00 04 	l.lwz r7,0x4(r1)
 803b338:	bc 07 00 00 	l.sfeqi r7,0x0
 803b33c:	10 00 00 08 	l.bf 803b35c <flt+0x180>
 803b340:	84 a1 00 04 	l.lwz r5,0x4(r1)
 803b344:	9c 76 00 20 	l.addi r3,r22,0x20
 803b348:	9c 80 00 01 	l.addi r4,r0,0x1
 803b34c:	b8 63 00 18 	l.slli r3,r3,0x18
 803b350:	d4 01 20 0c 	l.sw 0xc(r1),r4
 803b354:	00 00 00 04 	l.j 803b364 <flt+0x188>
 803b358:	b8 63 00 98 	l.srai r3,r3,0x18
 803b35c:	a8 76 00 00 	l.ori r3,r22,0x0
 803b360:	d4 01 28 0c 	l.sw 0xc(r1),r5
 803b364:	bc 23 00 67 	l.sfnei r3,0x67
 803b368:	10 00 00 1e 	l.bf 803b3e0 <flt+0x204>
 803b36c:	bc 23 00 65 	l.sfnei r3,0x65
 803b370:	9f c0 00 01 	l.addi r30,r0,0x1
 803b374:	a8 9c 00 00 	l.ori r4,r28,0x0
 803b378:	a8 ae 00 00 	l.ori r5,r14,0x0
 803b37c:	a8 78 00 00 	l.ori r3,r24,0x0
 803b380:	9c c1 00 b4 	l.addi r6,r1,0xb4
 803b384:	9c e1 00 b0 	l.addi r7,r1,0xb0
 803b388:	9d 01 00 10 	l.addi r8,r1,0x10
 803b38c:	07 ff fe 97 	l.jal 803ade8 <enx_cvt>
 803b390:	d4 01 f0 00 	l.sw 0x0(r1),r30
 803b394:	87 41 00 b4 	l.lwz r26,0xb4(r1)
 803b398:	9c ba ff ff 	l.addi r5,r26,0xffffffff
 803b39c:	e5 ae 28 00 	l.sfles r14,r5
 803b3a0:	10 00 00 03 	l.bf 803b3ac <flt+0x1d0>
 803b3a4:	a8 9e 00 00 	l.ori r4,r30,0x0
 803b3a8:	9c 80 00 00 	l.addi r4,r0,0x0
 803b3ac:	a4 84 00 ff 	l.andi r4,r4,0xff
 803b3b0:	bc 24 00 00 	l.sfnei r4,0x0
 803b3b4:	10 00 00 09 	l.bf 803b3d8 <flt+0x1fc>
 803b3b8:	bd 85 ff fc 	l.sfltsi r5,0xfffffffc
 803b3bc:	10 00 00 03 	l.bf 803b3c8 <flt+0x1ec>
 803b3c0:	9c 60 00 01 	l.addi r3,r0,0x1
 803b3c4:	a8 64 00 00 	l.ori r3,r4,0x0
 803b3c8:	a4 63 00 ff 	l.andi r3,r3,0xff
 803b3cc:	bc 03 00 00 	l.sfeqi r3,0x0
 803b3d0:	10 00 00 60 	l.bf 803b550 <flt+0x374>
 803b3d4:	e3 4e d0 02 	l.sub r26,r14,r26
 803b3d8:	00 00 00 05 	l.j 803b3ec <flt+0x210>
 803b3dc:	9f 4e ff ff 	l.addi r26,r14,0xffffffff
 803b3e0:	10 00 00 59 	l.bf 803b544 <flt+0x368>
 803b3e4:	bc 23 00 66 	l.sfnei r3,0x66
 803b3e8:	ab 4e 00 00 	l.ori r26,r14,0x0
 803b3ec:	9c 60 00 01 	l.addi r3,r0,0x1
 803b3f0:	a8 9c 00 00 	l.ori r4,r28,0x0
 803b3f4:	d4 01 18 00 	l.sw 0x0(r1),r3
 803b3f8:	9c ba 00 01 	l.addi r5,r26,0x1
 803b3fc:	a8 78 00 00 	l.ori r3,r24,0x0
 803b400:	9c c1 00 b4 	l.addi r6,r1,0xb4
 803b404:	9c e1 00 b0 	l.addi r7,r1,0xb0
 803b408:	07 ff fe 78 	l.jal 803ade8 <enx_cvt>
 803b40c:	9d 01 00 10 	l.addi r8,r1,0x10
 803b410:	84 61 00 b0 	l.lwz r3,0xb0(r1)
 803b414:	bc 03 00 00 	l.sfeqi r3,0x0
 803b418:	10 00 00 05 	l.bf 803b42c <flt+0x250>
 803b41c:	9c c0 00 2d 	l.addi r6,r0,0x2d
 803b420:	9c 61 00 61 	l.addi r3,r1,0x61
 803b424:	00 00 00 03 	l.j 803b430 <flt+0x254>
 803b428:	d8 01 30 60 	l.sb 0x60(r1),r6
 803b42c:	9c 61 00 60 	l.addi r3,r1,0x60
 803b430:	8c eb 00 00 	l.lbz r7,0x0(r11)
 803b434:	d8 03 38 00 	l.sb 0x0(r3),r7
 803b438:	bd ba 00 00 	l.sflesi r26,0x0
 803b43c:	10 00 00 05 	l.bf 803b450 <flt+0x274>
 803b440:	9f c3 00 01 	l.addi r30,r3,0x1
 803b444:	9c 80 00 2e 	l.addi r4,r0,0x2e
 803b448:	d8 1e 20 00 	l.sb 0x0(r30),r4
 803b44c:	9f c3 00 02 	l.addi r30,r3,0x2
 803b450:	a8 ba 00 00 	l.ori r5,r26,0x0
 803b454:	a8 7e 00 00 	l.ori r3,r30,0x0
 803b458:	9c 8b 00 01 	l.addi r4,r11,0x1
 803b45c:	04 01 21 1b 	l.jal 80838c8 <memcpy>
 803b460:	e3 5e d0 00 	l.add r26,r30,r26
 803b464:	84 a1 00 0c 	l.lwz r5,0xc(r1)
 803b468:	bc 05 00 00 	l.sfeqi r5,0x0
 803b46c:	10 00 00 03 	l.bf 803b478 <flt+0x29c>
 803b470:	9c 60 00 65 	l.addi r3,r0,0x65
 803b474:	9c 60 00 45 	l.addi r3,r0,0x45
 803b478:	d8 1a 18 00 	l.sb 0x0(r26),r3
 803b47c:	9f da 00 01 	l.addi r30,r26,0x1
 803b480:	85 61 00 b4 	l.lwz r11,0xb4(r1)
 803b484:	bc 2b 00 00 	l.sfnei r11,0x0
 803b488:	10 00 00 0e 	l.bf 803b4c0 <flt+0x2e4>
 803b48c:	9f 5a 00 02 	l.addi r26,r26,0x2
 803b490:	18 a0 08 00 	l.movhi r5,0x800
 803b494:	a8 78 00 00 	l.ori r3,r24,0x0
 803b498:	a8 a5 00 a8 	l.ori r5,r5,0xa8
 803b49c:	84 c5 00 04 	l.lwz r6,0x4(r5)
 803b4a0:	84 a5 00 00 	l.lwz r5,0x0(r5)
 803b4a4:	04 01 48 fe 	l.jal 808d89c <__eqdf2>
 803b4a8:	a8 9c 00 00 	l.ori r4,r28,0x0
 803b4ac:	bc 0b 00 00 	l.sfeqi r11,0x0
 803b4b0:	10 00 00 0c 	l.bf 803b4e0 <flt+0x304>
 803b4b4:	9c e0 00 2b 	l.addi r7,r0,0x2b
 803b4b8:	00 00 00 06 	l.j 803b4d0 <flt+0x2f4>
 803b4bc:	9d 60 ff ff 	l.addi r11,r0,0xffffffff
 803b4c0:	9d 6b ff ff 	l.addi r11,r11,0xffffffff
 803b4c4:	bd 6b 00 00 	l.sfgesi r11,0x0
 803b4c8:	10 00 00 06 	l.bf 803b4e0 <flt+0x304>
 803b4cc:	9c e0 00 2b 	l.addi r7,r0,0x2b
 803b4d0:	9c c0 00 2d 	l.addi r6,r0,0x2d
 803b4d4:	e1 60 58 02 	l.sub r11,r0,r11
 803b4d8:	00 00 00 03 	l.j 803b4e4 <flt+0x308>
 803b4dc:	d8 1e 30 00 	l.sb 0x0(r30),r6
 803b4e0:	d8 1e 38 00 	l.sb 0x0(r30),r7
 803b4e4:	9c 60 00 0a 	l.addi r3,r0,0xa
 803b4e8:	e0 ab 1b 09 	l.div r5,r11,r3
 803b4ec:	b8 85 00 03 	l.slli r4,r5,0x3
 803b4f0:	e0 c5 28 00 	l.add r6,r5,r5
 803b4f4:	e0 86 20 00 	l.add r4,r6,r4
 803b4f8:	e1 6b 20 02 	l.sub r11,r11,r4
 803b4fc:	e0 85 1b 09 	l.div r4,r5,r3
 803b500:	e0 64 1b 09 	l.div r3,r4,r3
 803b504:	b8 c4 00 03 	l.slli r6,r4,0x3
 803b508:	e0 e4 20 00 	l.add r7,r4,r4
 803b50c:	9d 6b 00 30 	l.addi r11,r11,0x30
 803b510:	e0 c7 30 00 	l.add r6,r7,r6
 803b514:	d8 1a 58 02 	l.sb 0x2(r26),r11
 803b518:	e0 a5 30 02 	l.sub r5,r5,r6
 803b51c:	9c a5 00 30 	l.addi r5,r5,0x30
 803b520:	d8 1a 28 01 	l.sb 0x1(r26),r5
 803b524:	e0 a3 18 00 	l.add r5,r3,r3
 803b528:	b8 63 00 03 	l.slli r3,r3,0x3
 803b52c:	e0 65 18 00 	l.add r3,r5,r3
 803b530:	e0 84 18 02 	l.sub r4,r4,r3
 803b534:	9c 7a 00 03 	l.addi r3,r26,0x3
 803b538:	9c 84 00 30 	l.addi r4,r4,0x30
 803b53c:	00 00 00 5a 	l.j 803b6a4 <flt+0x4c8>
 803b540:	d8 1a 20 00 	l.sb 0x0(r26),r4
 803b544:	10 00 00 58 	l.bf 803b6a4 <flt+0x4c8>
 803b548:	9c 61 00 60 	l.addi r3,r1,0x60
 803b54c:	ab 4e 00 00 	l.ori r26,r14,0x0
 803b550:	9c 60 00 00 	l.addi r3,r0,0x0
 803b554:	a8 9c 00 00 	l.ori r4,r28,0x0
 803b558:	d4 01 18 00 	l.sw 0x0(r1),r3
 803b55c:	a8 ba 00 00 	l.ori r5,r26,0x0
 803b560:	a8 78 00 00 	l.ori r3,r24,0x0
 803b564:	9c c1 00 b4 	l.addi r6,r1,0xb4
 803b568:	9c e1 00 b0 	l.addi r7,r1,0xb0
 803b56c:	07 ff fe 1f 	l.jal 803ade8 <enx_cvt>
 803b570:	9d 01 00 10 	l.addi r8,r1,0x10
 803b574:	84 61 00 b0 	l.lwz r3,0xb0(r1)
 803b578:	bc 03 00 00 	l.sfeqi r3,0x0
 803b57c:	10 00 00 05 	l.bf 803b590 <flt+0x3b4>
 803b580:	9c 80 00 2d 	l.addi r4,r0,0x2d
 803b584:	d8 01 20 60 	l.sb 0x60(r1),r4
 803b588:	00 00 00 03 	l.j 803b594 <flt+0x3b8>
 803b58c:	9c 81 00 61 	l.addi r4,r1,0x61
 803b590:	9c 81 00 60 	l.addi r4,r1,0x60
 803b594:	90 6b 00 00 	l.lbs r3,0x0(r11)
 803b598:	bc 03 00 00 	l.sfeqi r3,0x0
 803b59c:	10 00 00 31 	l.bf 803b660 <flt+0x484>
 803b5a0:	9c 60 00 30 	l.addi r3,r0,0x30
 803b5a4:	84 a1 00 b4 	l.lwz r5,0xb4(r1)
 803b5a8:	bd a5 00 00 	l.sflesi r5,0x0
 803b5ac:	10 00 00 05 	l.bf 803b5c0 <flt+0x3e4>
 803b5b0:	9c e0 00 2e 	l.addi r7,r0,0x2e
 803b5b4:	9c c0 00 00 	l.addi r6,r0,0x0
 803b5b8:	00 00 00 24 	l.j 803b648 <flt+0x46c>
 803b5bc:	a8 64 00 00 	l.ori r3,r4,0x0
 803b5c0:	9c c0 00 30 	l.addi r6,r0,0x30
 803b5c4:	d8 04 30 00 	l.sb 0x0(r4),r6
 803b5c8:	9c 64 00 02 	l.addi r3,r4,0x2
 803b5cc:	d8 04 38 01 	l.sb 0x1(r4),r7
 803b5d0:	e0 84 28 02 	l.sub r4,r4,r5
 803b5d4:	e0 c0 28 02 	l.sub r6,r0,r5
 803b5d8:	9c 84 00 02 	l.addi r4,r4,0x2
 803b5dc:	00 00 00 04 	l.j 803b5ec <flt+0x410>
 803b5e0:	a8 a3 00 00 	l.ori r5,r3,0x0
 803b5e4:	d8 05 38 00 	l.sb 0x0(r5),r7
 803b5e8:	9c a5 00 01 	l.addi r5,r5,0x1
 803b5ec:	e4 25 20 00 	l.sfne r5,r4
 803b5f0:	13 ff ff fd 	l.bf 803b5e4 <flt+0x408>
 803b5f4:	9c e0 00 30 	l.addi r7,r0,0x30
 803b5f8:	00 00 00 05 	l.j 803b60c <flt+0x430>
 803b5fc:	e0 63 30 00 	l.add r3,r3,r6
 803b600:	d8 03 20 00 	l.sb 0x0(r3),r4
 803b604:	9d 6b 00 01 	l.addi r11,r11,0x1
 803b608:	9c 63 00 01 	l.addi r3,r3,0x1
 803b60c:	90 8b 00 00 	l.lbs r4,0x0(r11)
 803b610:	bc 24 00 00 	l.sfnei r4,0x0
 803b614:	13 ff ff fb 	l.bf 803b600 <flt+0x424>
 803b618:	9c e0 00 00 	l.addi r7,r0,0x0
 803b61c:	00 00 00 24 	l.j 803b6ac <flt+0x4d0>
 803b620:	d8 03 38 00 	l.sb 0x0(r3),r7
 803b624:	10 00 00 04 	l.bf 803b634 <flt+0x458>
 803b628:	9c 80 00 2e 	l.addi r4,r0,0x2e
 803b62c:	d8 03 20 00 	l.sb 0x0(r3),r4
 803b630:	9c 63 00 01 	l.addi r3,r3,0x1
 803b634:	8c eb 00 00 	l.lbz r7,0x0(r11)
 803b638:	9c c6 00 01 	l.addi r6,r6,0x1
 803b63c:	d8 03 38 00 	l.sb 0x0(r3),r7
 803b640:	9d 6b 00 01 	l.addi r11,r11,0x1
 803b644:	9c 63 00 01 	l.addi r3,r3,0x1
 803b648:	90 8b 00 00 	l.lbs r4,0x0(r11)
 803b64c:	bc 24 00 00 	l.sfnei r4,0x0
 803b650:	13 ff ff f5 	l.bf 803b624 <flt+0x448>
 803b654:	e4 26 28 00 	l.sfne r6,r5
 803b658:	00 00 00 14 	l.j 803b6a8 <flt+0x4cc>
 803b65c:	9c e0 00 00 	l.addi r7,r0,0x0
 803b660:	bd ba 00 00 	l.sflesi r26,0x0
 803b664:	d8 04 18 00 	l.sb 0x0(r4),r3
 803b668:	10 00 00 0f 	l.bf 803b6a4 <flt+0x4c8>
 803b66c:	9c 64 00 01 	l.addi r3,r4,0x1
 803b670:	9c a0 00 2e 	l.addi r5,r0,0x2e
 803b674:	d8 03 28 00 	l.sb 0x0(r3),r5
 803b678:	9c 64 00 02 	l.addi r3,r4,0x2
 803b67c:	9c ba 00 02 	l.addi r5,r26,0x2
 803b680:	e0 84 28 00 	l.add r4,r4,r5
 803b684:	a8 a3 00 00 	l.ori r5,r3,0x0
 803b688:	9c c0 00 30 	l.addi r6,r0,0x30
 803b68c:	d8 05 30 00 	l.sb 0x0(r5),r6
 803b690:	9c a5 00 01 	l.addi r5,r5,0x1
 803b694:	e4 25 20 00 	l.sfne r5,r4
 803b698:	13 ff ff fd 	l.bf 803b68c <flt+0x4b0>
 803b69c:	15 00 00 00 	l.nop 0x0
 803b6a0:	e0 63 d0 00 	l.add r3,r3,r26
 803b6a4:	9c e0 00 00 	l.addi r7,r0,0x0
 803b6a8:	d8 03 38 00 	l.sb 0x0(r3),r7
 803b6ac:	e0 60 70 02 	l.sub r3,r0,r14
 803b6b0:	e1 c3 70 04 	l.or r14,r3,r14
 803b6b4:	bd 8e 00 00 	l.sfltsi r14,0x0
 803b6b8:	10 00 00 29 	l.bf 803b75c <flt+0x580>
 803b6bc:	a7 10 00 20 	l.andi r24,r16,0x20
 803b6c0:	bc 18 00 00 	l.sfeqi r24,0x0
 803b6c4:	10 00 00 27 	l.bf 803b760 <flt+0x584>
 803b6c8:	84 e1 00 04 	l.lwz r7,0x4(r1)
 803b6cc:	00 00 00 14 	l.j 803b71c <flt+0x540>
 803b6d0:	9d c1 00 60 	l.addi r14,r1,0x60
 803b6d4:	10 00 00 22 	l.bf 803b75c <flt+0x580>
 803b6d8:	ac 83 00 45 	l.xori r4,r3,0x45
 803b6dc:	a4 84 00 ff 	l.andi r4,r4,0xff
 803b6e0:	9c 84 ff ff 	l.addi r4,r4,0xffffffff
 803b6e4:	bd 84 00 00 	l.sfltsi r4,0x0
 803b6e8:	10 00 00 09 	l.bf 803b70c <flt+0x530>
 803b6ec:	15 00 00 00 	l.nop 0x0
 803b6f0:	ac 63 00 65 	l.xori r3,r3,0x65
 803b6f4:	a4 63 00 ff 	l.andi r3,r3,0xff
 803b6f8:	9c 63 ff ff 	l.addi r3,r3,0xffffffff
 803b6fc:	bd 63 00 00 	l.sfgesi r3,0x0
 803b700:	10 00 00 07 	l.bf 803b71c <flt+0x540>
 803b704:	9d ce 00 01 	l.addi r14,r14,0x1
 803b708:	9d ce ff ff 	l.addi r14,r14,0xffffffff
 803b70c:	04 01 25 10 	l.jal 8084b4c <strlen>
 803b710:	a8 6e 00 00 	l.ori r3,r14,0x0
 803b714:	00 00 00 0e 	l.j 803b74c <flt+0x570>
 803b718:	e0 6e 58 00 	l.add r3,r14,r11
 803b71c:	90 6e 00 00 	l.lbs r3,0x0(r14)
 803b720:	bc 23 00 00 	l.sfnei r3,0x0
 803b724:	13 ff ff ec 	l.bf 803b6d4 <flt+0x4f8>
 803b728:	bc 03 00 2e 	l.sfeqi r3,0x2e
 803b72c:	9c 80 00 2e 	l.addi r4,r0,0x2e
 803b730:	d8 0e 18 01 	l.sb 0x1(r14),r3
 803b734:	00 00 00 0a 	l.j 803b75c <flt+0x580>
 803b738:	d8 0e 20 00 	l.sb 0x0(r14),r4
 803b73c:	8c a3 00 00 	l.lbz r5,0x0(r3)
 803b740:	9d 6b ff ff 	l.addi r11,r11,0xffffffff
 803b744:	d8 03 28 01 	l.sb 0x1(r3),r5
 803b748:	9c 63 ff ff 	l.addi r3,r3,0xffffffff
 803b74c:	bd 4b 00 00 	l.sfgtsi r11,0x0
 803b750:	13 ff ff fb 	l.bf 803b73c <flt+0x560>
 803b754:	9c c0 00 2e 	l.addi r6,r0,0x2e
 803b758:	d8 0e 30 00 	l.sb 0x0(r14),r6
 803b75c:	84 e1 00 04 	l.lwz r7,0x4(r1)
 803b760:	bc 27 00 00 	l.sfnei r7,0x0
 803b764:	10 00 00 08 	l.bf 803b784 <flt+0x5a8>
 803b768:	bc 38 00 00 	l.sfnei r24,0x0
 803b76c:	ae d6 00 67 	l.xori r22,r22,0x67
 803b770:	a6 d6 00 ff 	l.andi r22,r22,0xff
 803b774:	9e d6 ff ff 	l.addi r22,r22,0xffffffff
 803b778:	bd 76 00 00 	l.sfgesi r22,0x0
 803b77c:	10 00 00 2c 	l.bf 803b82c <flt+0x650>
 803b780:	bc 38 00 00 	l.sfnei r24,0x0
 803b784:	10 00 00 2a 	l.bf 803b82c <flt+0x650>
 803b788:	9c 81 00 60 	l.addi r4,r1,0x60
 803b78c:	90 64 00 00 	l.lbs r3,0x0(r4)
 803b790:	ac a3 00 2e 	l.xori r5,r3,0x2e
 803b794:	a4 a5 00 ff 	l.andi r5,r5,0xff
 803b798:	bc 05 00 00 	l.sfeqi r5,0x0
 803b79c:	10 00 00 06 	l.bf 803b7b4 <flt+0x5d8>
 803b7a0:	a4 a3 00 ff 	l.andi r5,r3,0xff
 803b7a4:	bc 25 00 00 	l.sfnei r5,0x0
 803b7a8:	13 ff ff f9 	l.bf 803b78c <flt+0x5b0>
 803b7ac:	9c 84 00 01 	l.addi r4,r4,0x1
 803b7b0:	9c 84 ff ff 	l.addi r4,r4,0xffffffff
 803b7b4:	bc 03 00 00 	l.sfeqi r3,0x0
 803b7b8:	10 00 00 1d 	l.bf 803b82c <flt+0x650>
 803b7bc:	9c 84 00 01 	l.addi r4,r4,0x1
 803b7c0:	90 64 00 00 	l.lbs r3,0x0(r4)
 803b7c4:	ac a3 00 65 	l.xori r5,r3,0x65
 803b7c8:	a4 a5 00 ff 	l.andi r5,r5,0xff
 803b7cc:	bc 05 00 00 	l.sfeqi r5,0x0
 803b7d0:	10 00 00 08 	l.bf 803b7f0 <flt+0x614>
 803b7d4:	a4 a3 00 ff 	l.andi r5,r3,0xff
 803b7d8:	bc 05 00 00 	l.sfeqi r5,0x0
 803b7dc:	10 00 00 05 	l.bf 803b7f0 <flt+0x614>
 803b7e0:	bc 23 00 45 	l.sfnei r3,0x45
 803b7e4:	13 ff ff f7 	l.bf 803b7c0 <flt+0x5e4>
 803b7e8:	9c 84 00 01 	l.addi r4,r4,0x1
 803b7ec:	9c 84 ff ff 	l.addi r4,r4,0xffffffff
 803b7f0:	9c 64 ff ff 	l.addi r3,r4,0xffffffff
 803b7f4:	90 a3 00 00 	l.lbs r5,0x0(r3)
 803b7f8:	bc 05 00 30 	l.sfeqi r5,0x30
 803b7fc:	13 ff ff fe 	l.bf 803b7f4 <flt+0x618>
 803b800:	9c 63 ff ff 	l.addi r3,r3,0xffffffff
 803b804:	bc 25 00 2e 	l.sfnei r5,0x2e
 803b808:	10 00 00 03 	l.bf 803b814 <flt+0x638>
 803b80c:	9c 63 00 01 	l.addi r3,r3,0x1
 803b810:	9c 63 ff ff 	l.addi r3,r3,0xffffffff
 803b814:	90 a4 00 00 	l.lbs r5,0x0(r4)
 803b818:	9c 63 00 01 	l.addi r3,r3,0x1
 803b81c:	9c 84 00 01 	l.addi r4,r4,0x1
 803b820:	bc 25 00 00 	l.sfnei r5,0x0
 803b824:	13 ff ff fc 	l.bf 803b814 <flt+0x638>
 803b828:	d8 03 28 00 	l.sb 0x0(r3),r5
 803b82c:	04 01 24 c8 	l.jal 8084b4c <strlen>
 803b830:	9c 61 00 60 	l.addi r3,r1,0x60
 803b834:	a4 70 00 11 	l.andi r3,r16,0x11
 803b838:	bc 23 00 00 	l.sfnei r3,0x0
 803b83c:	10 00 00 0b 	l.bf 803b868 <flt+0x68c>
 803b840:	e0 d4 58 02 	l.sub r6,r20,r11
 803b844:	00 00 00 05 	l.j 803b858 <flt+0x67c>
 803b848:	9c c6 ff ff 	l.addi r6,r6,0xffffffff
 803b84c:	d8 02 18 00 	l.sb 0x0(r2),r3
 803b850:	9c 42 00 01 	l.addi r2,r2,0x1
 803b854:	9c c6 ff ff 	l.addi r6,r6,0xffffffff
 803b858:	9c 66 00 01 	l.addi r3,r6,0x1
 803b85c:	bd 43 00 00 	l.sfgtsi r3,0x0
 803b860:	13 ff ff fb 	l.bf 803b84c <flt+0x670>
 803b864:	9c 60 00 20 	l.addi r3,r0,0x20
 803b868:	bc 12 00 00 	l.sfeqi r18,0x0
 803b86c:	10 00 00 04 	l.bf 803b87c <flt+0x6a0>
 803b870:	15 00 00 00 	l.nop 0x0
 803b874:	d8 02 90 00 	l.sb 0x0(r2),r18
 803b878:	9c 42 00 01 	l.addi r2,r2,0x1
 803b87c:	a6 10 00 10 	l.andi r16,r16,0x10
 803b880:	bc 30 00 00 	l.sfnei r16,0x0
 803b884:	10 00 00 0c 	l.bf 803b8b4 <flt+0x6d8>
 803b888:	9c 60 00 00 	l.addi r3,r0,0x0
 803b88c:	00 00 00 06 	l.j 803b8a4 <flt+0x6c8>
 803b890:	9c c6 ff ff 	l.addi r6,r6,0xffffffff
 803b894:	84 81 00 08 	l.lwz r4,0x8(r1)
 803b898:	d8 02 20 00 	l.sb 0x0(r2),r4
 803b89c:	9c 42 00 01 	l.addi r2,r2,0x1
 803b8a0:	9c c6 ff ff 	l.addi r6,r6,0xffffffff
 803b8a4:	9c 66 00 01 	l.addi r3,r6,0x1
 803b8a8:	bd 43 00 00 	l.sfgtsi r3,0x0
 803b8ac:	13 ff ff fa 	l.bf 803b894 <flt+0x6b8>
 803b8b0:	9c 60 00 00 	l.addi r3,r0,0x0
 803b8b4:	00 00 00 06 	l.j 803b8cc <flt+0x6f0>
 803b8b8:	9c 81 00 60 	l.addi r4,r1,0x60
 803b8bc:	9c 63 00 01 	l.addi r3,r3,0x1
 803b8c0:	8c a5 00 00 	l.lbz r5,0x0(r5)
 803b8c4:	d8 02 28 00 	l.sb 0x0(r2),r5
 803b8c8:	9c 42 00 01 	l.addi r2,r2,0x1
 803b8cc:	e5 83 58 00 	l.sflts r3,r11
 803b8d0:	13 ff ff fb 	l.bf 803b8bc <flt+0x6e0>
 803b8d4:	e0 a4 18 00 	l.add r5,r4,r3
 803b8d8:	00 00 00 06 	l.j 803b8f0 <flt+0x714>
 803b8dc:	bd 46 00 00 	l.sfgtsi r6,0x0
 803b8e0:	9c c6 ff ff 	l.addi r6,r6,0xffffffff
 803b8e4:	d8 02 28 00 	l.sb 0x0(r2),r5
 803b8e8:	9c 42 00 01 	l.addi r2,r2,0x1
 803b8ec:	bd 46 00 00 	l.sfgtsi r6,0x0
 803b8f0:	13 ff ff fc 	l.bf 803b8e0 <flt+0x704>
 803b8f4:	9c a0 00 20 	l.addi r5,r0,0x20
 803b8f8:	9c 21 00 e4 	l.addi r1,r1,0xe4
 803b8fc:	a9 62 00 00 	l.ori r11,r2,0x0
 803b900:	85 21 ff fc 	l.lwz r9,0xfffffffc(r1)
 803b904:	84 41 ff d4 	l.lwz r2,0xffffffd4(r1)
 803b908:	85 c1 ff d8 	l.lwz r14,0xffffffd8(r1)
 803b90c:	86 01 ff dc 	l.lwz r16,0xffffffdc(r1)
 803b910:	86 41 ff e0 	l.lwz r18,0xffffffe0(r1)
 803b914:	86 81 ff e4 	l.lwz r20,0xffffffe4(r1)
 803b918:	86 c1 ff e8 	l.lwz r22,0xffffffe8(r1)
 803b91c:	87 01 ff ec 	l.lwz r24,0xffffffec(r1)
 803b920:	87 41 ff f0 	l.lwz r26,0xfffffff0(r1)
 803b924:	87 81 ff f4 	l.lwz r28,0xfffffff4(r1)
 803b928:	44 00 48 00 	l.jr r9
 803b92c:	87 c1 ff f8 	l.lwz r30,0xfffffff8(r1)

0803b930 <_is_neg>:
 803b930:	44 00 48 00 	l.jr r9
 803b934:	b9 63 00 5f 	l.srli r11,r3,0x1f

0803b938 <_mantissa>:
 803b938:	d7 e1 17 fc 	l.sw 0xfffffffc(r1),r2
 803b93c:	9c 21 ff fc 	l.addi r1,r1,0xfffffffc
 803b940:	18 40 00 7f 	l.movhi r2,0x7f
 803b944:	9c 21 00 04 	l.addi r1,r1,0x4
 803b948:	a8 42 ff ff 	l.ori r2,r2,0xffff
 803b94c:	e1 63 10 03 	l.and r11,r3,r2
 803b950:	44 00 48 00 	l.jr r9
 803b954:	84 41 ff fc 	l.lwz r2,0xfffffffc(r1)

0803b958 <_exponent>:
 803b958:	b8 63 00 57 	l.srli r3,r3,0x17
 803b95c:	44 00 48 00 	l.jr r9
 803b960:	a5 63 00 ff 	l.andi r11,r3,0xff

0803b964 <_reset_bits>:
 803b964:	d7 e1 17 fc 	l.sw 0xfffffffc(r1),r2
 803b968:	9c 80 00 00 	l.addi r4,r0,0x0
 803b96c:	9c 21 ff fc 	l.addi r1,r1,0xfffffffc
 803b970:	e0 a3 20 00 	l.add r5,r3,r4
 803b974:	9c 40 00 00 	l.addi r2,r0,0x0
 803b978:	9c 84 00 04 	l.addi r4,r4,0x4
 803b97c:	bc 24 00 24 	l.sfnei r4,0x24
 803b980:	13 ff ff fc 	l.bf 803b970 <_reset_bits+0xc>
 803b984:	d4 05 10 00 	l.sw 0x0(r5),r2
 803b988:	9c 21 00 04 	l.addi r1,r1,0x4
 803b98c:	44 00 48 00 	l.jr r9
 803b990:	84 41 ff fc 	l.lwz r2,0xfffffffc(r1)

0803b994 <_insert_bits>:
 803b994:	9c a5 00 a0 	l.addi r5,r5,0xa0
 803b998:	b8 e5 00 9f 	l.srai r7,r5,0x1f
 803b99c:	a4 c5 00 1f 	l.andi r6,r5,0x1f
 803b9a0:	a4 e7 00 1f 	l.andi r7,r7,0x1f
 803b9a4:	bc 06 00 00 	l.sfeqi r6,0x0
 803b9a8:	e0 a7 28 00 	l.add r5,r7,r5
 803b9ac:	9c e0 00 08 	l.addi r7,r0,0x8
 803b9b0:	b8 a5 00 85 	l.srai r5,r5,0x5
 803b9b4:	e0 a7 28 02 	l.sub r5,r7,r5
 803b9b8:	a8 e6 00 00 	l.ori r7,r6,0x0
 803b9bc:	10 00 00 05 	l.bf 803b9d0 <_insert_bits+0x3c>
 803b9c0:	9d 05 00 01 	l.addi r8,r5,0x1
 803b9c4:	9c e0 00 20 	l.addi r7,r0,0x20
 803b9c8:	e0 e7 30 02 	l.sub r7,r7,r6
 803b9cc:	e0 e4 38 48 	l.srl r7,r4,r7
 803b9d0:	b8 a5 00 02 	l.slli r5,r5,0x2
 803b9d4:	e0 c4 30 08 	l.sll r6,r4,r6
 803b9d8:	e0 a3 28 00 	l.add r5,r3,r5
 803b9dc:	d4 05 38 00 	l.sw 0x0(r5),r7
 803b9e0:	b8 a8 00 02 	l.slli r5,r8,0x2
 803b9e4:	e0 63 28 00 	l.add r3,r3,r5
 803b9e8:	44 00 48 00 	l.jr r9
 803b9ec:	d4 03 30 00 	l.sw 0x0(r3),r6

0803b9f0 <_Q_is_zero>:
 803b9f0:	9c 80 00 00 	l.addi r4,r0,0x0
 803b9f4:	e0 a3 20 00 	l.add r5,r3,r4
 803b9f8:	84 a5 00 00 	l.lwz r5,0x0(r5)
 803b9fc:	bc 25 00 00 	l.sfnei r5,0x0
 803ba00:	10 00 00 07 	l.bf 803ba1c <_Q_is_zero+0x2c>
 803ba04:	9c 84 00 04 	l.addi r4,r4,0x4
 803ba08:	bc 24 00 10 	l.sfnei r4,0x10
 803ba0c:	13 ff ff fb 	l.bf 803b9f8 <_Q_is_zero+0x8>
 803ba10:	e0 a3 20 00 	l.add r5,r3,r4
 803ba14:	00 00 00 03 	l.j 803ba20 <_Q_is_zero+0x30>
 803ba18:	9d 60 00 01 	l.addi r11,r0,0x1
 803ba1c:	9d 60 00 00 	l.addi r11,r0,0x0
 803ba20:	44 00 48 00 	l.jr r9
 803ba24:	15 00 00 00 	l.nop 0x0

0803ba28 <_F_is_zero>:
 803ba28:	9c 63 00 10 	l.addi r3,r3,0x10
 803ba2c:	9c 80 00 04 	l.addi r4,r0,0x4
 803ba30:	84 a3 00 00 	l.lwz r5,0x0(r3)
 803ba34:	bc 25 00 00 	l.sfnei r5,0x0
 803ba38:	10 00 00 07 	l.bf 803ba54 <_F_is_zero+0x2c>
 803ba3c:	9c 84 00 01 	l.addi r4,r4,0x1
 803ba40:	bc 24 00 09 	l.sfnei r4,0x9
 803ba44:	13 ff ff fb 	l.bf 803ba30 <_F_is_zero+0x8>
 803ba48:	9c 63 00 04 	l.addi r3,r3,0x4
 803ba4c:	00 00 00 03 	l.j 803ba58 <_F_is_zero+0x30>
 803ba50:	9d 60 00 01 	l.addi r11,r0,0x1
 803ba54:	9d 60 00 00 	l.addi r11,r0,0x0
 803ba58:	44 00 48 00 	l.jr r9
 803ba5c:	15 00 00 00 	l.nop 0x0

0803ba60 <_Q_div>:
 803ba60:	9c c3 00 10 	l.addi r6,r3,0x10
 803ba64:	9d 60 00 00 	l.addi r11,r0,0x0
 803ba68:	94 a3 00 00 	l.lhz r5,0x0(r3)
 803ba6c:	b9 6b 00 10 	l.slli r11,r11,0x10
 803ba70:	e1 6b 28 00 	l.add r11,r11,r5
 803ba74:	e0 ab 23 0a 	l.divu r5,r11,r4
 803ba78:	e0 e5 23 06 	l.mul r7,r5,r4
 803ba7c:	dc 03 28 00 	l.sh 0x0(r3),r5
 803ba80:	e1 6b 38 02 	l.sub r11,r11,r7
 803ba84:	9c 63 00 02 	l.addi r3,r3,0x2
 803ba88:	e4 23 30 00 	l.sfne r3,r6
 803ba8c:	13 ff ff f7 	l.bf 803ba68 <_Q_div+0x8>
 803ba90:	a5 6b ff ff 	l.andi r11,r11,0xffff
 803ba94:	44 00 48 00 	l.jr r9
 803ba98:	15 00 00 00 	l.nop 0x0

0803ba9c <_F_mul>:
 803ba9c:	9c a3 00 22 	l.addi r5,r3,0x22
 803baa0:	9d 60 00 00 	l.addi r11,r0,0x0
 803baa4:	9c 63 00 0e 	l.addi r3,r3,0xe
 803baa8:	94 c5 00 00 	l.lhz r6,0x0(r5)
 803baac:	e0 c4 33 06 	l.mul r6,r4,r6
 803bab0:	e1 6b 30 00 	l.add r11,r11,r6
 803bab4:	dc 05 58 00 	l.sh 0x0(r5),r11
 803bab8:	9c a5 ff fe 	l.addi r5,r5,0xfffffffe
 803babc:	e4 25 18 00 	l.sfne r5,r3
 803bac0:	13 ff ff fa 	l.bf 803baa8 <_F_mul+0xc>
 803bac4:	b9 6b 00 50 	l.srli r11,r11,0x10
 803bac8:	44 00 48 00 	l.jr r9
 803bacc:	15 00 00 00 	l.nop 0x0

0803bad0 <enx_fcvt>:
 803bad0:	d7 e1 77 e4 	l.sw 0xffffffe4(r1),r14
 803bad4:	a9 c4 00 00 	l.ori r14,r4,0x0
 803bad8:	b8 83 00 57 	l.srli r4,r3,0x17
 803badc:	d7 e1 c7 f8 	l.sw 0xfffffff8(r1),r24
 803bae0:	ab 05 00 00 	l.ori r24,r5,0x0
 803bae4:	18 a0 00 7f 	l.movhi r5,0x7f
 803bae8:	b8 c6 00 18 	l.slli r6,r6,0x18
 803baec:	d7 e1 17 e0 	l.sw 0xffffffe0(r1),r2
 803baf0:	d7 e1 87 e8 	l.sw 0xffffffe8(r1),r16
 803baf4:	d7 e1 97 ec 	l.sw 0xffffffec(r1),r18
 803baf8:	d7 e1 4f fc 	l.sw 0xfffffffc(r1),r9
 803bafc:	d7 e1 a7 f0 	l.sw 0xfffffff0(r1),r20
 803bb00:	d7 e1 b7 f4 	l.sw 0xfffffff4(r1),r22
 803bb04:	a4 84 00 ff 	l.andi r4,r4,0xff
 803bb08:	a8 a5 ff ff 	l.ori r5,r5,0xffff
 803bb0c:	9c 21 ff bc 	l.addi r1,r1,0xffffffbc
 803bb10:	aa 07 00 00 	l.ori r16,r7,0x0
 803bb14:	ba 46 00 98 	l.srai r18,r6,0x18
 803bb18:	bc 24 00 ff 	l.sfnei r4,0xff
 803bb1c:	10 00 00 19 	l.bf 803bb80 <enx_fcvt+0xb0>
 803bb20:	e0 43 28 03 	l.and r2,r3,r5
 803bb24:	bc 22 00 00 	l.sfnei r2,0x0
 803bb28:	10 00 00 09 	l.bf 803bb4c <enx_fcvt+0x7c>
 803bb2c:	18 80 08 03 	l.movhi r4,0x803
 803bb30:	18 80 08 03 	l.movhi r4,0x803
 803bb34:	a8 6e 00 00 	l.ori r3,r14,0x0
 803bb38:	a8 84 49 ef 	l.ori r4,r4,0x49ef
 803bb3c:	04 01 23 93 	l.jal 8084988 <strcpy>
 803bb40:	9c 40 ff fd 	l.addi r2,r0,0xfffffffd
 803bb44:	00 00 00 58 	l.j 803bca4 <enx_fcvt+0x1d4>
 803bb48:	9c 21 00 44 	l.addi r1,r1,0x44
 803bb4c:	a8 6e 00 00 	l.ori r3,r14,0x0
 803bb50:	04 01 23 8e 	l.jal 8084988 <strcpy>
 803bb54:	a8 84 49 f3 	l.ori r4,r4,0x49f3
 803bb58:	9c e0 00 00 	l.addi r7,r0,0x0
 803bb5c:	a8 62 00 00 	l.ori r3,r2,0x0
 803bb60:	9c 8e 00 03 	l.addi r4,r14,0x3
 803bb64:	9c a0 00 10 	l.addi r5,r0,0x10
 803bb68:	9c c0 00 06 	l.addi r6,r0,0x6
 803bb6c:	a9 07 00 00 	l.ori r8,r7,0x0
 803bb70:	07 ff f9 c4 	l.jal 803a280 <itoan>
 803bb74:	9c 40 ff f7 	l.addi r2,r0,0xfffffff7
 803bb78:	00 00 00 4b 	l.j 803bca4 <enx_fcvt+0x1d4>
 803bb7c:	9c 21 00 44 	l.addi r1,r1,0x44
 803bb80:	bc 04 00 00 	l.sfeqi r4,0x0
 803bb84:	10 00 00 05 	l.bf 803bb98 <enx_fcvt+0xc8>
 803bb88:	9e c0 ff 82 	l.addi r22,r0,0xffffff82
 803bb8c:	18 60 00 80 	l.movhi r3,0x80
 803bb90:	9e c4 ff 81 	l.addi r22,r4,0xffffff81
 803bb94:	e0 42 18 04 	l.or r2,r2,r3
 803bb98:	07 ff ff 73 	l.jal 803b964 <_reset_bits>
 803bb9c:	a8 61 00 00 	l.ori r3,r1,0x0
 803bba0:	a8 82 00 00 	l.ori r4,r2,0x0
 803bba4:	a8 61 00 00 	l.ori r3,r1,0x0
 803bba8:	9c b6 00 09 	l.addi r5,r22,0x9
 803bbac:	07 ff ff 7a 	l.jal 803b994 <_insert_bits>
 803bbb0:	9c 40 00 00 	l.addi r2,r0,0x0
 803bbb4:	a8 61 00 00 	l.ori r3,r1,0x0
 803bbb8:	07 ff ff aa 	l.jal 803ba60 <_Q_div>
 803bbbc:	9c 80 00 0a 	l.addi r4,r0,0xa
 803bbc0:	e0 6e 10 00 	l.add r3,r14,r2
 803bbc4:	9c 8b 00 30 	l.addi r4,r11,0x30
 803bbc8:	9c 42 00 01 	l.addi r2,r2,0x1
 803bbcc:	bc 2b 00 00 	l.sfnei r11,0x0
 803bbd0:	0c 00 00 03 	l.bnf 803bbdc <enx_fcvt+0x10c>
 803bbd4:	d8 03 20 00 	l.sb 0x0(r3),r4
 803bbd8:	9e 40 00 01 	l.addi r18,r0,0x1
 803bbdc:	07 ff ff 85 	l.jal 803b9f0 <_Q_is_zero>
 803bbe0:	a8 61 00 00 	l.ori r3,r1,0x0
 803bbe4:	bc 0b 00 00 	l.sfeqi r11,0x0
 803bbe8:	13 ff ff f3 	l.bf 803bbb4 <enx_fcvt+0xe4>
 803bbec:	e0 6e 10 00 	l.add r3,r14,r2
 803bbf0:	9c 80 00 00 	l.addi r4,r0,0x0
 803bbf4:	d8 03 20 00 	l.sb 0x0(r3),r4
 803bbf8:	07 ff f9 5c 	l.jal 803a168 <strrev>
 803bbfc:	a8 6e 00 00 	l.ori r3,r14,0x0
 803bc00:	9c a0 00 00 	l.addi r5,r0,0x0
 803bc04:	d4 10 28 00 	l.sw 0x0(r16),r5
 803bc08:	00 00 00 19 	l.j 803bc6c <enx_fcvt+0x19c>
 803bc0c:	aa c5 00 00 	l.ori r22,r5,0x0
 803bc10:	07 ff ff a3 	l.jal 803ba9c <_F_mul>
 803bc14:	9c 80 00 0a 	l.addi r4,r0,0xa
 803bc18:	e0 6e 10 00 	l.add r3,r14,r2
 803bc1c:	9c 8b 00 30 	l.addi r4,r11,0x30
 803bc20:	d8 03 20 00 	l.sb 0x0(r3),r4
 803bc24:	e0 60 58 02 	l.sub r3,r0,r11
 803bc28:	e1 63 58 04 	l.or r11,r3,r11
 803bc2c:	bd 8b 00 00 	l.sfltsi r11,0x0
 803bc30:	10 00 00 08 	l.bf 803bc50 <enx_fcvt+0x180>
 803bc34:	9c 42 00 01 	l.addi r2,r2,0x1
 803bc38:	a6 52 00 ff 	l.andi r18,r18,0xff
 803bc3c:	e2 40 90 02 	l.sub r18,r0,r18
 803bc40:	ba 52 00 5f 	l.srli r18,r18,0x1f
 803bc44:	bc 12 00 00 	l.sfeqi r18,0x0
 803bc48:	10 00 00 05 	l.bf 803bc5c <enx_fcvt+0x18c>
 803bc4c:	15 00 00 00 	l.nop 0x0
 803bc50:	9f 18 ff ff 	l.addi r24,r24,0xffffffff
 803bc54:	00 00 00 05 	l.j 803bc68 <enx_fcvt+0x198>
 803bc58:	9e 40 00 01 	l.addi r18,r0,0x1
 803bc5c:	84 70 00 00 	l.lwz r3,0x0(r16)
 803bc60:	9c 63 00 01 	l.addi r3,r3,0x1
 803bc64:	d4 10 18 00 	l.sw 0x0(r16),r3
 803bc68:	9e d6 00 01 	l.addi r22,r22,0x1
 803bc6c:	bd b8 00 00 	l.sflesi r24,0x0
 803bc70:	10 00 00 09 	l.bf 803bc94 <enx_fcvt+0x1c4>
 803bc74:	bd b6 00 31 	l.sflesi r22,0x31
 803bc78:	10 00 00 03 	l.bf 803bc84 <enx_fcvt+0x1b4>
 803bc7c:	9c 80 00 01 	l.addi r4,r0,0x1
 803bc80:	9c 80 00 00 	l.addi r4,r0,0x0
 803bc84:	a4 84 00 ff 	l.andi r4,r4,0xff
 803bc88:	bc 24 00 00 	l.sfnei r4,0x0
 803bc8c:	13 ff ff e1 	l.bf 803bc10 <enx_fcvt+0x140>
 803bc90:	a8 61 00 00 	l.ori r3,r1,0x0
 803bc94:	e1 ce 10 00 	l.add r14,r14,r2
 803bc98:	9c 60 00 00 	l.addi r3,r0,0x0
 803bc9c:	d8 0e 18 00 	l.sb 0x0(r14),r3
 803bca0:	9c 21 00 44 	l.addi r1,r1,0x44
 803bca4:	a9 62 00 00 	l.ori r11,r2,0x0
 803bca8:	85 21 ff fc 	l.lwz r9,0xfffffffc(r1)
 803bcac:	84 41 ff e0 	l.lwz r2,0xffffffe0(r1)
 803bcb0:	85 c1 ff e4 	l.lwz r14,0xffffffe4(r1)
 803bcb4:	86 01 ff e8 	l.lwz r16,0xffffffe8(r1)
 803bcb8:	86 41 ff ec 	l.lwz r18,0xffffffec(r1)
 803bcbc:	86 81 ff f0 	l.lwz r20,0xfffffff0(r1)
 803bcc0:	86 c1 ff f4 	l.lwz r22,0xfffffff4(r1)
 803bcc4:	44 00 48 00 	l.jr r9
 803bcc8:	87 01 ff f8 	l.lwz r24,0xfffffff8(r1)

0803bccc <enx_frnd>:
 803bccc:	84 e4 00 00 	l.lwz r7,0x0(r4)
 803bcd0:	d7 e1 17 fc 	l.sw 0xfffffffc(r1),r2
 803bcd4:	e0 c3 38 00 	l.add r6,r3,r7
 803bcd8:	9c 21 ff fc 	l.addi r1,r1,0xfffffffc
 803bcdc:	90 c6 ff ff 	l.lbs r6,0xffffffff(r6)
 803bce0:	bd 46 00 34 	l.sfgtsi r6,0x34
 803bce4:	10 00 00 03 	l.bf 803bcf0 <enx_frnd+0x24>
 803bce8:	9c a0 00 01 	l.addi r5,r0,0x1
 803bcec:	9c a0 00 00 	l.addi r5,r0,0x0
 803bcf0:	9c e7 ff fe 	l.addi r7,r7,0xfffffffe
 803bcf4:	00 00 00 12 	l.j 803bd3c <enx_frnd+0x70>
 803bcf8:	e0 c3 38 00 	l.add r6,r3,r7
 803bcfc:	10 00 00 1b 	l.bf 803bd68 <enx_frnd+0x9c>
 803bd00:	9c a0 00 01 	l.addi r5,r0,0x1
 803bd04:	91 06 00 00 	l.lbs r8,0x0(r6)
 803bd08:	9d 68 ff d1 	l.addi r11,r8,0xffffffd1
 803bd0c:	9d 08 00 01 	l.addi r8,r8,0x1
 803bd10:	bd 4b 00 09 	l.sfgtsi r11,0x9
 803bd14:	0c 00 00 04 	l.bnf 803bd24 <enx_frnd+0x58>
 803bd18:	a5 08 00 ff 	l.andi r8,r8,0xff
 803bd1c:	00 00 00 03 	l.j 803bd28 <enx_frnd+0x5c>
 803bd20:	9d 08 ff f6 	l.addi r8,r8,0xfffffff6
 803bd24:	9c a0 00 00 	l.addi r5,r0,0x0
 803bd28:	b9 08 00 18 	l.slli r8,r8,0x18
 803bd2c:	9c e7 ff ff 	l.addi r7,r7,0xffffffff
 803bd30:	b9 08 00 98 	l.srai r8,r8,0x18
 803bd34:	d8 06 40 00 	l.sb 0x0(r6),r8
 803bd38:	9c c6 ff ff 	l.addi r6,r6,0xffffffff
 803bd3c:	bd 67 00 00 	l.sfgesi r7,0x0
 803bd40:	13 ff ff ef 	l.bf 803bcfc <enx_frnd+0x30>
 803bd44:	bc 05 00 00 	l.sfeqi r5,0x0
 803bd48:	10 00 00 08 	l.bf 803bd68 <enx_frnd+0x9c>
 803bd4c:	15 00 00 00 	l.nop 0x0
 803bd50:	9c 63 ff ff 	l.addi r3,r3,0xffffffff
 803bd54:	9c 40 00 31 	l.addi r2,r0,0x31
 803bd58:	d8 03 10 00 	l.sb 0x0(r3),r2
 803bd5c:	84 a4 00 00 	l.lwz r5,0x0(r4)
 803bd60:	9c a5 00 01 	l.addi r5,r5,0x1
 803bd64:	d4 04 28 00 	l.sw 0x0(r4),r5
 803bd68:	9c 21 00 04 	l.addi r1,r1,0x4
 803bd6c:	a9 63 00 00 	l.ori r11,r3,0x0
 803bd70:	44 00 48 00 	l.jr r9
 803bd74:	84 41 ff fc 	l.lwz r2,0xfffffffc(r1)

0803bd78 <ftoaf>:
 803bd78:	d7 e1 87 dc 	l.sw 0xffffffdc(r1),r16
 803bd7c:	9e 05 00 01 	l.addi r16,r5,0x1
 803bd80:	b8 c6 00 18 	l.slli r6,r6,0x18
 803bd84:	e2 10 38 00 	l.add r16,r16,r7
 803bd88:	d7 e1 17 d4 	l.sw 0xffffffd4(r1),r2
 803bd8c:	d7 e1 77 d8 	l.sw 0xffffffd8(r1),r14
 803bd90:	d7 e1 97 e0 	l.sw 0xffffffe0(r1),r18
 803bd94:	d7 e1 a7 e4 	l.sw 0xffffffe4(r1),r20
 803bd98:	d7 e1 b7 e8 	l.sw 0xffffffe8(r1),r22
 803bd9c:	d7 e1 c7 ec 	l.sw 0xffffffec(r1),r24
 803bda0:	d7 e1 e7 f4 	l.sw 0xfffffff4(r1),r28
 803bda4:	d7 e1 f7 f8 	l.sw 0xfffffff8(r1),r30
 803bda8:	d7 e1 4f fc 	l.sw 0xfffffffc(r1),r9
 803bdac:	d7 e1 d7 f0 	l.sw 0xfffffff0(r1),r26
 803bdb0:	e2 04 80 00 	l.add r16,r4,r16
 803bdb4:	9c 21 ff cc 	l.addi r1,r1,0xffffffcc
 803bdb8:	b9 08 00 18 	l.slli r8,r8,0x18
 803bdbc:	a8 44 00 00 	l.ori r2,r4,0x0
 803bdc0:	ab 85 00 00 	l.ori r28,r5,0x0
 803bdc4:	a9 c7 00 00 	l.ori r14,r7,0x0
 803bdc8:	9c a7 00 01 	l.addi r5,r7,0x1
 803bdcc:	ba 86 00 98 	l.srai r20,r6,0x18
 803bdd0:	aa 47 00 00 	l.ori r18,r7,0x0
 803bdd4:	a8 90 00 00 	l.ori r4,r16,0x0
 803bdd8:	9c c0 00 01 	l.addi r6,r0,0x1
 803bddc:	9c e1 00 04 	l.addi r7,r1,0x4
 803bde0:	aa c3 00 00 	l.ori r22,r3,0x0
 803bde4:	bb c8 00 98 	l.srai r30,r8,0x18
 803bde8:	07 ff ff 3a 	l.jal 803bad0 <enx_fcvt>
 803bdec:	93 01 00 37 	l.lbs r24,0x37(r1)
 803bdf0:	d4 01 58 00 	l.sw 0x0(r1),r11
 803bdf4:	bd 6b 00 00 	l.sfgesi r11,0x0
 803bdf8:	10 00 00 0f 	l.bf 803be34 <ftoaf+0xbc>
 803bdfc:	ba d6 00 5f 	l.srli r22,r22,0x1f
 803be00:	bc 16 00 00 	l.sfeqi r22,0x0
 803be04:	10 00 00 03 	l.bf 803be10 <ftoaf+0x98>
 803be08:	9c 60 00 2b 	l.addi r3,r0,0x2b
 803be0c:	9c 60 00 2d 	l.addi r3,r0,0x2d
 803be10:	d8 02 18 00 	l.sb 0x0(r2),r3
 803be14:	a8 90 00 00 	l.ori r4,r16,0x0
 803be18:	9c 62 00 01 	l.addi r3,r2,0x1
 803be1c:	e0 a0 58 02 	l.sub r5,r0,r11
 803be20:	04 01 23 ea 	l.jal 8084dc8 <strncpy>
 803be24:	9c 40 00 01 	l.addi r2,r0,0x1
 803be28:	85 81 00 00 	l.lwz r12,0x0(r1)
 803be2c:	00 00 00 74 	l.j 803bffc <ftoaf+0x284>
 803be30:	e1 82 60 02 	l.sub r12,r2,r12
 803be34:	af 4e ff ff 	l.xori r26,r14,0xffffffff
 803be38:	a8 70 00 00 	l.ori r3,r16,0x0
 803be3c:	e1 6b d0 00 	l.add r11,r11,r26
 803be40:	a8 81 00 00 	l.ori r4,r1,0x0
 803be44:	07 ff ff a2 	l.jal 803bccc <enx_frnd>
 803be48:	e3 50 58 00 	l.add r26,r16,r11
 803be4c:	e0 bc 70 02 	l.sub r5,r28,r14
 803be50:	a8 6b 00 00 	l.ori r3,r11,0x0
 803be54:	bd ae 00 00 	l.sflesi r14,0x0
 803be58:	10 00 00 03 	l.bf 803be64 <ftoaf+0xec>
 803be5c:	e0 9a 58 02 	l.sub r4,r26,r11
 803be60:	9c a5 ff ff 	l.addi r5,r5,0xffffffff
 803be64:	ac d4 00 20 	l.xori r6,r20,0x20
 803be68:	e0 a5 20 02 	l.sub r5,r5,r4
 803be6c:	a4 c6 00 ff 	l.andi r6,r6,0xff
 803be70:	bc 06 00 00 	l.sfeqi r6,0x0
 803be74:	10 00 00 08 	l.bf 803be94 <ftoaf+0x11c>
 803be78:	e0 a5 b0 02 	l.sub r5,r5,r22
 803be7c:	bc 16 00 00 	l.sfeqi r22,0x0
 803be80:	10 00 00 05 	l.bf 803be94 <ftoaf+0x11c>
 803be84:	9c c0 00 2d 	l.addi r6,r0,0x2d
 803be88:	9d 80 00 01 	l.addi r12,r0,0x1
 803be8c:	00 00 00 03 	l.j 803be98 <ftoaf+0x120>
 803be90:	d8 02 30 00 	l.sb 0x0(r2),r6
 803be94:	9d 80 00 00 	l.addi r12,r0,0x0
 803be98:	bc 38 00 00 	l.sfnei r24,0x0
 803be9c:	10 00 00 0b 	l.bf 803bec8 <ftoaf+0x150>
 803bea0:	15 00 00 00 	l.nop 0x0
 803bea4:	00 00 00 05 	l.j 803beb8 <ftoaf+0x140>
 803bea8:	9c a5 ff ff 	l.addi r5,r5,0xffffffff
 803beac:	9d 8c 00 01 	l.addi r12,r12,0x1
 803beb0:	d8 06 a0 00 	l.sb 0x0(r6),r20
 803beb4:	9c a5 ff ff 	l.addi r5,r5,0xffffffff
 803beb8:	9c c5 00 01 	l.addi r6,r5,0x1
 803bebc:	bd 46 00 00 	l.sfgtsi r6,0x0
 803bec0:	13 ff ff fb 	l.bf 803beac <ftoaf+0x134>
 803bec4:	e0 c2 60 00 	l.add r6,r2,r12
 803bec8:	ae 94 00 20 	l.xori r20,r20,0x20
 803becc:	a6 94 00 ff 	l.andi r20,r20,0xff
 803bed0:	9e 94 ff ff 	l.addi r20,r20,0xffffffff
 803bed4:	bd 74 00 00 	l.sfgesi r20,0x0
 803bed8:	10 00 00 10 	l.bf 803bf18 <ftoaf+0x1a0>
 803bedc:	bd 44 00 00 	l.sfgtsi r4,0x0
 803bee0:	bc 16 00 00 	l.sfeqi r22,0x0
 803bee4:	10 00 00 0d 	l.bf 803bf18 <ftoaf+0x1a0>
 803bee8:	bd 44 00 00 	l.sfgtsi r4,0x0
 803beec:	e0 c2 60 00 	l.add r6,r2,r12
 803bef0:	9c e0 00 2d 	l.addi r7,r0,0x2d
 803bef4:	9d 8c 00 01 	l.addi r12,r12,0x1
 803bef8:	00 00 00 08 	l.j 803bf18 <ftoaf+0x1a0>
 803befc:	d8 06 38 00 	l.sb 0x0(r6),r7
 803bf00:	8c e3 00 00 	l.lbz r7,0x0(r3)
 803bf04:	9c 84 ff ff 	l.addi r4,r4,0xffffffff
 803bf08:	d8 06 38 00 	l.sb 0x0(r6),r7
 803bf0c:	9d 8c 00 01 	l.addi r12,r12,0x1
 803bf10:	9c 63 00 01 	l.addi r3,r3,0x1
 803bf14:	bd 44 00 00 	l.sfgtsi r4,0x0
 803bf18:	13 ff ff fa 	l.bf 803bf00 <ftoaf+0x188>
 803bf1c:	e0 c2 60 00 	l.add r6,r2,r12
 803bf20:	bd ae 00 00 	l.sflesi r14,0x0
 803bf24:	10 00 00 05 	l.bf 803bf38 <ftoaf+0x1c0>
 803bf28:	9c 80 00 2e 	l.addi r4,r0,0x2e
 803bf2c:	e0 62 60 00 	l.add r3,r2,r12
 803bf30:	9d 8c 00 01 	l.addi r12,r12,0x1
 803bf34:	d8 03 20 00 	l.sb 0x0(r3),r4
 803bf38:	a9 7a 00 00 	l.ori r11,r26,0x0
 803bf3c:	00 00 00 07 	l.j 803bf58 <ftoaf+0x1e0>
 803bf40:	a8 6e 00 00 	l.ori r3,r14,0x0
 803bf44:	8c cb 00 00 	l.lbz r6,0x0(r11)
 803bf48:	9c 63 ff ff 	l.addi r3,r3,0xffffffff
 803bf4c:	d8 04 30 00 	l.sb 0x0(r4),r6
 803bf50:	9d 8c 00 01 	l.addi r12,r12,0x1
 803bf54:	9d 6b 00 01 	l.addi r11,r11,0x1
 803bf58:	bd 43 00 00 	l.sfgtsi r3,0x0
 803bf5c:	13 ff ff fa 	l.bf 803bf44 <ftoaf+0x1cc>
 803bf60:	e0 82 60 00 	l.add r4,r2,r12
 803bf64:	ad 1e 00 01 	l.xori r8,r30,0x1
 803bf68:	a5 08 00 ff 	l.andi r8,r8,0xff
 803bf6c:	9d 08 ff ff 	l.addi r8,r8,0xffffffff
 803bf70:	bd 68 00 00 	l.sfgesi r8,0x0
 803bf74:	10 00 00 14 	l.bf 803bfc4 <ftoaf+0x24c>
 803bf78:	bc 18 00 00 	l.sfeqi r24,0x0
 803bf7c:	bd ae 00 00 	l.sflesi r14,0x0
 803bf80:	10 00 00 11 	l.bf 803bfc4 <ftoaf+0x24c>
 803bf84:	bc 18 00 00 	l.sfeqi r24,0x0
 803bf88:	9c 6c ff ff 	l.addi r3,r12,0xffffffff
 803bf8c:	00 00 00 0a 	l.j 803bfb4 <ftoaf+0x23c>
 803bf90:	e0 62 18 00 	l.add r3,r2,r3
 803bf94:	90 83 00 00 	l.lbs r4,0x0(r3)
 803bf98:	bd 44 00 30 	l.sfgtsi r4,0x30
 803bf9c:	10 00 00 09 	l.bf 803bfc0 <ftoaf+0x248>
 803bfa0:	9e 52 ff ff 	l.addi r18,r18,0xffffffff
 803bfa4:	9c e0 00 00 	l.addi r7,r0,0x0
 803bfa8:	9d 8c ff ff 	l.addi r12,r12,0xffffffff
 803bfac:	d8 03 38 00 	l.sb 0x0(r3),r7
 803bfb0:	9c 63 ff ff 	l.addi r3,r3,0xffffffff
 803bfb4:	bd 72 00 00 	l.sfgesi r18,0x0
 803bfb8:	13 ff ff f7 	l.bf 803bf94 <ftoaf+0x21c>
 803bfbc:	15 00 00 00 	l.nop 0x0
 803bfc0:	bc 18 00 00 	l.sfeqi r24,0x0
 803bfc4:	10 00 00 0b 	l.bf 803bff0 <ftoaf+0x278>
 803bfc8:	bd 45 00 00 	l.sfgtsi r5,0x0
 803bfcc:	00 00 00 07 	l.j 803bfe8 <ftoaf+0x270>
 803bfd0:	15 00 00 00 	l.nop 0x0
 803bfd4:	9c 80 00 20 	l.addi r4,r0,0x20
 803bfd8:	9d 8c 00 01 	l.addi r12,r12,0x1
 803bfdc:	d8 03 20 00 	l.sb 0x0(r3),r4
 803bfe0:	9c a5 ff ff 	l.addi r5,r5,0xffffffff
 803bfe4:	bd 45 00 00 	l.sfgtsi r5,0x0
 803bfe8:	13 ff ff fb 	l.bf 803bfd4 <ftoaf+0x25c>
 803bfec:	e0 62 60 00 	l.add r3,r2,r12
 803bff0:	e0 42 60 00 	l.add r2,r2,r12
 803bff4:	9c c0 00 00 	l.addi r6,r0,0x0
 803bff8:	d8 02 30 00 	l.sb 0x0(r2),r6
 803bffc:	9c 21 00 34 	l.addi r1,r1,0x34
 803c000:	a9 6c 00 00 	l.ori r11,r12,0x0
 803c004:	85 21 ff fc 	l.lwz r9,0xfffffffc(r1)
 803c008:	84 41 ff d4 	l.lwz r2,0xffffffd4(r1)
 803c00c:	85 c1 ff d8 	l.lwz r14,0xffffffd8(r1)
 803c010:	86 01 ff dc 	l.lwz r16,0xffffffdc(r1)
 803c014:	86 41 ff e0 	l.lwz r18,0xffffffe0(r1)
 803c018:	86 81 ff e4 	l.lwz r20,0xffffffe4(r1)
 803c01c:	86 c1 ff e8 	l.lwz r22,0xffffffe8(r1)
 803c020:	87 01 ff ec 	l.lwz r24,0xffffffec(r1)
 803c024:	87 41 ff f0 	l.lwz r26,0xfffffff0(r1)
 803c028:	87 81 ff f4 	l.lwz r28,0xfffffff4(r1)
 803c02c:	44 00 48 00 	l.jr r9
 803c030:	87 c1 ff f8 	l.lwz r30,0xfffffff8(r1)

0803c034 <ftoae>:
 803c034:	9c a5 00 01 	l.addi r5,r5,0x1
 803c038:	b9 08 00 18 	l.slli r8,r8,0x18
 803c03c:	d7 e1 17 d4 	l.sw 0xffffffd4(r1),r2
 803c040:	d7 e1 77 d8 	l.sw 0xffffffd8(r1),r14
 803c044:	d7 e1 97 e0 	l.sw 0xffffffe0(r1),r18
 803c048:	d7 e1 a7 e4 	l.sw 0xffffffe4(r1),r20
 803c04c:	d7 e1 c7 ec 	l.sw 0xffffffec(r1),r24
 803c050:	d7 e1 d7 f0 	l.sw 0xfffffff0(r1),r26
 803c054:	d7 e1 e7 f4 	l.sw 0xfffffff4(r1),r28
 803c058:	d7 e1 f7 f8 	l.sw 0xfffffff8(r1),r30
 803c05c:	e3 04 28 00 	l.add r24,r4,r5
 803c060:	d7 e1 4f fc 	l.sw 0xfffffffc(r1),r9
 803c064:	d7 e1 87 dc 	l.sw 0xffffffdc(r1),r16
 803c068:	d7 e1 b7 e8 	l.sw 0xffffffe8(r1),r22
 803c06c:	9f 86 00 02 	l.addi r28,r6,0x2
 803c070:	9c 21 ff c4 	l.addi r1,r1,0xffffffc4
 803c074:	b9 08 00 98 	l.srai r8,r8,0x18
 803c078:	a8 44 00 00 	l.ori r2,r4,0x0
 803c07c:	a9 c6 00 00 	l.ori r14,r6,0x0
 803c080:	ab c7 00 00 	l.ori r30,r7,0x0
 803c084:	a8 98 00 00 	l.ori r4,r24,0x0
 803c088:	a8 bc 00 00 	l.ori r5,r28,0x0
 803c08c:	9c c0 00 00 	l.addi r6,r0,0x0
 803c090:	9c e1 00 0c 	l.addi r7,r1,0xc
 803c094:	ab 43 00 00 	l.ori r26,r3,0x0
 803c098:	07 ff fe 8e 	l.jal 803bad0 <enx_fcvt>
 803c09c:	d4 01 40 04 	l.sw 0x4(r1),r8
 803c0a0:	84 61 00 0c 	l.lwz r3,0xc(r1)
 803c0a4:	aa 8b 00 00 	l.ori r20,r11,0x0
 803c0a8:	d4 01 18 00 	l.sw 0x0(r1),r3
 803c0ac:	bb 5a 00 5f 	l.srli r26,r26,0x1f
 803c0b0:	bd 8b 00 00 	l.sfltsi r11,0x0
 803c0b4:	0c 00 00 0e 	l.bnf 803c0ec <ftoae+0xb8>
 803c0b8:	aa 58 00 00 	l.ori r18,r24,0x0
 803c0bc:	bc 1a 00 00 	l.sfeqi r26,0x0
 803c0c0:	10 00 00 03 	l.bf 803c0cc <ftoae+0x98>
 803c0c4:	9c 60 00 2b 	l.addi r3,r0,0x2b
 803c0c8:	9c 60 00 2d 	l.addi r3,r0,0x2d
 803c0cc:	d8 02 18 00 	l.sb 0x0(r2),r3
 803c0d0:	a8 98 00 00 	l.ori r4,r24,0x0
 803c0d4:	9c 62 00 01 	l.addi r3,r2,0x1
 803c0d8:	04 01 23 3c 	l.jal 8084dc8 <strncpy>
 803c0dc:	a8 b4 00 00 	l.ori r5,r20,0x0
 803c0e0:	9d 60 00 01 	l.addi r11,r0,0x1
 803c0e4:	00 00 00 69 	l.j 803c288 <ftoae+0x254>
 803c0e8:	e1 6b a0 02 	l.sub r11,r11,r20
 803c0ec:	00 00 00 07 	l.j 803c108 <ftoae+0xd4>
 803c0f0:	9e 00 00 00 	l.addi r16,r0,0x0
 803c0f4:	90 63 00 00 	l.lbs r3,0x0(r3)
 803c0f8:	bd 43 00 30 	l.sfgtsi r3,0x30
 803c0fc:	10 00 00 07 	l.bf 803c118 <ftoae+0xe4>
 803c100:	e2 d2 80 00 	l.add r22,r18,r16
 803c104:	9e 10 00 01 	l.addi r16,r16,0x1
 803c108:	e5 90 a0 00 	l.sflts r16,r20
 803c10c:	13 ff ff fa 	l.bf 803c0f4 <ftoae+0xc0>
 803c110:	e0 72 80 00 	l.add r3,r18,r16
 803c114:	e2 d2 80 00 	l.add r22,r18,r16
 803c118:	9c 81 00 08 	l.addi r4,r1,0x8
 803c11c:	a8 76 00 00 	l.ori r3,r22,0x0
 803c120:	07 ff fe eb 	l.jal 803bccc <enx_frnd>
 803c124:	d4 01 e0 08 	l.sw 0x8(r1),r28
 803c128:	e4 0b b0 00 	l.sfeq r11,r22
 803c12c:	10 00 00 06 	l.bf 803c144 <ftoae+0x110>
 803c130:	e4 b2 58 00 	l.sfleu r18,r11
 803c134:	13 ff ff ee 	l.bf 803c0ec <ftoae+0xb8>
 803c138:	15 00 00 00 	l.nop 0x0
 803c13c:	03 ff ff ec 	l.j 803c0ec <ftoae+0xb8>
 803c140:	aa 4b 00 00 	l.ori r18,r11,0x0
 803c144:	84 81 00 00 	l.lwz r4,0x0(r1)
 803c148:	9c 60 ff fd 	l.addi r3,r0,0xfffffffd
 803c14c:	bc 1a 00 00 	l.sfeqi r26,0x0
 803c150:	e0 63 20 02 	l.sub r3,r3,r4
 803c154:	a8 9a 00 00 	l.ori r4,r26,0x0
 803c158:	e0 63 70 02 	l.sub r3,r3,r14
 803c15c:	e0 78 18 00 	l.add r3,r24,r3
 803c160:	e0 63 a0 00 	l.add r3,r3,r20
 803c164:	e0 63 80 02 	l.sub r3,r3,r16
 803c168:	10 00 00 05 	l.bf 803c17c <ftoae+0x148>
 803c16c:	e0 63 90 02 	l.sub r3,r3,r18
 803c170:	9c a0 00 2d 	l.addi r5,r0,0x2d
 803c174:	9c 80 00 01 	l.addi r4,r0,0x1
 803c178:	d8 02 28 00 	l.sb 0x0(r2),r5
 803c17c:	8c d6 00 00 	l.lbz r6,0x0(r22)
 803c180:	e0 a2 20 00 	l.add r5,r2,r4
 803c184:	9d 64 00 01 	l.addi r11,r4,0x1
 803c188:	bd ae 00 00 	l.sflesi r14,0x0
 803c18c:	10 00 00 06 	l.bf 803c1a4 <ftoae+0x170>
 803c190:	d8 05 30 00 	l.sb 0x0(r5),r6
 803c194:	e1 62 58 00 	l.add r11,r2,r11
 803c198:	9c e0 00 2e 	l.addi r7,r0,0x2e
 803c19c:	d8 0b 38 00 	l.sb 0x0(r11),r7
 803c1a0:	9d 64 00 02 	l.addi r11,r4,0x2
 803c1a4:	a8 ae 00 00 	l.ori r5,r14,0x0
 803c1a8:	00 00 00 07 	l.j 803c1c4 <ftoae+0x190>
 803c1ac:	a8 8e 00 00 	l.ori r4,r14,0x0
 803c1b0:	8c f6 00 00 	l.lbz r7,0x0(r22)
 803c1b4:	e0 c2 58 00 	l.add r6,r2,r11
 803c1b8:	9c 84 ff ff 	l.addi r4,r4,0xffffffff
 803c1bc:	d8 06 38 00 	l.sb 0x0(r6),r7
 803c1c0:	9d 6b 00 01 	l.addi r11,r11,0x1
 803c1c4:	bd 44 00 00 	l.sfgtsi r4,0x0
 803c1c8:	13 ff ff fa 	l.bf 803c1b0 <ftoae+0x17c>
 803c1cc:	9e d6 00 01 	l.addi r22,r22,0x1
 803c1d0:	84 81 00 04 	l.lwz r4,0x4(r1)
 803c1d4:	ad 04 00 01 	l.xori r8,r4,0x1
 803c1d8:	a5 08 00 ff 	l.andi r8,r8,0xff
 803c1dc:	9d 08 ff ff 	l.addi r8,r8,0xffffffff
 803c1e0:	bd 68 00 00 	l.sfgesi r8,0x0
 803c1e4:	10 00 00 11 	l.bf 803c228 <ftoae+0x1f4>
 803c1e8:	bd ae 00 00 	l.sflesi r14,0x0
 803c1ec:	10 00 00 0f 	l.bf 803c228 <ftoae+0x1f4>
 803c1f0:	9c 8b ff ff 	l.addi r4,r11,0xffffffff
 803c1f4:	00 00 00 0a 	l.j 803c21c <ftoae+0x1e8>
 803c1f8:	e0 82 20 00 	l.add r4,r2,r4
 803c1fc:	90 c4 00 00 	l.lbs r6,0x0(r4)
 803c200:	bd 46 00 30 	l.sfgtsi r6,0x30
 803c204:	10 00 00 09 	l.bf 803c228 <ftoae+0x1f4>
 803c208:	9c a5 ff ff 	l.addi r5,r5,0xffffffff
 803c20c:	9c c0 00 00 	l.addi r6,r0,0x0
 803c210:	9d 6b ff ff 	l.addi r11,r11,0xffffffff
 803c214:	d8 04 30 00 	l.sb 0x0(r4),r6
 803c218:	9c 84 ff ff 	l.addi r4,r4,0xffffffff
 803c21c:	bd 65 00 00 	l.sfgesi r5,0x0
 803c220:	13 ff ff f7 	l.bf 803c1fc <ftoae+0x1c8>
 803c224:	15 00 00 00 	l.nop 0x0
 803c228:	e0 82 58 00 	l.add r4,r2,r11
 803c22c:	9c e0 00 65 	l.addi r7,r0,0x65
 803c230:	d4 1e 18 00 	l.sw 0x0(r30),r3
 803c234:	d8 04 38 00 	l.sb 0x0(r4),r7
 803c238:	9c 8b 00 01 	l.addi r4,r11,0x1
 803c23c:	bd 63 00 00 	l.sfgesi r3,0x0
 803c240:	e0 82 20 00 	l.add r4,r2,r4
 803c244:	10 00 00 06 	l.bf 803c25c <ftoae+0x228>
 803c248:	9d cb 00 02 	l.addi r14,r11,0x2
 803c24c:	9c a0 00 2d 	l.addi r5,r0,0x2d
 803c250:	e0 60 18 02 	l.sub r3,r0,r3
 803c254:	00 00 00 04 	l.j 803c264 <ftoae+0x230>
 803c258:	d8 04 28 00 	l.sb 0x0(r4),r5
 803c25c:	9c c0 00 2b 	l.addi r6,r0,0x2b
 803c260:	d8 04 30 00 	l.sb 0x0(r4),r6
 803c264:	e0 82 70 00 	l.add r4,r2,r14
 803c268:	9c e0 00 30 	l.addi r7,r0,0x30
 803c26c:	9c a0 00 0a 	l.addi r5,r0,0xa
 803c270:	07 ff f8 56 	l.jal 803a3c8 <uitoan>
 803c274:	9c c0 00 03 	l.addi r6,r0,0x3
 803c278:	9d 6e 00 03 	l.addi r11,r14,0x3
 803c27c:	9c e0 00 00 	l.addi r7,r0,0x0
 803c280:	e0 42 58 00 	l.add r2,r2,r11
 803c284:	d8 02 38 00 	l.sb 0x0(r2),r7
 803c288:	9c 21 00 3c 	l.addi r1,r1,0x3c
 803c28c:	85 21 ff fc 	l.lwz r9,0xfffffffc(r1)
 803c290:	84 41 ff d4 	l.lwz r2,0xffffffd4(r1)
 803c294:	85 c1 ff d8 	l.lwz r14,0xffffffd8(r1)
 803c298:	86 01 ff dc 	l.lwz r16,0xffffffdc(r1)
 803c29c:	86 41 ff e0 	l.lwz r18,0xffffffe0(r1)
 803c2a0:	86 81 ff e4 	l.lwz r20,0xffffffe4(r1)
 803c2a4:	86 c1 ff e8 	l.lwz r22,0xffffffe8(r1)
 803c2a8:	87 01 ff ec 	l.lwz r24,0xffffffec(r1)
 803c2ac:	87 41 ff f0 	l.lwz r26,0xfffffff0(r1)
 803c2b0:	87 81 ff f4 	l.lwz r28,0xfffffff4(r1)
 803c2b4:	44 00 48 00 	l.jr r9
 803c2b8:	87 c1 ff f8 	l.lwz r30,0xfffffff8(r1)

0803c2bc <ftoag>:
 803c2bc:	d7 e1 17 e0 	l.sw 0xffffffe0(r1),r2
 803c2c0:	9c 45 ff ff 	l.addi r2,r5,0xffffffff
 803c2c4:	d7 e1 a7 f0 	l.sw 0xfffffff0(r1),r20
 803c2c8:	ba 82 00 9f 	l.srai r20,r2,0x1f
 803c2cc:	d7 e1 b7 f4 	l.sw 0xfffffff4(r1),r22
 803c2d0:	ba c3 00 5f 	l.srli r22,r3,0x1f
 803c2d4:	e2 94 10 02 	l.sub r20,r20,r2
 803c2d8:	d7 e1 97 ec 	l.sw 0xffffffec(r1),r18
 803c2dc:	aa 45 00 00 	l.ori r18,r5,0x0
 803c2e0:	9c b6 00 06 	l.addi r5,r22,0x6
 803c2e4:	ba 94 00 5f 	l.srli r20,r20,0x1f
 803c2e8:	d7 e1 77 e4 	l.sw 0xffffffe4(r1),r14
 803c2ec:	d7 e1 87 e8 	l.sw 0xffffffe8(r1),r16
 803c2f0:	d7 e1 c7 f8 	l.sw 0xfffffff8(r1),r24
 803c2f4:	d7 e1 4f fc 	l.sw 0xfffffffc(r1),r9
 803c2f8:	e0 a5 10 00 	l.add r5,r5,r2
 803c2fc:	9c 21 ff d8 	l.addi r1,r1,0xffffffd8
 803c300:	e2 85 a0 00 	l.add r20,r5,r20
 803c304:	a8 c2 00 00 	l.ori r6,r2,0x0
 803c308:	9c b2 00 01 	l.addi r5,r18,0x1
 803c30c:	9c e1 00 04 	l.addi r7,r1,0x4
 803c310:	9d 00 00 01 	l.addi r8,r0,0x1
 803c314:	ab 03 00 00 	l.ori r24,r3,0x0
 803c318:	07 ff ff 47 	l.jal 803c034 <ftoae>
 803c31c:	aa 04 00 00 	l.ori r16,r4,0x0
 803c320:	e5 6b a0 00 	l.sfges r11,r20
 803c324:	10 00 00 0f 	l.bf 803c360 <ftoag+0xa4>
 803c328:	a9 cb 00 00 	l.ori r14,r11,0x0
 803c32c:	bc 16 00 00 	l.sfeqi r22,0x0
 803c330:	10 00 00 04 	l.bf 803c340 <ftoag+0x84>
 803c334:	15 00 00 00 	l.nop 0x0
 803c338:	00 00 00 03 	l.j 803c344 <ftoag+0x88>
 803c33c:	90 70 00 02 	l.lbs r3,0x2(r16)
 803c340:	90 70 00 01 	l.lbs r3,0x1(r16)
 803c344:	ac 63 00 2e 	l.xori r3,r3,0x2e
 803c348:	e2 94 70 02 	l.sub r20,r20,r14
 803c34c:	a4 63 00 ff 	l.andi r3,r3,0xff
 803c350:	e0 60 18 02 	l.sub r3,r0,r3
 803c354:	b8 63 00 5f 	l.srli r3,r3,0x1f
 803c358:	e2 94 18 02 	l.sub r20,r20,r3
 803c35c:	e0 42 a0 02 	l.sub r2,r2,r20
 803c360:	84 81 00 04 	l.lwz r4,0x4(r1)
 803c364:	bd a4 00 00 	l.sflesi r4,0x0
 803c368:	10 00 00 03 	l.bf 803c374 <ftoag+0xb8>
 803c36c:	9e 80 00 01 	l.addi r20,r0,0x1
 803c370:	e2 84 a0 00 	l.add r20,r4,r20
 803c374:	e5 82 20 00 	l.sflts r2,r4
 803c378:	10 00 00 03 	l.bf 803c384 <ftoag+0xc8>
 803c37c:	a8 e2 00 00 	l.ori r7,r2,0x0
 803c380:	e0 e2 20 02 	l.sub r7,r2,r4
 803c384:	9e ce 00 01 	l.addi r22,r14,0x1
 803c388:	9c 40 00 00 	l.addi r2,r0,0x0
 803c38c:	e2 d0 b0 00 	l.add r22,r16,r22
 803c390:	a8 78 00 00 	l.ori r3,r24,0x0
 803c394:	a8 96 00 00 	l.ori r4,r22,0x0
 803c398:	e0 a7 a0 00 	l.add r5,r7,r20
 803c39c:	9c c0 00 20 	l.addi r6,r0,0x20
 803c3a0:	9d 00 00 01 	l.addi r8,r0,0x1
 803c3a4:	07 ff fe 75 	l.jal 803bd78 <ftoaf>
 803c3a8:	d4 01 10 00 	l.sw 0x0(r1),r2
 803c3ac:	9c 60 00 01 	l.addi r3,r0,0x1
 803c3b0:	e5 8b 70 00 	l.sflts r11,r14
 803c3b4:	10 00 00 03 	l.bf 803c3c0 <ftoag+0x104>
 803c3b8:	a8 4b 00 00 	l.ori r2,r11,0x0
 803c3bc:	9c 60 00 00 	l.addi r3,r0,0x0
 803c3c0:	a4 63 00 ff 	l.andi r3,r3,0xff
 803c3c4:	bc 03 00 00 	l.sfeqi r3,0x0
 803c3c8:	10 00 00 0e 	l.bf 803c400 <ftoag+0x144>
 803c3cc:	e5 b4 90 00 	l.sfles r20,r18
 803c3d0:	10 00 00 03 	l.bf 803c3dc <ftoag+0x120>
 803c3d4:	9c 60 00 01 	l.addi r3,r0,0x1
 803c3d8:	9c 60 00 00 	l.addi r3,r0,0x0
 803c3dc:	a4 63 00 ff 	l.andi r3,r3,0xff
 803c3e0:	bc 03 00 00 	l.sfeqi r3,0x0
 803c3e4:	10 00 00 07 	l.bf 803c400 <ftoag+0x144>
 803c3e8:	a8 70 00 00 	l.ori r3,r16,0x0
 803c3ec:	a8 96 00 00 	l.ori r4,r22,0x0
 803c3f0:	04 01 22 76 	l.jal 8084dc8 <strncpy>
 803c3f4:	9c a2 00 01 	l.addi r5,r2,0x1
 803c3f8:	00 00 00 04 	l.j 803c408 <ftoag+0x14c>
 803c3fc:	9c 21 00 28 	l.addi r1,r1,0x28
 803c400:	a8 4e 00 00 	l.ori r2,r14,0x0
 803c404:	9c 21 00 28 	l.addi r1,r1,0x28
 803c408:	a9 62 00 00 	l.ori r11,r2,0x0
 803c40c:	85 21 ff fc 	l.lwz r9,0xfffffffc(r1)
 803c410:	84 41 ff e0 	l.lwz r2,0xffffffe0(r1)
 803c414:	85 c1 ff e4 	l.lwz r14,0xffffffe4(r1)
 803c418:	86 01 ff e8 	l.lwz r16,0xffffffe8(r1)
 803c41c:	86 41 ff ec 	l.lwz r18,0xffffffec(r1)
 803c420:	86 81 ff f0 	l.lwz r20,0xfffffff0(r1)
 803c424:	86 c1 ff f4 	l.lwz r22,0xfffffff4(r1)
 803c428:	44 00 48 00 	l.jr r9
 803c42c:	87 01 ff f8 	l.lwz r24,0xfffffff8(r1)

0803c430 <ftox>:
 803c430:	a8 a3 00 00 	l.ori r5,r3,0x0
 803c434:	d7 e1 87 f4 	l.sw 0xfffffff4(r1),r16
 803c438:	ba 03 00 57 	l.srli r16,r3,0x17
 803c43c:	18 60 00 7f 	l.movhi r3,0x7f
 803c440:	d7 e1 17 ec 	l.sw 0xffffffec(r1),r2
 803c444:	d7 e1 77 f0 	l.sw 0xfffffff0(r1),r14
 803c448:	a8 63 ff ff 	l.ori r3,r3,0xffff
 803c44c:	d7 e1 4f fc 	l.sw 0xfffffffc(r1),r9
 803c450:	d7 e1 97 f8 	l.sw 0xfffffff8(r1),r18
 803c454:	e1 c5 18 03 	l.and r14,r5,r3
 803c458:	9c 21 ff ec 	l.addi r1,r1,0xffffffec
 803c45c:	a8 44 00 00 	l.ori r2,r4,0x0
 803c460:	a6 10 00 ff 	l.andi r16,r16,0xff
 803c464:	bd 65 00 00 	l.sfgesi r5,0x0
 803c468:	10 00 00 03 	l.bf 803c474 <ftox+0x44>
 803c46c:	9c 60 00 2b 	l.addi r3,r0,0x2b
 803c470:	9c 60 00 2d 	l.addi r3,r0,0x2d
 803c474:	9e 42 00 01 	l.addi r18,r2,0x1
 803c478:	d8 02 18 00 	l.sb 0x0(r2),r3
 803c47c:	a8 92 00 00 	l.ori r4,r18,0x0
 803c480:	a8 70 00 00 	l.ori r3,r16,0x0
 803c484:	9c a0 00 10 	l.addi r5,r0,0x10
 803c488:	9c c0 00 02 	l.addi r6,r0,0x2
 803c48c:	07 ff f7 cf 	l.jal 803a3c8 <uitoan>
 803c490:	9c e0 00 30 	l.addi r7,r0,0x30
 803c494:	e1 72 58 00 	l.add r11,r18,r11
 803c498:	9c 80 00 2e 	l.addi r4,r0,0x2e
 803c49c:	9e 4b 00 01 	l.addi r18,r11,0x1
 803c4a0:	d8 0b 20 00 	l.sb 0x0(r11),r4
 803c4a4:	9c a0 00 10 	l.addi r5,r0,0x10
 803c4a8:	a8 6e 00 00 	l.ori r3,r14,0x0
 803c4ac:	a8 92 00 00 	l.ori r4,r18,0x0
 803c4b0:	9c c0 00 06 	l.addi r6,r0,0x6
 803c4b4:	07 ff f7 c5 	l.jal 803a3c8 <uitoan>
 803c4b8:	9c e0 00 30 	l.addi r7,r0,0x30
 803c4bc:	9c a0 00 00 	l.addi r5,r0,0x0
 803c4c0:	e1 72 58 00 	l.add r11,r18,r11
 803c4c4:	bc 30 00 00 	l.sfnei r16,0x0
 803c4c8:	10 00 00 0f 	l.bf 803c504 <ftox+0xd4>
 803c4cc:	d8 0b 28 00 	l.sb 0x0(r11),r5
 803c4d0:	bc 0e 00 00 	l.sfeqi r14,0x0
 803c4d4:	10 00 00 0d 	l.bf 803c508 <ftox+0xd8>
 803c4d8:	bc 30 00 ff 	l.sfnei r16,0xff
 803c4dc:	9c c0 00 28 	l.addi r6,r0,0x28
 803c4e0:	9c e0 00 44 	l.addi r7,r0,0x44
 803c4e4:	9d 00 00 4e 	l.addi r8,r0,0x4e
 803c4e8:	9c 60 00 29 	l.addi r3,r0,0x29
 803c4ec:	d8 0b 30 00 	l.sb 0x0(r11),r6
 803c4f0:	d8 0b 38 01 	l.sb 0x1(r11),r7
 803c4f4:	d8 0b 40 02 	l.sb 0x2(r11),r8
 803c4f8:	d8 0b 18 03 	l.sb 0x3(r11),r3
 803c4fc:	00 00 00 23 	l.j 803c588 <ftox+0x158>
 803c500:	9d 6b 00 04 	l.addi r11,r11,0x4
 803c504:	bc 30 00 ff 	l.sfnei r16,0xff
 803c508:	10 00 00 20 	l.bf 803c588 <ftox+0x158>
 803c50c:	bc 2e 00 00 	l.sfnei r14,0x0
 803c510:	9c eb 00 01 	l.addi r7,r11,0x1
 803c514:	9c cb 00 02 	l.addi r6,r11,0x2
 803c518:	9c ab 00 03 	l.addi r5,r11,0x3
 803c51c:	9c 8b 00 04 	l.addi r4,r11,0x4
 803c520:	10 00 00 0e 	l.bf 803c558 <ftox+0x128>
 803c524:	9c 6b 00 05 	l.addi r3,r11,0x5
 803c528:	9d 00 00 28 	l.addi r8,r0,0x28
 803c52c:	d8 0b 40 00 	l.sb 0x0(r11),r8
 803c530:	9d 00 00 49 	l.addi r8,r0,0x49
 803c534:	a9 63 00 00 	l.ori r11,r3,0x0
 803c538:	d8 07 40 00 	l.sb 0x0(r7),r8
 803c53c:	9c e0 00 4e 	l.addi r7,r0,0x4e
 803c540:	9d 00 00 46 	l.addi r8,r0,0x46
 803c544:	d8 06 38 00 	l.sb 0x0(r6),r7
 803c548:	d8 05 40 00 	l.sb 0x0(r5),r8
 803c54c:	9c a0 00 29 	l.addi r5,r0,0x29
 803c550:	00 00 00 0e 	l.j 803c588 <ftox+0x158>
 803c554:	d8 04 28 00 	l.sb 0x0(r4),r5
 803c558:	9d 00 00 28 	l.addi r8,r0,0x28
 803c55c:	d8 0b 40 00 	l.sb 0x0(r11),r8
 803c560:	9d 00 00 73 	l.addi r8,r0,0x73
 803c564:	9d 6b 00 06 	l.addi r11,r11,0x6
 803c568:	d8 07 40 00 	l.sb 0x0(r7),r8
 803c56c:	9c e0 00 4e 	l.addi r7,r0,0x4e
 803c570:	9d 00 00 61 	l.addi r8,r0,0x61
 803c574:	d8 06 38 00 	l.sb 0x0(r6),r7
 803c578:	d8 05 40 00 	l.sb 0x0(r5),r8
 803c57c:	d8 04 38 00 	l.sb 0x0(r4),r7
 803c580:	9c 80 00 29 	l.addi r4,r0,0x29
 803c584:	d8 03 20 00 	l.sb 0x0(r3),r4
 803c588:	9c 21 00 14 	l.addi r1,r1,0x14
 803c58c:	e1 6b 10 02 	l.sub r11,r11,r2
 803c590:	85 21 ff fc 	l.lwz r9,0xfffffffc(r1)
 803c594:	84 41 ff ec 	l.lwz r2,0xffffffec(r1)
 803c598:	85 c1 ff f0 	l.lwz r14,0xfffffff0(r1)
 803c59c:	86 01 ff f4 	l.lwz r16,0xfffffff4(r1)
 803c5a0:	44 00 48 00 	l.jr r9
 803c5a4:	86 41 ff f8 	l.lwz r18,0xfffffff8(r1)

0803c5a8 <number>:
 803c5a8:	d7 e1 17 fc 	l.sw 0xfffffffc(r1),r2
 803c5ac:	a5 68 00 40 	l.andi r11,r8,0x40
 803c5b0:	1a 20 08 03 	l.movhi r17,0x803
 803c5b4:	9c 21 ff b8 	l.addi r1,r1,0xffffffb8
 803c5b8:	bc 0b 00 00 	l.sfeqi r11,0x0
 803c5bc:	10 00 00 04 	l.bf 803c5cc <number+0x24>
 803c5c0:	aa 31 49 f7 	l.ori r17,r17,0x49f7
 803c5c4:	1a 20 08 03 	l.movhi r17,0x803
 803c5c8:	aa 31 4a 1c 	l.ori r17,r17,0x4a1c
 803c5cc:	a5 68 00 10 	l.andi r11,r8,0x10
 803c5d0:	bc 0b 00 00 	l.sfeqi r11,0x0
 803c5d4:	10 00 00 04 	l.bf 803c5e4 <number+0x3c>
 803c5d8:	9d 65 ff fe 	l.addi r11,r5,0xfffffffe
 803c5dc:	9c 40 ff fe 	l.addi r2,r0,0xfffffffe
 803c5e0:	e1 08 10 03 	l.and r8,r8,r2
 803c5e4:	bc 4b 00 22 	l.sfgtui r11,0x22
 803c5e8:	10 00 00 86 	l.bf 803c800 <number+0x258>
 803c5ec:	a5 68 00 01 	l.andi r11,r8,0x1
 803c5f0:	bc 0b 00 00 	l.sfeqi r11,0x0
 803c5f4:	10 00 00 03 	l.bf 803c600 <number+0x58>
 803c5f8:	9d a0 00 20 	l.addi r13,r0,0x20
 803c5fc:	9d a0 00 30 	l.addi r13,r0,0x30
 803c600:	a5 88 00 02 	l.andi r12,r8,0x2
 803c604:	bc 0c 00 00 	l.sfeqi r12,0x0
 803c608:	10 00 00 15 	l.bf 803c65c <number+0xb4>
 803c60c:	a5 e8 00 20 	l.andi r15,r8,0x20
 803c610:	bd 64 00 00 	l.sfgesi r4,0x0
 803c614:	10 00 00 06 	l.bf 803c62c <number+0x84>
 803c618:	a5 68 00 04 	l.andi r11,r8,0x4
 803c61c:	e0 80 20 02 	l.sub r4,r0,r4
 803c620:	9c c6 ff ff 	l.addi r6,r6,0xffffffff
 803c624:	00 00 00 0e 	l.j 803c65c <number+0xb4>
 803c628:	9d 80 00 2d 	l.addi r12,r0,0x2d
 803c62c:	bc 0b 00 00 	l.sfeqi r11,0x0
 803c630:	10 00 00 04 	l.bf 803c640 <number+0x98>
 803c634:	9d 80 00 2b 	l.addi r12,r0,0x2b
 803c638:	00 00 00 08 	l.j 803c658 <number+0xb0>
 803c63c:	9c c6 ff ff 	l.addi r6,r6,0xffffffff
 803c640:	a5 88 00 08 	l.andi r12,r8,0x8
 803c644:	bc 0c 00 00 	l.sfeqi r12,0x0
 803c648:	10 00 00 05 	l.bf 803c65c <number+0xb4>
 803c64c:	a5 e8 00 20 	l.andi r15,r8,0x20
 803c650:	9c c6 ff ff 	l.addi r6,r6,0xffffffff
 803c654:	9d 80 00 20 	l.addi r12,r0,0x20
 803c658:	a5 e8 00 20 	l.andi r15,r8,0x20
 803c65c:	bc 0f 00 00 	l.sfeqi r15,0x0
 803c660:	10 00 00 0a 	l.bf 803c688 <number+0xe0>
 803c664:	9d 60 00 00 	l.addi r11,r0,0x0
 803c668:	bc 25 00 10 	l.sfnei r5,0x10
 803c66c:	10 00 00 04 	l.bf 803c67c <number+0xd4>
 803c670:	bc 25 00 08 	l.sfnei r5,0x8
 803c674:	00 00 00 05 	l.j 803c688 <number+0xe0>
 803c678:	9c c6 ff fe 	l.addi r6,r6,0xfffffffe
 803c67c:	10 00 00 03 	l.bf 803c688 <number+0xe0>
 803c680:	9d 60 00 00 	l.addi r11,r0,0x0
 803c684:	9c c6 ff ff 	l.addi r6,r6,0xffffffff
 803c688:	e4 24 58 00 	l.sfne r4,r11
 803c68c:	10 00 00 06 	l.bf 803c6a4 <number+0xfc>
 803c690:	aa a1 00 00 	l.ori r21,r1,0x0
 803c694:	9c 40 00 30 	l.addi r2,r0,0x30
 803c698:	9d 60 00 01 	l.addi r11,r0,0x1
 803c69c:	00 00 00 0d 	l.j 803c6d0 <number+0x128>
 803c6a0:	d8 01 10 00 	l.sb 0x0(r1),r2
 803c6a4:	e2 64 2b 0a 	l.divu r19,r4,r5
 803c6a8:	e3 33 2b 06 	l.mul r25,r19,r5
 803c6ac:	e0 84 c8 02 	l.sub r4,r4,r25
 803c6b0:	e2 f5 58 00 	l.add r23,r21,r11
 803c6b4:	e0 91 20 00 	l.add r4,r17,r4
 803c6b8:	9d 6b 00 01 	l.addi r11,r11,0x1
 803c6bc:	8c 84 00 00 	l.lbz r4,0x0(r4)
 803c6c0:	d8 17 20 00 	l.sb 0x0(r23),r4
 803c6c4:	bc 33 00 00 	l.sfnei r19,0x0
 803c6c8:	13 ff ff f7 	l.bf 803c6a4 <number+0xfc>
 803c6cc:	a8 93 00 00 	l.ori r4,r19,0x0
 803c6d0:	e5 6b 38 00 	l.sfges r11,r7
 803c6d4:	10 00 00 03 	l.bf 803c6e0 <number+0x138>
 803c6d8:	a8 8b 00 00 	l.ori r4,r11,0x0
 803c6dc:	a8 87 00 00 	l.ori r4,r7,0x0
 803c6e0:	a4 e8 00 11 	l.andi r7,r8,0x11
 803c6e4:	bc 27 00 00 	l.sfnei r7,0x0
 803c6e8:	10 00 00 0b 	l.bf 803c714 <number+0x16c>
 803c6ec:	e0 c6 20 02 	l.sub r6,r6,r4
 803c6f0:	00 00 00 05 	l.j 803c704 <number+0x15c>
 803c6f4:	9c c6 ff ff 	l.addi r6,r6,0xffffffff
 803c6f8:	d8 03 10 00 	l.sb 0x0(r3),r2
 803c6fc:	9c 63 00 01 	l.addi r3,r3,0x1
 803c700:	9c c6 ff ff 	l.addi r6,r6,0xffffffff
 803c704:	9c e6 00 01 	l.addi r7,r6,0x1
 803c708:	bd 47 00 00 	l.sfgtsi r7,0x0
 803c70c:	13 ff ff fb 	l.bf 803c6f8 <number+0x150>
 803c710:	9c 40 00 20 	l.addi r2,r0,0x20
 803c714:	bc 0c 00 00 	l.sfeqi r12,0x0
 803c718:	10 00 00 04 	l.bf 803c728 <number+0x180>
 803c71c:	bc 0f 00 00 	l.sfeqi r15,0x0
 803c720:	d8 03 60 00 	l.sb 0x0(r3),r12
 803c724:	9c 63 00 01 	l.addi r3,r3,0x1
 803c728:	10 00 00 0e 	l.bf 803c760 <number+0x1b8>
 803c72c:	bc 25 00 08 	l.sfnei r5,0x8
 803c730:	10 00 00 06 	l.bf 803c748 <number+0x1a0>
 803c734:	bc 25 00 10 	l.sfnei r5,0x10
 803c738:	9c 40 00 30 	l.addi r2,r0,0x30
 803c73c:	d8 03 10 00 	l.sb 0x0(r3),r2
 803c740:	00 00 00 08 	l.j 803c760 <number+0x1b8>
 803c744:	9c 63 00 01 	l.addi r3,r3,0x1
 803c748:	10 00 00 06 	l.bf 803c760 <number+0x1b8>
 803c74c:	9c 40 00 30 	l.addi r2,r0,0x30
 803c750:	d8 03 10 00 	l.sb 0x0(r3),r2
 803c754:	9c 40 00 78 	l.addi r2,r0,0x78
 803c758:	d8 03 10 01 	l.sb 0x1(r3),r2
 803c75c:	9c 63 00 02 	l.addi r3,r3,0x2
 803c760:	a5 08 00 10 	l.andi r8,r8,0x10
 803c764:	bc 28 00 00 	l.sfnei r8,0x0
 803c768:	10 00 00 11 	l.bf 803c7ac <number+0x204>
 803c76c:	e5 8b 20 00 	l.sflts r11,r4
 803c770:	00 00 00 05 	l.j 803c784 <number+0x1dc>
 803c774:	9c c6 ff ff 	l.addi r6,r6,0xffffffff
 803c778:	d8 03 68 00 	l.sb 0x0(r3),r13
 803c77c:	9c 63 00 01 	l.addi r3,r3,0x1
 803c780:	9c c6 ff ff 	l.addi r6,r6,0xffffffff
 803c784:	9c a6 00 01 	l.addi r5,r6,0x1
 803c788:	bd 45 00 00 	l.sfgtsi r5,0x0
 803c78c:	13 ff ff fb 	l.bf 803c778 <number+0x1d0>
 803c790:	e5 8b 20 00 	l.sflts r11,r4
 803c794:	00 00 00 06 	l.j 803c7ac <number+0x204>
 803c798:	15 00 00 00 	l.nop 0x0
 803c79c:	9c 84 ff ff 	l.addi r4,r4,0xffffffff
 803c7a0:	d8 03 10 00 	l.sb 0x0(r3),r2
 803c7a4:	9c 63 00 01 	l.addi r3,r3,0x1
 803c7a8:	e5 8b 20 00 	l.sflts r11,r4
 803c7ac:	13 ff ff fc 	l.bf 803c79c <number+0x1f4>
 803c7b0:	9c 40 00 30 	l.addi r2,r0,0x30
 803c7b4:	a8 81 00 00 	l.ori r4,r1,0x0
 803c7b8:	9d 6b ff ff 	l.addi r11,r11,0xffffffff
 803c7bc:	e0 a4 58 00 	l.add r5,r4,r11
 803c7c0:	bd 4b 00 00 	l.sfgtsi r11,0x0
 803c7c4:	8c a5 00 00 	l.lbz r5,0x0(r5)
 803c7c8:	d8 03 28 00 	l.sb 0x0(r3),r5
 803c7cc:	13 ff ff fb 	l.bf 803c7b8 <number+0x210>
 803c7d0:	9c 63 00 01 	l.addi r3,r3,0x1
 803c7d4:	00 00 00 07 	l.j 803c7f0 <number+0x248>
 803c7d8:	bd 46 00 00 	l.sfgtsi r6,0x0
 803c7dc:	9c 40 00 20 	l.addi r2,r0,0x20
 803c7e0:	9c c6 ff ff 	l.addi r6,r6,0xffffffff
 803c7e4:	d8 03 10 00 	l.sb 0x0(r3),r2
 803c7e8:	9c 63 00 01 	l.addi r3,r3,0x1
 803c7ec:	bd 46 00 00 	l.sfgtsi r6,0x0
 803c7f0:	13 ff ff fb 	l.bf 803c7dc <number+0x234>
 803c7f4:	15 00 00 00 	l.nop 0x0
 803c7f8:	00 00 00 04 	l.j 803c808 <number+0x260>
 803c7fc:	9c 21 00 48 	l.addi r1,r1,0x48
 803c800:	9c 60 00 00 	l.addi r3,r0,0x0
 803c804:	9c 21 00 48 	l.addi r1,r1,0x48
 803c808:	a9 63 00 00 	l.ori r11,r3,0x0
 803c80c:	44 00 48 00 	l.jr r9
 803c810:	84 41 ff fc 	l.lwz r2,0xfffffffc(r1)

0803c814 <vsnprintf>:
 803c814:	d7 e1 17 d4 	l.sw 0xffffffd4(r1),r2
 803c818:	d7 e1 77 d8 	l.sw 0xffffffd8(r1),r14
 803c81c:	d7 e1 87 dc 	l.sw 0xffffffdc(r1),r16
 803c820:	d7 e1 b7 e8 	l.sw 0xffffffe8(r1),r22
 803c824:	d7 e1 e7 f4 	l.sw 0xfffffff4(r1),r28
 803c828:	d7 e1 4f fc 	l.sw 0xfffffffc(r1),r9
 803c82c:	d7 e1 97 e0 	l.sw 0xffffffe0(r1),r18
 803c830:	d7 e1 a7 e4 	l.sw 0xffffffe4(r1),r20
 803c834:	d7 e1 c7 ec 	l.sw 0xffffffec(r1),r24
 803c838:	d7 e1 d7 f0 	l.sw 0xfffffff0(r1),r26
 803c83c:	d7 e1 f7 f8 	l.sw 0xfffffff8(r1),r30
 803c840:	9c 21 fe 58 	l.addi r1,r1,0xfffffe58
 803c844:	a9 c4 00 00 	l.ori r14,r4,0x0
 803c848:	9f 81 00 24 	l.addi r28,r1,0x24
 803c84c:	d4 01 18 10 	l.sw 0x10(r1),r3
 803c850:	aa c5 00 00 	l.ori r22,r5,0x0
 803c854:	a8 7c 00 00 	l.ori r3,r28,0x0
 803c858:	9c 80 00 00 	l.addi r4,r0,0x0
 803c85c:	9c a0 01 0f 	l.addi r5,r0,0x10f
 803c860:	aa 06 00 00 	l.ori r16,r6,0x0
 803c864:	04 01 1c bc 	l.jal 8083b54 <memset>
 803c868:	9d ce ff ff 	l.addi r14,r14,0xffffffff
 803c86c:	00 00 03 35 	l.j 803d540 <vsnprintf+0xd2c>
 803c870:	84 41 00 10 	l.lwz r2,0x10(r1)
 803c874:	10 00 03 06 	l.bf 803d48c <vsnprintf+0xc78>
 803c878:	9e 40 00 00 	l.addi r18,r0,0x0
 803c87c:	9e d6 00 01 	l.addi r22,r22,0x1
 803c880:	90 96 00 00 	l.lbs r4,0x0(r22)
 803c884:	bc 04 00 2b 	l.sfeqi r4,0x2b
 803c888:	10 00 00 13 	l.bf 803c8d4 <vsnprintf+0xc0>
 803c88c:	bd 44 00 2b 	l.sfgtsi r4,0x2b
 803c890:	10 00 00 09 	l.bf 803c8b4 <vsnprintf+0xa0>
 803c894:	bc 04 00 2d 	l.sfeqi r4,0x2d
 803c898:	bc 04 00 20 	l.sfeqi r4,0x20
 803c89c:	10 00 00 10 	l.bf 803c8dc <vsnprintf+0xc8>
 803c8a0:	bc 04 00 23 	l.sfeqi r4,0x23
 803c8a4:	0c 00 00 14 	l.bnf 803c8f4 <vsnprintf+0xe0>
 803c8a8:	15 00 00 00 	l.nop 0x0
 803c8ac:	00 00 00 0e 	l.j 803c8e4 <vsnprintf+0xd0>
 803c8b0:	aa 52 00 20 	l.ori r18,r18,0x20
 803c8b4:	10 00 00 06 	l.bf 803c8cc <vsnprintf+0xb8>
 803c8b8:	bc 04 00 30 	l.sfeqi r4,0x30
 803c8bc:	0c 00 00 0e 	l.bnf 803c8f4 <vsnprintf+0xe0>
 803c8c0:	15 00 00 00 	l.nop 0x0
 803c8c4:	00 00 00 0a 	l.j 803c8ec <vsnprintf+0xd8>
 803c8c8:	aa 52 00 01 	l.ori r18,r18,0x1
 803c8cc:	03 ff ff ec 	l.j 803c87c <vsnprintf+0x68>
 803c8d0:	aa 52 00 10 	l.ori r18,r18,0x10
 803c8d4:	03 ff ff ea 	l.j 803c87c <vsnprintf+0x68>
 803c8d8:	aa 52 00 04 	l.ori r18,r18,0x4
 803c8dc:	03 ff ff e8 	l.j 803c87c <vsnprintf+0x68>
 803c8e0:	aa 52 00 08 	l.ori r18,r18,0x8
 803c8e4:	03 ff ff e7 	l.j 803c880 <vsnprintf+0x6c>
 803c8e8:	9e d6 00 01 	l.addi r22,r22,0x1
 803c8ec:	03 ff ff e5 	l.j 803c880 <vsnprintf+0x6c>
 803c8f0:	9e d6 00 01 	l.addi r22,r22,0x1
 803c8f4:	9c 64 ff d0 	l.addi r3,r4,0xffffffd0
 803c8f8:	a4 63 00 ff 	l.andi r3,r3,0xff
 803c8fc:	bc 43 00 09 	l.sfgtui r3,0x9
 803c900:	0c 00 00 08 	l.bnf 803c920 <vsnprintf+0x10c>
 803c904:	9e 80 00 00 	l.addi r20,r0,0x0
 803c908:	00 00 00 0e 	l.j 803c940 <vsnprintf+0x12c>
 803c90c:	9e 80 ff ff 	l.addi r20,r0,0xffffffff
 803c910:	ba 94 00 03 	l.slli r20,r20,0x3
 803c914:	9e d6 00 01 	l.addi r22,r22,0x1
 803c918:	e2 84 a0 00 	l.add r20,r4,r20
 803c91c:	e2 83 a0 00 	l.add r20,r3,r20
 803c920:	90 76 00 00 	l.lbs r3,0x0(r22)
 803c924:	9c 63 ff d0 	l.addi r3,r3,0xffffffd0
 803c928:	a4 83 00 ff 	l.andi r4,r3,0xff
 803c92c:	bc a4 00 09 	l.sfleui r4,0x9
 803c930:	13 ff ff f8 	l.bf 803c910 <vsnprintf+0xfc>
 803c934:	e0 94 a0 00 	l.add r4,r20,r20
 803c938:	00 00 00 0d 	l.j 803c96c <vsnprintf+0x158>
 803c93c:	90 76 00 00 	l.lbs r3,0x0(r22)
 803c940:	bc 24 00 2a 	l.sfnei r4,0x2a
 803c944:	10 00 00 09 	l.bf 803c968 <vsnprintf+0x154>
 803c948:	15 00 00 00 	l.nop 0x0
 803c94c:	86 90 00 00 	l.lwz r20,0x0(r16)
 803c950:	9e d6 00 01 	l.addi r22,r22,0x1
 803c954:	bd 74 00 00 	l.sfgesi r20,0x0
 803c958:	10 00 00 04 	l.bf 803c968 <vsnprintf+0x154>
 803c95c:	9e 10 00 04 	l.addi r16,r16,0x4
 803c960:	e2 80 a0 02 	l.sub r20,r0,r20
 803c964:	aa 52 00 10 	l.ori r18,r18,0x10
 803c968:	90 76 00 00 	l.lbs r3,0x0(r22)
 803c96c:	bc 23 00 2e 	l.sfnei r3,0x2e
 803c970:	10 00 00 1e 	l.bf 803c9e8 <vsnprintf+0x1d4>
 803c974:	9f 00 ff ff 	l.addi r24,r0,0xffffffff
 803c978:	9e d6 00 01 	l.addi r22,r22,0x1
 803c97c:	90 76 00 00 	l.lbs r3,0x0(r22)
 803c980:	9c 83 ff d0 	l.addi r4,r3,0xffffffd0
 803c984:	a4 84 00 ff 	l.andi r4,r4,0xff
 803c988:	bc 44 00 09 	l.sfgtui r4,0x9
 803c98c:	0c 00 00 09 	l.bnf 803c9b0 <vsnprintf+0x19c>
 803c990:	9f 00 00 00 	l.addi r24,r0,0x0
 803c994:	00 00 00 0e 	l.j 803c9cc <vsnprintf+0x1b8>
 803c998:	9f 00 ff ff 	l.addi r24,r0,0xffffffff
 803c99c:	bb 18 00 03 	l.slli r24,r24,0x3
 803c9a0:	9e d6 00 01 	l.addi r22,r22,0x1
 803c9a4:	e3 04 c0 00 	l.add r24,r4,r24
 803c9a8:	e3 03 c0 00 	l.add r24,r3,r24
 803c9ac:	90 76 00 00 	l.lbs r3,0x0(r22)
 803c9b0:	9c 63 ff d0 	l.addi r3,r3,0xffffffd0
 803c9b4:	a4 83 00 ff 	l.andi r4,r3,0xff
 803c9b8:	bc a4 00 09 	l.sfleui r4,0x9
 803c9bc:	13 ff ff f8 	l.bf 803c99c <vsnprintf+0x188>
 803c9c0:	e0 98 c0 00 	l.add r4,r24,r24
 803c9c4:	00 00 00 0a 	l.j 803c9ec <vsnprintf+0x1d8>
 803c9c8:	9d 80 00 01 	l.addi r12,r0,0x1
 803c9cc:	bc 23 00 2a 	l.sfnei r3,0x2a
 803c9d0:	10 00 00 07 	l.bf 803c9ec <vsnprintf+0x1d8>
 803c9d4:	9d 80 00 01 	l.addi r12,r0,0x1
 803c9d8:	87 10 00 00 	l.lwz r24,0x0(r16)
 803c9dc:	9e d6 00 01 	l.addi r22,r22,0x1
 803c9e0:	00 00 00 03 	l.j 803c9ec <vsnprintf+0x1d8>
 803c9e4:	9e 10 00 04 	l.addi r16,r16,0x4
 803c9e8:	9d 80 00 00 	l.addi r12,r0,0x0
 803c9ec:	90 96 00 00 	l.lbs r4,0x0(r22)
 803c9f0:	ac 64 00 6c 	l.xori r3,r4,0x6c
 803c9f4:	a4 63 00 ff 	l.andi r3,r3,0xff
 803c9f8:	9c 63 ff ff 	l.addi r3,r3,0xffffffff
 803c9fc:	bd 83 00 00 	l.sfltsi r3,0x0
 803ca00:	10 00 00 0d 	l.bf 803ca34 <vsnprintf+0x220>
 803ca04:	a8 c4 00 00 	l.ori r6,r4,0x0
 803ca08:	ac 64 00 68 	l.xori r3,r4,0x68
 803ca0c:	a4 63 00 ff 	l.andi r3,r3,0xff
 803ca10:	9c 63 ff ff 	l.addi r3,r3,0xffffffff
 803ca14:	bd 83 00 00 	l.sfltsi r3,0x0
 803ca18:	10 00 00 07 	l.bf 803ca34 <vsnprintf+0x220>
 803ca1c:	bc 04 00 4c 	l.sfeqi r4,0x4c
 803ca20:	10 00 00 05 	l.bf 803ca34 <vsnprintf+0x220>
 803ca24:	bc 24 00 49 	l.sfnei r4,0x49
 803ca28:	10 00 00 04 	l.bf 803ca38 <vsnprintf+0x224>
 803ca2c:	9c c0 ff ff 	l.addi r6,r0,0xffffffff
 803ca30:	a8 c4 00 00 	l.ori r6,r4,0x0
 803ca34:	9e d6 00 01 	l.addi r22,r22,0x1
 803ca38:	91 16 00 00 	l.lbs r8,0x0(r22)
 803ca3c:	9c 68 ff bb 	l.addi r3,r8,0xffffffbb
 803ca40:	a4 63 00 ff 	l.andi r3,r3,0xff
 803ca44:	bc 43 00 33 	l.sfgtui r3,0x33
 803ca48:	10 00 02 70 	l.bf 803d408 <vsnprintf+0xbf4>
 803ca4c:	18 80 08 00 	l.movhi r4,0x800
 803ca50:	b8 63 00 02 	l.slli r3,r3,0x2
 803ca54:	a8 84 00 b0 	l.ori r4,r4,0xb0
 803ca58:	e0 63 20 00 	l.add r3,r3,r4
 803ca5c:	84 63 00 00 	l.lwz r3,0x0(r3)
 803ca60:	44 00 18 00 	l.jr r3
 803ca64:	15 00 00 00 	l.nop 0x0
 803ca68:	a6 52 00 10 	l.andi r18,r18,0x10
 803ca6c:	bc 32 00 00 	l.sfnei r18,0x0
 803ca70:	10 00 00 13 	l.bf 803cabc <vsnprintf+0x2a8>
 803ca74:	15 00 00 00 	l.nop 0x0
 803ca78:	00 00 00 06 	l.j 803ca90 <vsnprintf+0x27c>
 803ca7c:	9e 94 ff ff 	l.addi r20,r20,0xffffffff
 803ca80:	9d ce ff ff 	l.addi r14,r14,0xffffffff
 803ca84:	d8 02 28 00 	l.sb 0x0(r2),r5
 803ca88:	9c 42 00 01 	l.addi r2,r2,0x1
 803ca8c:	9e 94 ff ff 	l.addi r20,r20,0xffffffff
 803ca90:	bd b4 00 00 	l.sflesi r20,0x0
 803ca94:	10 00 00 06 	l.bf 803caac <vsnprintf+0x298>
 803ca98:	bc 2e 00 00 	l.sfnei r14,0x0
 803ca9c:	13 ff ff f9 	l.bf 803ca80 <vsnprintf+0x26c>
 803caa0:	9c a0 00 20 	l.addi r5,r0,0x20
 803caa4:	00 00 00 10 	l.j 803cae4 <vsnprintf+0x2d0>
 803caa8:	9e 94 ff ff 	l.addi r20,r20,0xffffffff
 803caac:	bc 0e 00 00 	l.sfeqi r14,0x0
 803cab0:	10 00 00 0d 	l.bf 803cae4 <vsnprintf+0x2d0>
 803cab4:	9e 94 ff ff 	l.addi r20,r20,0xffffffff
 803cab8:	9e 94 00 01 	l.addi r20,r20,0x1
 803cabc:	84 70 00 00 	l.lwz r3,0x0(r16)
 803cac0:	9d ce ff ff 	l.addi r14,r14,0xffffffff
 803cac4:	d8 02 18 00 	l.sb 0x0(r2),r3
 803cac8:	9e 10 00 04 	l.addi r16,r16,0x4
 803cacc:	00 00 00 05 	l.j 803cae0 <vsnprintf+0x2cc>
 803cad0:	9c 42 00 01 	l.addi r2,r2,0x1
 803cad4:	9d ce ff ff 	l.addi r14,r14,0xffffffff
 803cad8:	d8 02 30 00 	l.sb 0x0(r2),r6
 803cadc:	9c 42 00 01 	l.addi r2,r2,0x1
 803cae0:	9e 94 ff ff 	l.addi r20,r20,0xffffffff
 803cae4:	bd b4 00 00 	l.sflesi r20,0x0
 803cae8:	10 00 02 95 	l.bf 803d53c <vsnprintf+0xd28>
 803caec:	bc 2e 00 00 	l.sfnei r14,0x0
 803caf0:	13 ff ff f9 	l.bf 803cad4 <vsnprintf+0x2c0>
 803caf4:	9c c0 00 20 	l.addi r6,r0,0x20
 803caf8:	00 00 02 92 	l.j 803d540 <vsnprintf+0xd2c>
 803cafc:	9e d6 00 01 	l.addi r22,r22,0x1
 803cb00:	bd 78 00 00 	l.sfgesi r24,0x0
 803cb04:	10 00 00 06 	l.bf 803cb1c <vsnprintf+0x308>
 803cb08:	9f 50 00 04 	l.addi r26,r16,0x4
 803cb0c:	bc 0c 00 00 	l.sfeqi r12,0x0
 803cb10:	10 00 00 03 	l.bf 803cb1c <vsnprintf+0x308>
 803cb14:	15 00 00 00 	l.nop 0x0
 803cb18:	9f 00 00 00 	l.addi r24,r0,0x0
 803cb1c:	86 10 00 00 	l.lwz r16,0x0(r16)
 803cb20:	bc 10 00 00 	l.sfeqi r16,0x0
 803cb24:	0c 00 00 05 	l.bnf 803cb38 <vsnprintf+0x324>
 803cb28:	a8 70 00 00 	l.ori r3,r16,0x0
 803cb2c:	1a 00 08 03 	l.movhi r16,0x803
 803cb30:	aa 10 4a 41 	l.ori r16,r16,0x4a41
 803cb34:	a8 70 00 00 	l.ori r3,r16,0x0
 803cb38:	a8 98 00 00 	l.ori r4,r24,0x0
 803cb3c:	04 01 20 ee 	l.jal 8084ef4 <strnlen>
 803cb40:	a6 52 00 10 	l.andi r18,r18,0x10
 803cb44:	bc 32 00 00 	l.sfnei r18,0x0
 803cb48:	10 00 00 15 	l.bf 803cb9c <vsnprintf+0x388>
 803cb4c:	9c 80 00 00 	l.addi r4,r0,0x0
 803cb50:	00 00 00 06 	l.j 803cb68 <vsnprintf+0x354>
 803cb54:	9e 94 ff ff 	l.addi r20,r20,0xffffffff
 803cb58:	9d ce ff ff 	l.addi r14,r14,0xffffffff
 803cb5c:	d8 02 18 00 	l.sb 0x0(r2),r3
 803cb60:	9c 42 00 01 	l.addi r2,r2,0x1
 803cb64:	9e 94 ff ff 	l.addi r20,r20,0xffffffff
 803cb68:	9c 74 00 01 	l.addi r3,r20,0x1
 803cb6c:	e5 6b 18 00 	l.sfges r11,r3
 803cb70:	10 00 00 04 	l.bf 803cb80 <vsnprintf+0x36c>
 803cb74:	bc 2e 00 00 	l.sfnei r14,0x0
 803cb78:	13 ff ff f8 	l.bf 803cb58 <vsnprintf+0x344>
 803cb7c:	9c 60 00 20 	l.addi r3,r0,0x20
 803cb80:	00 00 00 07 	l.j 803cb9c <vsnprintf+0x388>
 803cb84:	9c 80 00 00 	l.addi r4,r0,0x0
 803cb88:	9d ce ff ff 	l.addi r14,r14,0xffffffff
 803cb8c:	8c 63 00 00 	l.lbz r3,0x0(r3)
 803cb90:	9c 84 00 01 	l.addi r4,r4,0x1
 803cb94:	d8 02 18 00 	l.sb 0x0(r2),r3
 803cb98:	9c 42 00 01 	l.addi r2,r2,0x1
 803cb9c:	e0 60 70 02 	l.sub r3,r0,r14
 803cba0:	e0 63 70 04 	l.or r3,r3,r14
 803cba4:	bd 63 00 00 	l.sfgesi r3,0x0
 803cba8:	10 00 00 0f 	l.bf 803cbe4 <vsnprintf+0x3d0>
 803cbac:	e5 84 58 00 	l.sflts r4,r11
 803cbb0:	10 00 00 03 	l.bf 803cbbc <vsnprintf+0x3a8>
 803cbb4:	9c 60 00 01 	l.addi r3,r0,0x1
 803cbb8:	9c 60 00 00 	l.addi r3,r0,0x0
 803cbbc:	a4 63 00 ff 	l.andi r3,r3,0xff
 803cbc0:	bc 23 00 00 	l.sfnei r3,0x0
 803cbc4:	13 ff ff f1 	l.bf 803cb88 <vsnprintf+0x374>
 803cbc8:	e0 70 20 00 	l.add r3,r16,r4
 803cbcc:	00 00 00 07 	l.j 803cbe8 <vsnprintf+0x3d4>
 803cbd0:	e5 6b a0 00 	l.sfges r11,r20
 803cbd4:	9c 80 00 20 	l.addi r4,r0,0x20
 803cbd8:	9d ce ff ff 	l.addi r14,r14,0xffffffff
 803cbdc:	d8 02 20 00 	l.sb 0x0(r2),r4
 803cbe0:	9c 42 00 01 	l.addi r2,r2,0x1
 803cbe4:	e5 6b a0 00 	l.sfges r11,r20
 803cbe8:	10 00 01 84 	l.bf 803d1f8 <vsnprintf+0x9e4>
 803cbec:	bc 2e 00 00 	l.sfnei r14,0x0
 803cbf0:	13 ff ff f9 	l.bf 803cbd4 <vsnprintf+0x3c0>
 803cbf4:	9e 94 ff ff 	l.addi r20,r20,0xffffffff
 803cbf8:	00 00 02 51 	l.j 803d53c <vsnprintf+0xd28>
 803cbfc:	aa 1a 00 00 	l.ori r16,r26,0x0
 803cc00:	bd 78 00 00 	l.sfgesi r24,0x0
 803cc04:	10 00 00 06 	l.bf 803cc1c <vsnprintf+0x408>
 803cc08:	bc 34 ff ff 	l.sfnei r20,0xffffffff
 803cc0c:	bc 0c 00 00 	l.sfeqi r12,0x0
 803cc10:	10 00 00 03 	l.bf 803cc1c <vsnprintf+0x408>
 803cc14:	bc 34 ff ff 	l.sfnei r20,0xffffffff
 803cc18:	9f 00 00 00 	l.addi r24,r0,0x0
 803cc1c:	10 00 00 04 	l.bf 803cc2c <vsnprintf+0x418>
 803cc20:	a8 62 00 00 	l.ori r3,r2,0x0
 803cc24:	aa 52 00 01 	l.ori r18,r18,0x1
 803cc28:	9e 80 00 08 	l.addi r20,r0,0x8
 803cc2c:	84 90 00 00 	l.lwz r4,0x0(r16)
 803cc30:	9c a0 00 10 	l.addi r5,r0,0x10
 803cc34:	a8 d4 00 00 	l.ori r6,r20,0x0
 803cc38:	a8 f8 00 00 	l.ori r7,r24,0x0
 803cc3c:	a9 12 00 00 	l.ori r8,r18,0x0
 803cc40:	07 ff fe 5a 	l.jal 803c5a8 <number>
 803cc44:	9f 50 00 04 	l.addi r26,r16,0x4
 803cc48:	00 00 01 6c 	l.j 803d1f8 <vsnprintf+0x9e4>
 803cc4c:	a8 4b 00 00 	l.ori r2,r11,0x0
 803cc50:	84 a1 00 10 	l.lwz r5,0x10(r1)
 803cc54:	84 90 00 00 	l.lwz r4,0x0(r16)
 803cc58:	9c d0 00 04 	l.addi r6,r16,0x4
 803cc5c:	e0 62 28 02 	l.sub r3,r2,r5
 803cc60:	aa 06 00 00 	l.ori r16,r6,0x0
 803cc64:	00 00 02 36 	l.j 803d53c <vsnprintf+0xd28>
 803cc68:	d4 04 18 00 	l.sw 0x0(r4),r3
 803cc6c:	00 00 02 11 	l.j 803d4b0 <vsnprintf+0xc9c>
 803cc70:	9c a0 00 08 	l.addi r5,r0,0x8
 803cc74:	00 00 02 0e 	l.j 803d4ac <vsnprintf+0xc98>
 803cc78:	aa 52 00 02 	l.ori r18,r18,0x2
 803cc7c:	aa 52 00 40 	l.ori r18,r18,0x40
 803cc80:	00 00 02 0c 	l.j 803d4b0 <vsnprintf+0xc9c>
 803cc84:	9c a0 00 10 	l.addi r5,r0,0x10
 803cc88:	9c 76 00 01 	l.addi r3,r22,0x1
 803cc8c:	d4 01 18 0c 	l.sw 0xc(r1),r3
 803cc90:	90 83 00 00 	l.lbs r4,0x0(r3)
 803cc94:	bc 04 00 69 	l.sfeqi r4,0x69
 803cc98:	10 00 00 15 	l.bf 803ccec <vsnprintf+0x4d8>
 803cc9c:	bd 44 00 69 	l.sfgtsi r4,0x69
 803cca0:	10 00 00 0b 	l.bf 803cccc <vsnprintf+0x4b8>
 803cca4:	bc 04 00 75 	l.sfeqi r4,0x75
 803cca8:	bc 04 00 62 	l.sfeqi r4,0x62
 803ccac:	10 00 00 3b 	l.bf 803cd98 <vsnprintf+0x584>
 803ccb0:	bc 04 00 64 	l.sfeqi r4,0x64
 803ccb4:	10 00 00 0e 	l.bf 803ccec <vsnprintf+0x4d8>
 803ccb8:	bc 04 00 58 	l.sfeqi r4,0x58
 803ccbc:	0c 00 00 10 	l.bnf 803ccfc <vsnprintf+0x4e8>
 803ccc0:	aa 52 00 40 	l.ori r18,r18,0x40
 803ccc4:	00 00 00 38 	l.j 803cda4 <vsnprintf+0x590>
 803ccc8:	9f 40 00 10 	l.addi r26,r0,0x10
 803cccc:	10 00 00 35 	l.bf 803cda0 <vsnprintf+0x58c>
 803ccd0:	bc 04 00 78 	l.sfeqi r4,0x78
 803ccd4:	10 00 00 08 	l.bf 803ccf4 <vsnprintf+0x4e0>
 803ccd8:	bc 04 00 6f 	l.sfeqi r4,0x6f
 803ccdc:	0c 00 00 08 	l.bnf 803ccfc <vsnprintf+0x4e8>
 803cce0:	9f 40 00 08 	l.addi r26,r0,0x8
 803cce4:	00 00 00 31 	l.j 803cda8 <vsnprintf+0x594>
 803cce8:	84 90 00 00 	l.lwz r4,0x0(r16)
 803ccec:	00 00 00 2d 	l.j 803cda0 <vsnprintf+0x58c>
 803ccf0:	aa 52 00 02 	l.ori r18,r18,0x2
 803ccf4:	00 00 00 2c 	l.j 803cda4 <vsnprintf+0x590>
 803ccf8:	9f 40 00 10 	l.addi r26,r0,0x10
 803ccfc:	ac c6 00 6c 	l.xori r6,r6,0x6c
 803cd00:	9c 80 00 25 	l.addi r4,r0,0x25
 803cd04:	e0 60 30 02 	l.sub r3,r0,r6
 803cd08:	d8 02 20 00 	l.sb 0x0(r2),r4
 803cd0c:	e0 c3 30 04 	l.or r6,r3,r6
 803cd10:	9c 42 00 01 	l.addi r2,r2,0x1
 803cd14:	bd 86 00 00 	l.sfltsi r6,0x0
 803cd18:	10 00 00 0b 	l.bf 803cd44 <vsnprintf+0x530>
 803cd1c:	9d ce ff ff 	l.addi r14,r14,0xffffffff
 803cd20:	e0 60 70 02 	l.sub r3,r0,r14
 803cd24:	e0 63 70 04 	l.or r3,r3,r14
 803cd28:	bd 63 00 00 	l.sfgesi r3,0x0
 803cd2c:	10 00 00 07 	l.bf 803cd48 <vsnprintf+0x534>
 803cd30:	bc 0e 00 00 	l.sfeqi r14,0x0
 803cd34:	9c a0 00 6c 	l.addi r5,r0,0x6c
 803cd38:	9d ce ff ff 	l.addi r14,r14,0xffffffff
 803cd3c:	d8 02 28 00 	l.sb 0x0(r2),r5
 803cd40:	9c 42 00 01 	l.addi r2,r2,0x1
 803cd44:	bc 0e 00 00 	l.sfeqi r14,0x0
 803cd48:	10 00 00 07 	l.bf 803cd64 <vsnprintf+0x550>
 803cd4c:	84 81 00 0c 	l.lwz r4,0xc(r1)
 803cd50:	9c c0 00 6c 	l.addi r6,r0,0x6c
 803cd54:	9d ce ff ff 	l.addi r14,r14,0xffffffff
 803cd58:	d8 02 30 00 	l.sb 0x0(r2),r6
 803cd5c:	9c 42 00 01 	l.addi r2,r2,0x1
 803cd60:	84 81 00 0c 	l.lwz r4,0xc(r1)
 803cd64:	90 64 00 00 	l.lbs r3,0x0(r4)
 803cd68:	e0 80 70 02 	l.sub r4,r0,r14
 803cd6c:	e0 84 70 04 	l.or r4,r4,r14
 803cd70:	bd 64 00 00 	l.sfgesi r4,0x0
 803cd74:	10 00 01 f2 	l.bf 803d53c <vsnprintf+0xd28>
 803cd78:	a4 83 00 ff 	l.andi r4,r3,0xff
 803cd7c:	bc 04 00 00 	l.sfeqi r4,0x0
 803cd80:	10 00 01 ef 	l.bf 803d53c <vsnprintf+0xd28>
 803cd84:	15 00 00 00 	l.nop 0x0
 803cd88:	d8 02 18 00 	l.sb 0x0(r2),r3
 803cd8c:	9d ce ff ff 	l.addi r14,r14,0xffffffff
 803cd90:	00 00 00 c0 	l.j 803d090 <vsnprintf+0x87c>
 803cd94:	9c 42 00 01 	l.addi r2,r2,0x1
 803cd98:	00 00 00 03 	l.j 803cda4 <vsnprintf+0x590>
 803cd9c:	9f 40 00 02 	l.addi r26,r0,0x2
 803cda0:	9f 40 00 0a 	l.addi r26,r0,0xa
 803cda4:	84 90 00 00 	l.lwz r4,0x0(r16)
 803cda8:	84 70 00 04 	l.lwz r3,0x4(r16)
 803cdac:	9c b0 00 08 	l.addi r5,r16,0x8
 803cdb0:	d4 01 20 04 	l.sw 0x4(r1),r4
 803cdb4:	d4 01 18 08 	l.sw 0x8(r1),r3
 803cdb8:	bd 78 00 00 	l.sfgesi r24,0x0
 803cdbc:	10 00 00 06 	l.bf 803cdd4 <vsnprintf+0x5c0>
 803cdc0:	aa 05 00 00 	l.ori r16,r5,0x0
 803cdc4:	bc 0c 00 00 	l.sfeqi r12,0x0
 803cdc8:	10 00 00 04 	l.bf 803cdd8 <vsnprintf+0x5c4>
 803cdcc:	18 c0 08 03 	l.movhi r6,0x803
 803cdd0:	9f 00 00 00 	l.addi r24,r0,0x0
 803cdd4:	18 c0 08 03 	l.movhi r6,0x803
 803cdd8:	a4 b2 00 40 	l.andi r5,r18,0x40
 803cddc:	a8 c6 49 f7 	l.ori r6,r6,0x49f7
 803cde0:	bc 05 00 00 	l.sfeqi r5,0x0
 803cde4:	10 00 00 05 	l.bf 803cdf8 <vsnprintf+0x5e4>
 803cde8:	d4 01 30 18 	l.sw 0x18(r1),r6
 803cdec:	18 a0 08 03 	l.movhi r5,0x803
 803cdf0:	a8 a5 4a 1c 	l.ori r5,r5,0x4a1c
 803cdf4:	d4 01 28 18 	l.sw 0x18(r1),r5
 803cdf8:	a4 b2 00 10 	l.andi r5,r18,0x10
 803cdfc:	bc 05 00 00 	l.sfeqi r5,0x0
 803ce00:	10 00 00 05 	l.bf 803ce14 <vsnprintf+0x600>
 803ce04:	9c c0 00 20 	l.addi r6,r0,0x20
 803ce08:	9c c0 ff fe 	l.addi r6,r0,0xfffffffe
 803ce0c:	e2 52 30 03 	l.and r18,r18,r6
 803ce10:	9c c0 00 20 	l.addi r6,r0,0x20
 803ce14:	a4 b2 00 01 	l.andi r5,r18,0x1
 803ce18:	bc 05 00 00 	l.sfeqi r5,0x0
 803ce1c:	10 00 00 04 	l.bf 803ce2c <vsnprintf+0x618>
 803ce20:	d4 01 30 1c 	l.sw 0x1c(r1),r6
 803ce24:	9c a0 00 30 	l.addi r5,r0,0x30
 803ce28:	d4 01 28 1c 	l.sw 0x1c(r1),r5
 803ce2c:	a7 d2 00 02 	l.andi r30,r18,0x2
 803ce30:	bc 1e 00 00 	l.sfeqi r30,0x0
 803ce34:	10 00 00 1d 	l.bf 803cea8 <vsnprintf+0x694>
 803ce38:	bd 84 00 00 	l.sfltsi r4,0x0
 803ce3c:	10 00 00 08 	l.bf 803ce5c <vsnprintf+0x648>
 803ce40:	e0 60 18 02 	l.sub r3,r0,r3
 803ce44:	a4 72 00 04 	l.andi r3,r18,0x4
 803ce48:	bc 03 00 00 	l.sfeqi r3,0x0
 803ce4c:	10 00 00 11 	l.bf 803ce90 <vsnprintf+0x67c>
 803ce50:	15 00 00 00 	l.nop 0x0
 803ce54:	00 00 00 0d 	l.j 803ce88 <vsnprintf+0x674>
 803ce58:	9e 94 ff ff 	l.addi r20,r20,0xffffffff
 803ce5c:	bc 43 00 00 	l.sfgtui r3,0x0
 803ce60:	10 00 00 03 	l.bf 803ce6c <vsnprintf+0x658>
 803ce64:	9c a0 00 01 	l.addi r5,r0,0x1
 803ce68:	9c a0 00 00 	l.addi r5,r0,0x0
 803ce6c:	e0 80 20 02 	l.sub r4,r0,r4
 803ce70:	d4 01 18 08 	l.sw 0x8(r1),r3
 803ce74:	e0 84 28 02 	l.sub r4,r4,r5
 803ce78:	9e 94 ff ff 	l.addi r20,r20,0xffffffff
 803ce7c:	d4 01 20 04 	l.sw 0x4(r1),r4
 803ce80:	00 00 00 0a 	l.j 803cea8 <vsnprintf+0x694>
 803ce84:	9f c0 00 2d 	l.addi r30,r0,0x2d
 803ce88:	00 00 00 08 	l.j 803cea8 <vsnprintf+0x694>
 803ce8c:	9f c0 00 2b 	l.addi r30,r0,0x2b
 803ce90:	a7 d2 00 08 	l.andi r30,r18,0x8
 803ce94:	bc 1e 00 00 	l.sfeqi r30,0x0
 803ce98:	10 00 00 05 	l.bf 803ceac <vsnprintf+0x698>
 803ce9c:	a4 d2 00 20 	l.andi r6,r18,0x20
 803cea0:	9e 94 ff ff 	l.addi r20,r20,0xffffffff
 803cea4:	9f c0 00 20 	l.addi r30,r0,0x20
 803cea8:	a4 d2 00 20 	l.andi r6,r18,0x20
 803ceac:	bc 06 00 00 	l.sfeqi r6,0x0
 803ceb0:	10 00 00 0a 	l.bf 803ced8 <vsnprintf+0x6c4>
 803ceb4:	d4 01 30 14 	l.sw 0x14(r1),r6
 803ceb8:	bc 3a 00 10 	l.sfnei r26,0x10
 803cebc:	10 00 00 04 	l.bf 803cecc <vsnprintf+0x6b8>
 803cec0:	bc 3a 00 08 	l.sfnei r26,0x8
 803cec4:	00 00 00 05 	l.j 803ced8 <vsnprintf+0x6c4>
 803cec8:	9e 94 ff fe 	l.addi r20,r20,0xfffffffe
 803cecc:	10 00 00 04 	l.bf 803cedc <vsnprintf+0x6c8>
 803ced0:	84 81 00 04 	l.lwz r4,0x4(r1)
 803ced4:	9e 94 ff ff 	l.addi r20,r20,0xffffffff
 803ced8:	84 81 00 04 	l.lwz r4,0x4(r1)
 803cedc:	84 a1 00 08 	l.lwz r5,0x8(r1)
 803cee0:	9e c0 00 00 	l.addi r22,r0,0x0
 803cee4:	e0 64 28 04 	l.or r3,r4,r5
 803cee8:	e4 23 b0 00 	l.sfne r3,r22
 803ceec:	10 00 00 07 	l.bf 803cf08 <vsnprintf+0x6f4>
 803cef0:	9c 61 01 34 	l.addi r3,r1,0x134
 803cef4:	9c c0 00 30 	l.addi r6,r0,0x30
 803cef8:	9e c0 00 01 	l.addi r22,r0,0x1
 803cefc:	00 00 00 1a 	l.j 803cf64 <vsnprintf+0x750>
 803cf00:	d8 01 31 34 	l.sb 0x134(r1),r6
 803cf04:	9c 61 01 34 	l.addi r3,r1,0x134
 803cf08:	84 81 00 08 	l.lwz r4,0x8(r1)
 803cf0c:	e0 63 b0 00 	l.add r3,r3,r22
 803cf10:	9c a0 00 00 	l.addi r5,r0,0x0
 803cf14:	d4 01 18 20 	l.sw 0x20(r1),r3
 803cf18:	a8 da 00 00 	l.ori r6,r26,0x0
 803cf1c:	84 61 00 04 	l.lwz r3,0x4(r1)
 803cf20:	04 01 37 d9 	l.jal 808ae84 <__umoddi3>
 803cf24:	9e d6 00 01 	l.addi r22,r22,0x1
 803cf28:	84 81 00 18 	l.lwz r4,0x18(r1)
 803cf2c:	84 a1 00 20 	l.lwz r5,0x20(r1)
 803cf30:	e1 84 60 00 	l.add r12,r4,r12
 803cf34:	84 61 00 04 	l.lwz r3,0x4(r1)
 803cf38:	8d 8c 00 00 	l.lbz r12,0x0(r12)
 803cf3c:	84 81 00 08 	l.lwz r4,0x8(r1)
 803cf40:	d8 05 60 00 	l.sb 0x0(r5),r12
 803cf44:	a8 da 00 00 	l.ori r6,r26,0x0
 803cf48:	04 01 36 22 	l.jal 808a7d0 <__udivdi3>
 803cf4c:	9c a0 00 00 	l.addi r5,r0,0x0
 803cf50:	e0 6b 60 04 	l.or r3,r11,r12
 803cf54:	d4 01 58 04 	l.sw 0x4(r1),r11
 803cf58:	bc 23 00 00 	l.sfnei r3,0x0
 803cf5c:	13 ff ff ea 	l.bf 803cf04 <vsnprintf+0x6f0>
 803cf60:	d4 01 60 08 	l.sw 0x8(r1),r12
 803cf64:	e5 76 c0 00 	l.sfges r22,r24
 803cf68:	10 00 00 03 	l.bf 803cf74 <vsnprintf+0x760>
 803cf6c:	a8 76 00 00 	l.ori r3,r22,0x0
 803cf70:	a8 78 00 00 	l.ori r3,r24,0x0
 803cf74:	a4 92 00 11 	l.andi r4,r18,0x11
 803cf78:	bc 24 00 00 	l.sfnei r4,0x0
 803cf7c:	10 00 00 0b 	l.bf 803cfa8 <vsnprintf+0x794>
 803cf80:	e2 94 18 02 	l.sub r20,r20,r3
 803cf84:	00 00 00 05 	l.j 803cf98 <vsnprintf+0x784>
 803cf88:	9e 94 ff ff 	l.addi r20,r20,0xffffffff
 803cf8c:	d8 02 30 00 	l.sb 0x0(r2),r6
 803cf90:	9c 42 00 01 	l.addi r2,r2,0x1
 803cf94:	9e 94 ff ff 	l.addi r20,r20,0xffffffff
 803cf98:	9c 94 00 01 	l.addi r4,r20,0x1
 803cf9c:	bd 44 00 00 	l.sfgtsi r4,0x0
 803cfa0:	13 ff ff fb 	l.bf 803cf8c <vsnprintf+0x778>
 803cfa4:	9c c0 00 20 	l.addi r6,r0,0x20
 803cfa8:	bc 1e 00 00 	l.sfeqi r30,0x0
 803cfac:	10 00 00 05 	l.bf 803cfc0 <vsnprintf+0x7ac>
 803cfb0:	84 81 00 14 	l.lwz r4,0x14(r1)
 803cfb4:	d8 02 f0 00 	l.sb 0x0(r2),r30
 803cfb8:	9c 42 00 01 	l.addi r2,r2,0x1
 803cfbc:	84 81 00 14 	l.lwz r4,0x14(r1)
 803cfc0:	bc 04 00 00 	l.sfeqi r4,0x0
 803cfc4:	10 00 00 0e 	l.bf 803cffc <vsnprintf+0x7e8>
 803cfc8:	bc 3a 00 08 	l.sfnei r26,0x8
 803cfcc:	10 00 00 06 	l.bf 803cfe4 <vsnprintf+0x7d0>
 803cfd0:	bc 3a 00 10 	l.sfnei r26,0x10
 803cfd4:	9c a0 00 30 	l.addi r5,r0,0x30
 803cfd8:	d8 02 28 00 	l.sb 0x0(r2),r5
 803cfdc:	00 00 00 08 	l.j 803cffc <vsnprintf+0x7e8>
 803cfe0:	9c 42 00 01 	l.addi r2,r2,0x1
 803cfe4:	10 00 00 06 	l.bf 803cffc <vsnprintf+0x7e8>
 803cfe8:	9c c0 00 30 	l.addi r6,r0,0x30
 803cfec:	9c 80 00 78 	l.addi r4,r0,0x78
 803cff0:	d8 02 30 00 	l.sb 0x0(r2),r6
 803cff4:	d8 02 20 01 	l.sb 0x1(r2),r4
 803cff8:	9c 42 00 02 	l.addi r2,r2,0x2
 803cffc:	a6 52 00 10 	l.andi r18,r18,0x10
 803d000:	bc 32 00 00 	l.sfnei r18,0x0
 803d004:	10 00 00 11 	l.bf 803d048 <vsnprintf+0x834>
 803d008:	e5 96 18 00 	l.sflts r22,r3
 803d00c:	00 00 00 05 	l.j 803d020 <vsnprintf+0x80c>
 803d010:	9e 94 ff ff 	l.addi r20,r20,0xffffffff
 803d014:	d8 02 28 00 	l.sb 0x0(r2),r5
 803d018:	9c 42 00 01 	l.addi r2,r2,0x1
 803d01c:	9e 94 ff ff 	l.addi r20,r20,0xffffffff
 803d020:	9c 94 00 01 	l.addi r4,r20,0x1
 803d024:	bd 44 00 00 	l.sfgtsi r4,0x0
 803d028:	13 ff ff fb 	l.bf 803d014 <vsnprintf+0x800>
 803d02c:	84 a1 00 1c 	l.lwz r5,0x1c(r1)
 803d030:	00 00 00 06 	l.j 803d048 <vsnprintf+0x834>
 803d034:	e5 96 18 00 	l.sflts r22,r3
 803d038:	9c 63 ff ff 	l.addi r3,r3,0xffffffff
 803d03c:	d8 02 30 00 	l.sb 0x0(r2),r6
 803d040:	9c 42 00 01 	l.addi r2,r2,0x1
 803d044:	e5 96 18 00 	l.sflts r22,r3
 803d048:	13 ff ff fc 	l.bf 803d038 <vsnprintf+0x824>
 803d04c:	9c c0 00 30 	l.addi r6,r0,0x30
 803d050:	9e d6 ff ff 	l.addi r22,r22,0xffffffff
 803d054:	9c 81 01 34 	l.addi r4,r1,0x134
 803d058:	bd 56 00 00 	l.sfgtsi r22,0x0
 803d05c:	e0 64 b0 00 	l.add r3,r4,r22
 803d060:	8c 63 00 00 	l.lbz r3,0x0(r3)
 803d064:	d8 02 18 00 	l.sb 0x0(r2),r3
 803d068:	13 ff ff fa 	l.bf 803d050 <vsnprintf+0x83c>
 803d06c:	9c 42 00 01 	l.addi r2,r2,0x1
 803d070:	00 00 00 06 	l.j 803d088 <vsnprintf+0x874>
 803d074:	bd 54 00 00 	l.sfgtsi r20,0x0
 803d078:	9e 94 ff ff 	l.addi r20,r20,0xffffffff
 803d07c:	d8 02 28 00 	l.sb 0x0(r2),r5
 803d080:	9c 42 00 01 	l.addi r2,r2,0x1
 803d084:	bd 54 00 00 	l.sfgtsi r20,0x0
 803d088:	13 ff ff fc 	l.bf 803d078 <vsnprintf+0x864>
 803d08c:	9c a0 00 20 	l.addi r5,r0,0x20
 803d090:	00 00 01 2b 	l.j 803d53c <vsnprintf+0xd28>
 803d094:	86 c1 00 0c 	l.lwz r22,0xc(r1)
 803d098:	bc 26 00 68 	l.sfnei r6,0x68
 803d09c:	10 00 00 4e 	l.bf 803d1d4 <vsnprintf+0x9c0>
 803d0a0:	a8 62 00 00 	l.ori r3,r2,0x0
 803d0a4:	bc 18 ff ff 	l.sfeqi r24,0xffffffff
 803d0a8:	10 00 00 06 	l.bf 803d0c0 <vsnprintf+0x8ac>
 803d0ac:	9c e0 00 06 	l.addi r7,r0,0x6
 803d0b0:	bd b8 00 32 	l.sflesi r24,0x32
 803d0b4:	10 00 00 03 	l.bf 803d0c0 <vsnprintf+0x8ac>
 803d0b8:	a8 f8 00 00 	l.ori r7,r24,0x0
 803d0bc:	9c e0 00 32 	l.addi r7,r0,0x32
 803d0c0:	ac 88 00 45 	l.xori r4,r8,0x45
 803d0c4:	9f 10 00 04 	l.addi r24,r16,0x4
 803d0c8:	a4 84 00 ff 	l.andi r4,r4,0xff
 803d0cc:	9c 84 ff ff 	l.addi r4,r4,0xffffffff
 803d0d0:	bd 84 00 00 	l.sfltsi r4,0x0
 803d0d4:	10 00 00 08 	l.bf 803d0f4 <vsnprintf+0x8e0>
 803d0d8:	84 70 00 00 	l.lwz r3,0x0(r16)
 803d0dc:	ac 88 00 65 	l.xori r4,r8,0x65
 803d0e0:	a4 84 00 ff 	l.andi r4,r4,0xff
 803d0e4:	9c 84 ff ff 	l.addi r4,r4,0xffffffff
 803d0e8:	bd 64 00 00 	l.sfgesi r4,0x0
 803d0ec:	10 00 00 0a 	l.bf 803d114 <vsnprintf+0x900>
 803d0f0:	15 00 00 00 	l.nop 0x0
 803d0f4:	9c a7 00 02 	l.addi r5,r7,0x2
 803d0f8:	a8 c7 00 00 	l.ori r6,r7,0x0
 803d0fc:	a8 9c 00 00 	l.ori r4,r28,0x0
 803d100:	9c e1 01 78 	l.addi r7,r1,0x178
 803d104:	07 ff fb cc 	l.jal 803c034 <ftoae>
 803d108:	9d 00 00 00 	l.addi r8,r0,0x0
 803d10c:	00 00 00 24 	l.j 803d19c <vsnprintf+0x988>
 803d110:	9c 80 00 00 	l.addi r4,r0,0x0
 803d114:	ac 88 00 47 	l.xori r4,r8,0x47
 803d118:	a4 84 00 ff 	l.andi r4,r4,0xff
 803d11c:	9c 84 ff ff 	l.addi r4,r4,0xffffffff
 803d120:	bd 84 00 00 	l.sfltsi r4,0x0
 803d124:	10 00 00 09 	l.bf 803d148 <vsnprintf+0x934>
 803d128:	a8 9c 00 00 	l.ori r4,r28,0x0
 803d12c:	ad 08 00 67 	l.xori r8,r8,0x67
 803d130:	a5 08 00 ff 	l.andi r8,r8,0xff
 803d134:	9d 08 ff ff 	l.addi r8,r8,0xffffffff
 803d138:	bd 68 00 00 	l.sfgesi r8,0x0
 803d13c:	10 00 00 07 	l.bf 803d158 <vsnprintf+0x944>
 803d140:	bd b4 01 0e 	l.sflesi r20,0x10e
 803d144:	a8 9c 00 00 	l.ori r4,r28,0x0
 803d148:	07 ff fc 5d 	l.jal 803c2bc <ftoag>
 803d14c:	a8 a7 00 00 	l.ori r5,r7,0x0
 803d150:	00 00 00 13 	l.j 803d19c <vsnprintf+0x988>
 803d154:	9c 80 00 00 	l.addi r4,r0,0x0
 803d158:	10 00 00 03 	l.bf 803d164 <vsnprintf+0x950>
 803d15c:	a8 b4 00 00 	l.ori r5,r20,0x0
 803d160:	9c a0 01 0e 	l.addi r5,r0,0x10e
 803d164:	ba 52 00 44 	l.srli r18,r18,0x4
 803d168:	a8 9c 00 00 	l.ori r4,r28,0x0
 803d16c:	9c c0 00 20 	l.addi r6,r0,0x20
 803d170:	a6 52 00 01 	l.andi r18,r18,0x1
 803d174:	9d 00 00 00 	l.addi r8,r0,0x0
 803d178:	07 ff fb 00 	l.jal 803bd78 <ftoaf>
 803d17c:	d4 01 90 00 	l.sw 0x0(r1),r18
 803d180:	00 00 00 07 	l.j 803d19c <vsnprintf+0x988>
 803d184:	9c 80 00 00 	l.addi r4,r0,0x0
 803d188:	9d ce ff ff 	l.addi r14,r14,0xffffffff
 803d18c:	8c 63 00 00 	l.lbz r3,0x0(r3)
 803d190:	9c 84 00 01 	l.addi r4,r4,0x1
 803d194:	d8 02 18 00 	l.sb 0x0(r2),r3
 803d198:	9c 42 00 01 	l.addi r2,r2,0x1
 803d19c:	e0 60 70 02 	l.sub r3,r0,r14
 803d1a0:	e0 63 70 04 	l.or r3,r3,r14
 803d1a4:	bd 63 00 00 	l.sfgesi r3,0x0
 803d1a8:	10 00 00 e4 	l.bf 803d538 <vsnprintf+0xd24>
 803d1ac:	e5 84 58 00 	l.sflts r4,r11
 803d1b0:	10 00 00 03 	l.bf 803d1bc <vsnprintf+0x9a8>
 803d1b4:	9c 60 00 01 	l.addi r3,r0,0x1
 803d1b8:	9c 60 00 00 	l.addi r3,r0,0x0
 803d1bc:	a4 63 00 ff 	l.andi r3,r3,0xff
 803d1c0:	bc 23 00 00 	l.sfnei r3,0x0
 803d1c4:	13 ff ff f1 	l.bf 803d188 <vsnprintf+0x974>
 803d1c8:	e0 7c 20 00 	l.add r3,r28,r4
 803d1cc:	00 00 00 dc 	l.j 803d53c <vsnprintf+0xd28>
 803d1d0:	aa 18 00 00 	l.ori r16,r24,0x0
 803d1d4:	aa 52 00 02 	l.ori r18,r18,0x2
 803d1d8:	d4 01 90 00 	l.sw 0x0(r1),r18
 803d1dc:	a8 d4 00 00 	l.ori r6,r20,0x0
 803d1e0:	a8 f8 00 00 	l.ori r7,r24,0x0
 803d1e4:	84 90 00 00 	l.lwz r4,0x0(r16)
 803d1e8:	84 b0 00 04 	l.lwz r5,0x4(r16)
 803d1ec:	07 ff f7 fc 	l.jal 803b1dc <flt>
 803d1f0:	9f 50 00 08 	l.addi r26,r16,0x8
 803d1f4:	a8 4b 00 00 	l.ori r2,r11,0x0
 803d1f8:	00 00 00 d1 	l.j 803d53c <vsnprintf+0xd28>
 803d1fc:	aa 1a 00 00 	l.ori r16,r26,0x0
 803d200:	bc 26 00 68 	l.sfnei r6,0x68
 803d204:	10 00 00 35 	l.bf 803d2d8 <vsnprintf+0xac4>
 803d208:	9c 80 00 25 	l.addi r4,r0,0x25
 803d20c:	84 70 00 00 	l.lwz r3,0x0(r16)
 803d210:	a8 9c 00 00 	l.ori r4,r28,0x0
 803d214:	07 ff fc 87 	l.jal 803c430 <ftox>
 803d218:	a6 52 00 10 	l.andi r18,r18,0x10
 803d21c:	bc 32 00 00 	l.sfnei r18,0x0
 803d220:	10 00 00 0e 	l.bf 803d258 <vsnprintf+0xa44>
 803d224:	9f 10 00 04 	l.addi r24,r16,0x4
 803d228:	00 00 00 06 	l.j 803d240 <vsnprintf+0xa2c>
 803d22c:	9e 94 ff ff 	l.addi r20,r20,0xffffffff
 803d230:	9d ce ff ff 	l.addi r14,r14,0xffffffff
 803d234:	d8 02 30 00 	l.sb 0x0(r2),r6
 803d238:	9c 42 00 01 	l.addi r2,r2,0x1
 803d23c:	9e 94 ff ff 	l.addi r20,r20,0xffffffff
 803d240:	9c 74 00 01 	l.addi r3,r20,0x1
 803d244:	e5 6b 18 00 	l.sfges r11,r3
 803d248:	10 00 00 04 	l.bf 803d258 <vsnprintf+0xa44>
 803d24c:	bc 2e 00 00 	l.sfnei r14,0x0
 803d250:	13 ff ff f8 	l.bf 803d230 <vsnprintf+0xa1c>
 803d254:	9c c0 00 20 	l.addi r6,r0,0x20
 803d258:	00 00 00 07 	l.j 803d274 <vsnprintf+0xa60>
 803d25c:	9c 80 00 00 	l.addi r4,r0,0x0
 803d260:	9d ce ff ff 	l.addi r14,r14,0xffffffff
 803d264:	8c 63 00 00 	l.lbz r3,0x0(r3)
 803d268:	9c 84 00 01 	l.addi r4,r4,0x1
 803d26c:	d8 02 18 00 	l.sb 0x0(r2),r3
 803d270:	9c 42 00 01 	l.addi r2,r2,0x1
 803d274:	e0 60 70 02 	l.sub r3,r0,r14
 803d278:	e0 63 70 04 	l.or r3,r3,r14
 803d27c:	bd 63 00 00 	l.sfgesi r3,0x0
 803d280:	10 00 00 0f 	l.bf 803d2bc <vsnprintf+0xaa8>
 803d284:	e5 84 58 00 	l.sflts r4,r11
 803d288:	10 00 00 03 	l.bf 803d294 <vsnprintf+0xa80>
 803d28c:	9c 60 00 01 	l.addi r3,r0,0x1
 803d290:	9c 60 00 00 	l.addi r3,r0,0x0
 803d294:	a4 63 00 ff 	l.andi r3,r3,0xff
 803d298:	bc 23 00 00 	l.sfnei r3,0x0
 803d29c:	13 ff ff f1 	l.bf 803d260 <vsnprintf+0xa4c>
 803d2a0:	e0 7c 20 00 	l.add r3,r28,r4
 803d2a4:	00 00 00 07 	l.j 803d2c0 <vsnprintf+0xaac>
 803d2a8:	e5 6b a0 00 	l.sfges r11,r20
 803d2ac:	9c 60 00 20 	l.addi r3,r0,0x20
 803d2b0:	9d ce ff ff 	l.addi r14,r14,0xffffffff
 803d2b4:	d8 02 18 00 	l.sb 0x0(r2),r3
 803d2b8:	9c 42 00 01 	l.addi r2,r2,0x1
 803d2bc:	e5 6b a0 00 	l.sfges r11,r20
 803d2c0:	10 00 00 9e 	l.bf 803d538 <vsnprintf+0xd24>
 803d2c4:	bc 2e 00 00 	l.sfnei r14,0x0
 803d2c8:	13 ff ff f9 	l.bf 803d2ac <vsnprintf+0xa98>
 803d2cc:	9e 94 ff ff 	l.addi r20,r20,0xffffffff
 803d2d0:	00 00 00 9b 	l.j 803d53c <vsnprintf+0xd28>
 803d2d4:	aa 18 00 00 	l.ori r16,r24,0x0
 803d2d8:	00 00 00 3f 	l.j 803d3d4 <vsnprintf+0xbc0>
 803d2dc:	d8 02 20 00 	l.sb 0x0(r2),r4
 803d2e0:	bc 26 00 49 	l.sfnei r6,0x49
 803d2e4:	10 00 00 3b 	l.bf 803d3d0 <vsnprintf+0xbbc>
 803d2e8:	9c 60 00 25 	l.addi r3,r0,0x25
 803d2ec:	9f 10 00 04 	l.addi r24,r16,0x4
 803d2f0:	bc ae 00 0f 	l.sfleui r14,0xf
 803d2f4:	10 00 00 03 	l.bf 803d300 <vsnprintf+0xaec>
 803d2f8:	a8 ae 00 00 	l.ori r5,r14,0x0
 803d2fc:	9c a0 00 0f 	l.addi r5,r0,0xf
 803d300:	a8 d2 00 00 	l.ori r6,r18,0x0
 803d304:	84 70 00 00 	l.lwz r3,0x0(r16)
 803d308:	a8 9c 00 00 	l.ori r4,r28,0x0
 803d30c:	07 ff f4 e0 	l.jal 803a68c <IPtoStr>
 803d310:	a6 52 00 10 	l.andi r18,r18,0x10
 803d314:	bc 32 00 00 	l.sfnei r18,0x0
 803d318:	10 00 00 15 	l.bf 803d36c <vsnprintf+0xb58>
 803d31c:	9c 80 00 00 	l.addi r4,r0,0x0
 803d320:	00 00 00 06 	l.j 803d338 <vsnprintf+0xb24>
 803d324:	9e 94 ff ff 	l.addi r20,r20,0xffffffff
 803d328:	9d ce ff ff 	l.addi r14,r14,0xffffffff
 803d32c:	d8 02 28 00 	l.sb 0x0(r2),r5
 803d330:	9c 42 00 01 	l.addi r2,r2,0x1
 803d334:	9e 94 ff ff 	l.addi r20,r20,0xffffffff
 803d338:	9c 74 00 01 	l.addi r3,r20,0x1
 803d33c:	e5 6b 18 00 	l.sfges r11,r3
 803d340:	10 00 00 04 	l.bf 803d350 <vsnprintf+0xb3c>
 803d344:	bc 2e 00 00 	l.sfnei r14,0x0
 803d348:	13 ff ff f8 	l.bf 803d328 <vsnprintf+0xb14>
 803d34c:	9c a0 00 20 	l.addi r5,r0,0x20
 803d350:	00 00 00 07 	l.j 803d36c <vsnprintf+0xb58>
 803d354:	9c 80 00 00 	l.addi r4,r0,0x0
 803d358:	9d ce ff ff 	l.addi r14,r14,0xffffffff
 803d35c:	8c 63 00 00 	l.lbz r3,0x0(r3)
 803d360:	9c 84 00 01 	l.addi r4,r4,0x1
 803d364:	d8 02 18 00 	l.sb 0x0(r2),r3
 803d368:	9c 42 00 01 	l.addi r2,r2,0x1
 803d36c:	e0 60 70 02 	l.sub r3,r0,r14
 803d370:	e0 63 70 04 	l.or r3,r3,r14
 803d374:	bd 63 00 00 	l.sfgesi r3,0x0
 803d378:	10 00 00 0f 	l.bf 803d3b4 <vsnprintf+0xba0>
 803d37c:	e5 84 58 00 	l.sflts r4,r11
 803d380:	10 00 00 03 	l.bf 803d38c <vsnprintf+0xb78>
 803d384:	9c 60 00 01 	l.addi r3,r0,0x1
 803d388:	9c 60 00 00 	l.addi r3,r0,0x0
 803d38c:	a4 63 00 ff 	l.andi r3,r3,0xff
 803d390:	bc 23 00 00 	l.sfnei r3,0x0
 803d394:	13 ff ff f1 	l.bf 803d358 <vsnprintf+0xb44>
 803d398:	e0 7c 20 00 	l.add r3,r28,r4
 803d39c:	00 00 00 07 	l.j 803d3b8 <vsnprintf+0xba4>
 803d3a0:	e5 6b a0 00 	l.sfges r11,r20
 803d3a4:	9c c0 00 20 	l.addi r6,r0,0x20
 803d3a8:	9d ce ff ff 	l.addi r14,r14,0xffffffff
 803d3ac:	d8 02 30 00 	l.sb 0x0(r2),r6
 803d3b0:	9c 42 00 01 	l.addi r2,r2,0x1
 803d3b4:	e5 6b a0 00 	l.sfges r11,r20
 803d3b8:	10 00 00 60 	l.bf 803d538 <vsnprintf+0xd24>
 803d3bc:	bc 2e 00 00 	l.sfnei r14,0x0
 803d3c0:	13 ff ff f9 	l.bf 803d3a4 <vsnprintf+0xb90>
 803d3c4:	9e 94 ff ff 	l.addi r20,r20,0xffffffff
 803d3c8:	00 00 00 5d 	l.j 803d53c <vsnprintf+0xd28>
 803d3cc:	aa 18 00 00 	l.ori r16,r24,0x0
 803d3d0:	d8 02 18 00 	l.sb 0x0(r2),r3
 803d3d4:	90 76 00 00 	l.lbs r3,0x0(r22)
 803d3d8:	a4 83 00 ff 	l.andi r4,r3,0xff
 803d3dc:	9c 42 00 01 	l.addi r2,r2,0x1
 803d3e0:	bc 04 00 00 	l.sfeqi r4,0x0
 803d3e4:	10 00 00 2e 	l.bf 803d49c <vsnprintf+0xc88>
 803d3e8:	9d ce ff ff 	l.addi r14,r14,0xffffffff
 803d3ec:	e0 80 70 02 	l.sub r4,r0,r14
 803d3f0:	e0 84 70 04 	l.or r4,r4,r14
 803d3f4:	bd 64 00 00 	l.sfgesi r4,0x0
 803d3f8:	10 00 00 29 	l.bf 803d49c <vsnprintf+0xc88>
 803d3fc:	15 00 00 00 	l.nop 0x0
 803d400:	00 00 00 24 	l.j 803d490 <vsnprintf+0xc7c>
 803d404:	d8 02 18 00 	l.sb 0x0(r2),r3
 803d408:	ad 08 00 25 	l.xori r8,r8,0x25
 803d40c:	a5 08 00 ff 	l.andi r8,r8,0xff
 803d410:	bc 08 00 00 	l.sfeqi r8,0x0
 803d414:	10 00 00 07 	l.bf 803d430 <vsnprintf+0xc1c>
 803d418:	e0 60 70 02 	l.sub r3,r0,r14
 803d41c:	9c 80 00 25 	l.addi r4,r0,0x25
 803d420:	9d ce ff ff 	l.addi r14,r14,0xffffffff
 803d424:	d8 02 20 00 	l.sb 0x0(r2),r4
 803d428:	9c 42 00 01 	l.addi r2,r2,0x1
 803d42c:	e0 60 70 02 	l.sub r3,r0,r14
 803d430:	e0 63 70 04 	l.or r3,r3,r14
 803d434:	bd 63 00 00 	l.sfgesi r3,0x0
 803d438:	10 00 00 0d 	l.bf 803d46c <vsnprintf+0xc58>
 803d43c:	e0 80 70 02 	l.sub r4,r0,r14
 803d440:	ac c6 00 6c 	l.xori r6,r6,0x6c
 803d444:	e0 60 30 02 	l.sub r3,r0,r6
 803d448:	e0 c3 30 04 	l.or r6,r3,r6
 803d44c:	bd 86 00 00 	l.sfltsi r6,0x0
 803d450:	10 00 00 08 	l.bf 803d470 <vsnprintf+0xc5c>
 803d454:	e0 84 70 04 	l.or r4,r4,r14
 803d458:	9c a0 00 6c 	l.addi r5,r0,0x6c
 803d45c:	9d ce ff ff 	l.addi r14,r14,0xffffffff
 803d460:	d8 02 28 00 	l.sb 0x0(r2),r5
 803d464:	9c 42 00 01 	l.addi r2,r2,0x1
 803d468:	e0 80 70 02 	l.sub r4,r0,r14
 803d46c:	e0 84 70 04 	l.or r4,r4,r14
 803d470:	bd 64 00 00 	l.sfgesi r4,0x0
 803d474:	10 00 00 0a 	l.bf 803d49c <vsnprintf+0xc88>
 803d478:	90 76 00 00 	l.lbs r3,0x0(r22)
 803d47c:	a4 83 00 ff 	l.andi r4,r3,0xff
 803d480:	bc 04 00 00 	l.sfeqi r4,0x0
 803d484:	10 00 00 06 	l.bf 803d49c <vsnprintf+0xc88>
 803d488:	15 00 00 00 	l.nop 0x0
 803d48c:	d8 02 18 00 	l.sb 0x0(r2),r3
 803d490:	9d ce ff ff 	l.addi r14,r14,0xffffffff
 803d494:	00 00 00 2a 	l.j 803d53c <vsnprintf+0xd28>
 803d498:	9c 42 00 01 	l.addi r2,r2,0x1
 803d49c:	00 00 00 28 	l.j 803d53c <vsnprintf+0xd28>
 803d4a0:	9e d6 ff ff 	l.addi r22,r22,0xffffffff
 803d4a4:	00 00 00 03 	l.j 803d4b0 <vsnprintf+0xc9c>
 803d4a8:	9c a0 00 02 	l.addi r5,r0,0x2
 803d4ac:	9c a0 00 0a 	l.addi r5,r0,0xa
 803d4b0:	bc 26 00 6c 	l.sfnei r6,0x6c
 803d4b4:	10 00 00 05 	l.bf 803d4c8 <vsnprintf+0xcb4>
 803d4b8:	bc 26 00 68 	l.sfnei r6,0x68
 803d4bc:	84 90 00 00 	l.lwz r4,0x0(r16)
 803d4c0:	00 00 00 10 	l.j 803d500 <vsnprintf+0xcec>
 803d4c4:	9e 10 00 04 	l.addi r16,r16,0x4
 803d4c8:	10 00 00 0b 	l.bf 803d4f4 <vsnprintf+0xce0>
 803d4cc:	a4 72 00 02 	l.andi r3,r18,0x2
 803d4d0:	bc 03 00 00 	l.sfeqi r3,0x0
 803d4d4:	9c d0 00 04 	l.addi r6,r16,0x4
 803d4d8:	10 00 00 05 	l.bf 803d4ec <vsnprintf+0xcd8>
 803d4dc:	84 90 00 00 	l.lwz r4,0x0(r16)
 803d4e0:	b8 84 00 10 	l.slli r4,r4,0x10
 803d4e4:	00 00 00 06 	l.j 803d4fc <vsnprintf+0xce8>
 803d4e8:	b8 84 00 90 	l.srai r4,r4,0x10
 803d4ec:	00 00 00 04 	l.j 803d4fc <vsnprintf+0xce8>
 803d4f0:	a4 84 ff ff 	l.andi r4,r4,0xffff
 803d4f4:	9c d0 00 04 	l.addi r6,r16,0x4
 803d4f8:	84 90 00 00 	l.lwz r4,0x0(r16)
 803d4fc:	aa 06 00 00 	l.ori r16,r6,0x0
 803d500:	bd 78 00 00 	l.sfgesi r24,0x0
 803d504:	10 00 00 07 	l.bf 803d520 <vsnprintf+0xd0c>
 803d508:	a8 62 00 00 	l.ori r3,r2,0x0
 803d50c:	bc 0c 00 00 	l.sfeqi r12,0x0
 803d510:	10 00 00 05 	l.bf 803d524 <vsnprintf+0xd10>
 803d514:	a8 d4 00 00 	l.ori r6,r20,0x0
 803d518:	9f 00 00 00 	l.addi r24,r0,0x0
 803d51c:	a8 62 00 00 	l.ori r3,r2,0x0
 803d520:	a8 d4 00 00 	l.ori r6,r20,0x0
 803d524:	a8 f8 00 00 	l.ori r7,r24,0x0
 803d528:	07 ff fc 20 	l.jal 803c5a8 <number>
 803d52c:	a9 12 00 00 	l.ori r8,r18,0x0
 803d530:	00 00 00 03 	l.j 803d53c <vsnprintf+0xd28>
 803d534:	a8 4b 00 00 	l.ori r2,r11,0x0
 803d538:	aa 18 00 00 	l.ori r16,r24,0x0
 803d53c:	9e d6 00 01 	l.addi r22,r22,0x1
 803d540:	90 76 00 00 	l.lbs r3,0x0(r22)
 803d544:	a4 83 00 ff 	l.andi r4,r3,0xff
 803d548:	bc 04 00 00 	l.sfeqi r4,0x0
 803d54c:	10 00 00 06 	l.bf 803d564 <vsnprintf+0xd50>
 803d550:	e0 80 70 02 	l.sub r4,r0,r14
 803d554:	e0 84 70 04 	l.or r4,r4,r14
 803d558:	bd 84 00 00 	l.sfltsi r4,0x0
 803d55c:	13 ff fc c6 	l.bf 803c874 <vsnprintf+0x60>
 803d560:	bc 23 00 25 	l.sfnei r3,0x25
 803d564:	9c c0 00 00 	l.addi r6,r0,0x0
 803d568:	d8 02 30 00 	l.sb 0x0(r2),r6
 803d56c:	84 61 00 10 	l.lwz r3,0x10(r1)
 803d570:	9c 21 01 a8 	l.addi r1,r1,0x1a8
 803d574:	e1 62 18 02 	l.sub r11,r2,r3
 803d578:	85 21 ff fc 	l.lwz r9,0xfffffffc(r1)
 803d57c:	84 41 ff d4 	l.lwz r2,0xffffffd4(r1)
 803d580:	85 c1 ff d8 	l.lwz r14,0xffffffd8(r1)
 803d584:	86 01 ff dc 	l.lwz r16,0xffffffdc(r1)
 803d588:	86 41 ff e0 	l.lwz r18,0xffffffe0(r1)
 803d58c:	86 81 ff e4 	l.lwz r20,0xffffffe4(r1)
 803d590:	86 c1 ff e8 	l.lwz r22,0xffffffe8(r1)
 803d594:	87 01 ff ec 	l.lwz r24,0xffffffec(r1)
 803d598:	87 41 ff f0 	l.lwz r26,0xfffffff0(r1)
 803d59c:	87 81 ff f4 	l.lwz r28,0xfffffff4(r1)
 803d5a0:	44 00 48 00 	l.jr r9
 803d5a4:	87 c1 ff f8 	l.lwz r30,0xfffffff8(r1)

0803d5a8 <AdcInit>:
 803d5a8:	d7 e1 17 fc 	l.sw 0xfffffffc(r1),r2
 803d5ac:	18 60 f9 10 	l.movhi r3,0xf910
 803d5b0:	9c 40 00 80 	l.addi r2,r0,0x80
 803d5b4:	9c 21 ff fc 	l.addi r1,r1,0xfffffffc
 803d5b8:	dc 03 10 00 	l.sh 0x0(r3),r2
 803d5bc:	9c 40 ff fd 	l.addi r2,r0,0xfffffffd
 803d5c0:	84 83 00 00 	l.lwz r4,0x0(r3)
 803d5c4:	a8 84 02 00 	l.ori r4,r4,0x200
 803d5c8:	d4 03 20 00 	l.sw 0x0(r3),r4
 803d5cc:	84 83 00 00 	l.lwz r4,0x0(r3)
 803d5d0:	e0 84 10 03 	l.and r4,r4,r2
 803d5d4:	18 40 80 00 	l.movhi r2,0x8000
 803d5d8:	d4 03 20 00 	l.sw 0x0(r3),r4
 803d5dc:	a8 83 00 08 	l.ori r4,r3,0x8
 803d5e0:	84 a4 00 00 	l.lwz r5,0x0(r4)
 803d5e4:	e0 a5 10 04 	l.or r5,r5,r2
 803d5e8:	18 40 bf ff 	l.movhi r2,0xbfff
 803d5ec:	d4 04 28 00 	l.sw 0x0(r4),r5
 803d5f0:	a8 42 ff ff 	l.ori r2,r2,0xffff
 803d5f4:	84 a4 00 00 	l.lwz r5,0x0(r4)
 803d5f8:	e0 a5 10 03 	l.and r5,r5,r2
 803d5fc:	18 40 c7 ff 	l.movhi r2,0xc7ff
 803d600:	d4 04 28 00 	l.sw 0x0(r4),r5
 803d604:	a8 42 ff ff 	l.ori r2,r2,0xffff
 803d608:	84 a4 00 00 	l.lwz r5,0x0(r4)
 803d60c:	e0 a5 10 03 	l.and r5,r5,r2
 803d610:	18 40 80 00 	l.movhi r2,0x8000
 803d614:	d4 04 28 00 	l.sw 0x0(r4),r5
 803d618:	a8 83 00 0c 	l.ori r4,r3,0xc
 803d61c:	84 a4 00 00 	l.lwz r5,0x0(r4)
 803d620:	e0 a5 10 04 	l.or r5,r5,r2
 803d624:	18 40 bf ff 	l.movhi r2,0xbfff
 803d628:	d4 04 28 00 	l.sw 0x0(r4),r5
 803d62c:	a8 42 ff ff 	l.ori r2,r2,0xffff
 803d630:	84 a4 00 00 	l.lwz r5,0x0(r4)
 803d634:	e0 a5 10 03 	l.and r5,r5,r2
 803d638:	18 40 c7 ff 	l.movhi r2,0xc7ff
 803d63c:	d4 04 28 00 	l.sw 0x0(r4),r5
 803d640:	a8 42 ff ff 	l.ori r2,r2,0xffff
 803d644:	84 a4 00 00 	l.lwz r5,0x0(r4)
 803d648:	e0 a5 10 03 	l.and r5,r5,r2
 803d64c:	18 40 80 00 	l.movhi r2,0x8000
 803d650:	d4 04 28 00 	l.sw 0x0(r4),r5
 803d654:	a8 83 00 10 	l.ori r4,r3,0x10
 803d658:	84 a4 00 00 	l.lwz r5,0x0(r4)
 803d65c:	e0 a5 10 04 	l.or r5,r5,r2
 803d660:	18 40 bf ff 	l.movhi r2,0xbfff
 803d664:	d4 04 28 00 	l.sw 0x0(r4),r5
 803d668:	a8 42 ff ff 	l.ori r2,r2,0xffff
 803d66c:	84 a4 00 00 	l.lwz r5,0x0(r4)
 803d670:	e0 a5 10 03 	l.and r5,r5,r2
 803d674:	18 40 c7 ff 	l.movhi r2,0xc7ff
 803d678:	d4 04 28 00 	l.sw 0x0(r4),r5
 803d67c:	a8 42 ff ff 	l.ori r2,r2,0xffff
 803d680:	84 a4 00 00 	l.lwz r5,0x0(r4)
 803d684:	e0 a5 10 03 	l.and r5,r5,r2
 803d688:	18 40 80 00 	l.movhi r2,0x8000
 803d68c:	d4 04 28 00 	l.sw 0x0(r4),r5
 803d690:	a8 83 00 04 	l.ori r4,r3,0x4
 803d694:	84 a4 00 00 	l.lwz r5,0x0(r4)
 803d698:	e0 a5 10 04 	l.or r5,r5,r2
 803d69c:	18 40 9f ff 	l.movhi r2,0x9fff
 803d6a0:	d4 04 28 00 	l.sw 0x0(r4),r5
 803d6a4:	a8 42 ff ff 	l.ori r2,r2,0xffff
 803d6a8:	84 a4 00 00 	l.lwz r5,0x0(r4)
 803d6ac:	e0 a5 10 03 	l.and r5,r5,r2
 803d6b0:	9c 40 c7 ff 	l.addi r2,r0,0xffffc7ff
 803d6b4:	d4 04 28 00 	l.sw 0x0(r4),r5
 803d6b8:	84 a4 00 00 	l.lwz r5,0x0(r4)
 803d6bc:	a8 a5 40 00 	l.ori r5,r5,0x4000
 803d6c0:	d4 04 28 00 	l.sw 0x0(r4),r5
 803d6c4:	84 a4 00 00 	l.lwz r5,0x0(r4)
 803d6c8:	e0 a5 10 03 	l.and r5,r5,r2
 803d6cc:	9c 40 f8 00 	l.addi r2,r0,0xfffff800
 803d6d0:	a8 a5 08 00 	l.ori r5,r5,0x800
 803d6d4:	d4 04 28 00 	l.sw 0x0(r4),r5
 803d6d8:	84 a4 00 00 	l.lwz r5,0x0(r4)
 803d6dc:	e0 a5 10 03 	l.and r5,r5,r2
 803d6e0:	a8 a5 04 00 	l.ori r5,r5,0x400
 803d6e4:	d4 04 28 00 	l.sw 0x0(r4),r5
 803d6e8:	84 83 00 00 	l.lwz r4,0x0(r3)
 803d6ec:	a8 84 01 00 	l.ori r4,r4,0x100
 803d6f0:	d4 03 20 00 	l.sw 0x0(r3),r4
 803d6f4:	9c 21 00 04 	l.addi r1,r1,0x4
 803d6f8:	44 00 48 00 	l.jr r9
 803d6fc:	84 41 ff fc 	l.lwz r2,0xfffffffc(r1)

0803d700 <AdcIsr>:
 803d700:	d7 e1 4f fc 	l.sw 0xfffffffc(r1),r9
 803d704:	18 60 f9 10 	l.movhi r3,0xf910
 803d708:	9c 21 ff fc 	l.addi r1,r1,0xfffffffc
 803d70c:	84 83 00 00 	l.lwz r4,0x0(r3)
 803d710:	9c a0 04 00 	l.addi r5,r0,0x400
 803d714:	a8 84 00 01 	l.ori r4,r4,0x1
 803d718:	9c c0 00 00 	l.addi r6,r0,0x0
 803d71c:	d4 03 20 00 	l.sw 0x0(r3),r4
 803d720:	9c 21 00 04 	l.addi r1,r1,0x4
 803d724:	18 60 f0 01 	l.movhi r3,0xf001
 803d728:	85 21 ff fc 	l.lwz r9,0xfffffffc(r1)
 803d72c:	00 00 0e 86 	l.j 8041144 <G711Enc>
 803d730:	18 80 95 00 	l.movhi r4,0x9500

0803d734 <DmaMemCpy_isr.clone.0>:
 803d734:	d7 e1 17 fc 	l.sw 0xfffffffc(r1),r2
 803d738:	18 c0 f1 00 	l.movhi r6,0xf100
 803d73c:	9c 21 ff fc 	l.addi r1,r1,0xfffffffc
 803d740:	84 e6 00 00 	l.lwz r7,0x0(r6)
 803d744:	a4 e7 00 01 	l.andi r7,r7,0x1
 803d748:	bc 27 00 00 	l.sfnei r7,0x0
 803d74c:	13 ff ff fd 	l.bf 803d740 <DmaMemCpy_isr.clone.0+0xc>
 803d750:	18 a0 f1 00 	l.movhi r5,0xf100
 803d754:	84 c5 00 00 	l.lwz r6,0x0(r5)
 803d758:	9c 40 ff cf 	l.addi r2,r0,0xffffffcf
 803d75c:	e0 c6 10 03 	l.and r6,r6,r2
 803d760:	d4 05 30 00 	l.sw 0x0(r5),r6
 803d764:	a8 c5 00 08 	l.ori r6,r5,0x8
 803d768:	d4 06 18 00 	l.sw 0x0(r6),r3
 803d76c:	a8 65 00 04 	l.ori r3,r5,0x4
 803d770:	d4 03 20 00 	l.sw 0x0(r3),r4
 803d774:	a8 65 00 0c 	l.ori r3,r5,0xc
 803d778:	9c 80 04 00 	l.addi r4,r0,0x400
 803d77c:	d4 03 20 00 	l.sw 0x0(r3),r4
 803d780:	84 65 00 00 	l.lwz r3,0x0(r5)
 803d784:	a8 63 00 01 	l.ori r3,r3,0x1
 803d788:	d4 05 18 00 	l.sw 0x0(r5),r3
 803d78c:	84 65 00 00 	l.lwz r3,0x0(r5)
 803d790:	a4 63 00 01 	l.andi r3,r3,0x1
 803d794:	bc 23 00 00 	l.sfnei r3,0x0
 803d798:	13 ff ff fd 	l.bf 803d78c <DmaMemCpy_isr.clone.0+0x58>
 803d79c:	15 00 00 00 	l.nop 0x0
 803d7a0:	9c 21 00 04 	l.addi r1,r1,0x4
 803d7a4:	44 00 48 00 	l.jr r9
 803d7a8:	84 41 ff fc 	l.lwz r2,0xfffffffc(r1)

0803d7ac <Aud_Isr>:
 803d7ac:	d7 e1 17 f4 	l.sw 0xfffffff4(r1),r2
 803d7b0:	d7 e1 4f fc 	l.sw 0xfffffffc(r1),r9
 803d7b4:	d7 e1 77 f8 	l.sw 0xfffffff8(r1),r14
 803d7b8:	18 40 f8 b0 	l.movhi r2,0xf8b0
 803d7bc:	18 80 00 01 	l.movhi r4,0x1
 803d7c0:	84 62 00 00 	l.lwz r3,0x0(r2)
 803d7c4:	e0 63 20 03 	l.and r3,r3,r4
 803d7c8:	bc 03 00 00 	l.sfeqi r3,0x0
 803d7cc:	10 00 00 83 	l.bf 803d9d8 <Aud_Isr+0x22c>
 803d7d0:	9c 21 ff f4 	l.addi r1,r1,0xfffffff4
 803d7d4:	84 62 00 00 	l.lwz r3,0x0(r2)
 803d7d8:	18 a0 00 02 	l.movhi r5,0x2
 803d7dc:	18 80 94 00 	l.movhi r4,0x9400
 803d7e0:	e0 63 28 04 	l.or r3,r3,r5
 803d7e4:	d4 02 18 00 	l.sw 0x0(r2),r3
 803d7e8:	18 60 04 00 	l.movhi r3,0x400
 803d7ec:	18 40 04 00 	l.movhi r2,0x400
 803d7f0:	a8 63 4d d0 	l.ori r3,r3,0x4dd0
 803d7f4:	07 ff ff d0 	l.jal 803d734 <DmaMemCpy_isr.clone.0>
 803d7f8:	a8 42 4d d0 	l.ori r2,r2,0x4dd0
 803d7fc:	84 62 04 00 	l.lwz r3,0x400(r2)
 803d800:	a8 82 00 00 	l.ori r4,r2,0x0
 803d804:	9c a0 04 00 	l.addi r5,r0,0x400
 803d808:	04 00 0e 4f 	l.jal 8041144 <G711Enc>
 803d80c:	9c c0 00 01 	l.addi r6,r0,0x1
 803d810:	84 62 04 04 	l.lwz r3,0x404(r2)
 803d814:	9c 83 02 00 	l.addi r4,r3,0x200
 803d818:	bd a4 03 1f 	l.sflesi r4,0x31f
 803d81c:	10 00 00 0c 	l.bf 803d84c <Aud_Isr+0xa0>
 803d820:	bc 23 00 00 	l.sfnei r3,0x0
 803d824:	9c 63 fe e0 	l.addi r3,r3,0xfffffee0
 803d828:	9c 80 03 20 	l.addi r4,r0,0x320
 803d82c:	d4 02 1c 08 	l.sw 0x408(r2),r3
 803d830:	84 62 04 14 	l.lwz r3,0x414(r2)
 803d834:	d4 02 24 04 	l.sw 0x404(r2),r4
 803d838:	e0 63 20 00 	l.add r3,r3,r4
 803d83c:	d4 02 1c 0c 	l.sw 0x40c(r2),r3
 803d840:	9c 60 00 01 	l.addi r3,r0,0x1
 803d844:	00 00 00 10 	l.j 803d884 <Aud_Isr+0xd8>
 803d848:	d4 02 1c 10 	l.sw 0x410(r2),r3
 803d84c:	10 00 00 0c 	l.bf 803d87c <Aud_Isr+0xd0>
 803d850:	9c c0 00 00 	l.addi r6,r0,0x0
 803d854:	d4 02 24 04 	l.sw 0x404(r2),r4
 803d858:	84 82 04 00 	l.lwz r4,0x400(r2)
 803d85c:	d4 02 1c 08 	l.sw 0x408(r2),r3
 803d860:	d4 02 24 14 	l.sw 0x414(r2),r4
 803d864:	18 80 08 08 	l.movhi r4,0x808
 803d868:	a8 84 f8 d4 	l.ori r4,r4,0xf8d4
 803d86c:	84 a4 00 00 	l.lwz r5,0x0(r4)
 803d870:	d4 04 18 00 	l.sw 0x0(r4),r3
 803d874:	00 00 00 04 	l.j 803d884 <Aud_Isr+0xd8>
 803d878:	d4 02 2c 18 	l.sw 0x418(r2),r5
 803d87c:	d4 02 24 04 	l.sw 0x404(r2),r4
 803d880:	d4 02 34 08 	l.sw 0x408(r2),r6
 803d884:	18 80 04 00 	l.movhi r4,0x400
 803d888:	a8 84 4d d0 	l.ori r4,r4,0x4dd0
 803d88c:	84 44 04 1c 	l.lwz r2,0x41c(r4)
 803d890:	9c 42 00 01 	l.addi r2,r2,0x1
 803d894:	d4 04 14 1c 	l.sw 0x41c(r4),r2
 803d898:	18 40 f0 01 	l.movhi r2,0xf001
 803d89c:	a8 42 00 00 	l.ori r2,r2,0x0
 803d8a0:	84 62 01 5c 	l.lwz r3,0x15c(r2)
 803d8a4:	bc 23 00 01 	l.sfnei r3,0x1
 803d8a8:	10 00 00 06 	l.bf 803d8c0 <Aud_Isr+0x114>
 803d8ac:	15 00 00 00 	l.nop 0x0
 803d8b0:	07 ff ff a1 	l.jal 803d734 <DmaMemCpy_isr.clone.0>
 803d8b4:	18 60 94 00 	l.movhi r3,0x9400
 803d8b8:	00 00 00 0c 	l.j 803d8e8 <Aud_Isr+0x13c>
 803d8bc:	18 40 04 00 	l.movhi r2,0x400
 803d8c0:	84 42 01 5c 	l.lwz r2,0x15c(r2)
 803d8c4:	bc 22 00 02 	l.sfnei r2,0x2
 803d8c8:	10 00 00 08 	l.bf 803d8e8 <Aud_Isr+0x13c>
 803d8cc:	18 40 04 00 	l.movhi r2,0x400
 803d8d0:	18 60 94 00 	l.movhi r3,0x9400
 803d8d4:	84 84 04 00 	l.lwz r4,0x400(r4)
 803d8d8:	9c a0 02 00 	l.addi r5,r0,0x200
 803d8dc:	04 00 0e 38 	l.jal 80411bc <G711Dec>
 803d8e0:	9c c0 00 01 	l.addi r6,r0,0x1
 803d8e4:	18 40 04 00 	l.movhi r2,0x400
 803d8e8:	a8 42 4d d0 	l.ori r2,r2,0x4dd0
 803d8ec:	85 c2 04 10 	l.lwz r14,0x410(r2)
 803d8f0:	bc 2e 00 01 	l.sfnei r14,0x1
 803d8f4:	10 00 00 25 	l.bf 803d988 <Aud_Isr+0x1dc>
 803d8f8:	15 00 00 00 	l.nop 0x0
 803d8fc:	84 62 04 14 	l.lwz r3,0x414(r2)
 803d900:	84 82 04 04 	l.lwz r4,0x404(r2)
 803d904:	04 00 cc f7 	l.jal 8070ce0 <put_audio_streams>
 803d908:	9c a0 00 00 	l.addi r5,r0,0x0
 803d90c:	18 60 f0 00 	l.movhi r3,0xf000
 803d910:	84 82 04 14 	l.lwz r4,0x414(r2)
 803d914:	a8 63 18 40 	l.ori r3,r3,0x1840
 803d918:	18 c0 00 01 	l.movhi r6,0x1
 803d91c:	d4 03 20 04 	l.sw 0x4(r3),r4
 803d920:	84 82 04 04 	l.lwz r4,0x404(r2)
 803d924:	d4 03 20 08 	l.sw 0x8(r3),r4
 803d928:	84 82 04 18 	l.lwz r4,0x418(r2)
 803d92c:	d4 03 20 0c 	l.sw 0xc(r3),r4
 803d930:	d4 03 70 00 	l.sw 0x0(r3),r14
 803d934:	18 60 f9 40 	l.movhi r3,0xf940
 803d938:	a8 83 00 c4 	l.ori r4,r3,0xc4
 803d93c:	84 a4 00 00 	l.lwz r5,0x0(r4)
 803d940:	e0 a5 30 04 	l.or r5,r5,r6
 803d944:	d4 04 28 00 	l.sw 0x0(r4),r5
 803d948:	84 83 00 00 	l.lwz r4,0x0(r3)
 803d94c:	a8 84 00 02 	l.ori r4,r4,0x2
 803d950:	d4 03 20 00 	l.sw 0x0(r3),r4
 803d954:	84 62 04 0c 	l.lwz r3,0x40c(r2)
 803d958:	d4 02 1c 14 	l.sw 0x414(r2),r3
 803d95c:	84 62 04 08 	l.lwz r3,0x408(r2)
 803d960:	d4 02 1c 04 	l.sw 0x404(r2),r3
 803d964:	18 60 08 08 	l.movhi r3,0x808
 803d968:	a8 63 f8 d4 	l.ori r3,r3,0xf8d4
 803d96c:	84 83 00 00 	l.lwz r4,0x0(r3)
 803d970:	d4 02 24 18 	l.sw 0x418(r2),r4
 803d974:	9c 80 00 00 	l.addi r4,r0,0x0
 803d978:	d4 03 20 00 	l.sw 0x0(r3),r4
 803d97c:	d4 02 24 10 	l.sw 0x410(r2),r4
 803d980:	d4 02 24 08 	l.sw 0x408(r2),r4
 803d984:	d4 02 24 0c 	l.sw 0x40c(r2),r4
 803d988:	18 40 04 00 	l.movhi r2,0x400
 803d98c:	9c 60 00 7d 	l.addi r3,r0,0x7d
 803d990:	a8 42 4d d0 	l.ori r2,r2,0x4dd0
 803d994:	84 82 04 1c 	l.lwz r4,0x41c(r2)
 803d998:	e0 64 1b 0a 	l.divu r3,r4,r3
 803d99c:	b8 a3 00 02 	l.slli r5,r3,0x2
 803d9a0:	b8 c3 00 07 	l.slli r6,r3,0x7
 803d9a4:	e0 a6 28 02 	l.sub r5,r6,r5
 803d9a8:	e0 65 18 00 	l.add r3,r5,r3
 803d9ac:	e0 64 18 02 	l.sub r3,r4,r3
 803d9b0:	bc 23 00 00 	l.sfnei r3,0x0
 803d9b4:	10 00 00 05 	l.bf 803d9c8 <Aud_Isr+0x21c>
 803d9b8:	18 80 08 66 	l.movhi r4,0x866
 803d9bc:	d4 02 1c 1c 	l.sw 0x41c(r2),r3
 803d9c0:	00 00 00 05 	l.j 803d9d4 <Aud_Isr+0x228>
 803d9c4:	d4 02 24 00 	l.sw 0x400(r2),r4
 803d9c8:	84 62 04 00 	l.lwz r3,0x400(r2)
 803d9cc:	9c 63 02 00 	l.addi r3,r3,0x200
 803d9d0:	d4 02 1c 00 	l.sw 0x400(r2),r3
 803d9d4:	18 40 f8 b0 	l.movhi r2,0xf8b0
 803d9d8:	18 a0 00 08 	l.movhi r5,0x8
 803d9dc:	84 62 00 00 	l.lwz r3,0x0(r2)
 803d9e0:	e0 63 28 03 	l.and r3,r3,r5
 803d9e4:	bc 03 00 00 	l.sfeqi r3,0x0
 803d9e8:	10 00 00 82 	l.bf 803dbf0 <Aud_Isr+0x444>
 803d9ec:	15 00 00 00 	l.nop 0x0
 803d9f0:	84 62 00 00 	l.lwz r3,0x0(r2)
 803d9f4:	18 c0 00 10 	l.movhi r6,0x10
 803d9f8:	e0 63 30 04 	l.or r3,r3,r6
 803d9fc:	d4 02 18 00 	l.sw 0x0(r2),r3
 803da00:	18 40 f0 01 	l.movhi r2,0xf001
 803da04:	9c 60 00 01 	l.addi r3,r0,0x1
 803da08:	a8 42 00 00 	l.ori r2,r2,0x0
 803da0c:	d4 02 19 58 	l.sw 0x158(r2),r3
 803da10:	84 42 01 5c 	l.lwz r2,0x15c(r2)
 803da14:	bc 02 00 04 	l.sfeqi r2,0x4
 803da18:	10 00 00 23 	l.bf 803daa4 <Aud_Isr+0x2f8>
 803da1c:	bc 02 00 05 	l.sfeqi r2,0x5
 803da20:	10 00 00 3e 	l.bf 803db18 <Aud_Isr+0x36c>
 803da24:	bc 02 00 00 	l.sfeqi r2,0x0
 803da28:	0c 00 00 59 	l.bnf 803db8c <Aud_Isr+0x3e0>
 803da2c:	18 80 f1 00 	l.movhi r4,0xf100
 803da30:	18 40 08 08 	l.movhi r2,0x808
 803da34:	19 c0 00 01 	l.movhi r14,0x1
 803da38:	a8 42 ee 58 	l.ori r2,r2,0xee58
 803da3c:	a9 ce 72 00 	l.ori r14,r14,0x7200
 803da40:	84 82 00 00 	l.lwz r4,0x0(r2)
 803da44:	e1 ce 20 02 	l.sub r14,r14,r4
 803da48:	bc ae 02 00 	l.sfleui r14,0x200
 803da4c:	10 00 00 03 	l.bf 803da58 <Aud_Isr+0x2ac>
 803da50:	15 00 00 00 	l.nop 0x0
 803da54:	9d c0 02 00 	l.addi r14,r0,0x200
 803da58:	18 40 08 00 	l.movhi r2,0x800
 803da5c:	18 60 94 00 	l.movhi r3,0x9400
 803da60:	a8 42 01 80 	l.ori r2,r2,0x180
 803da64:	a8 ae 00 00 	l.ori r5,r14,0x0
 803da68:	e0 84 10 00 	l.add r4,r4,r2
 803da6c:	18 40 08 08 	l.movhi r2,0x808
 803da70:	9c c0 00 01 	l.addi r6,r0,0x1
 803da74:	04 00 0d d2 	l.jal 80411bc <G711Dec>
 803da78:	a8 42 ee 58 	l.ori r2,r2,0xee58
 803da7c:	84 62 00 00 	l.lwz r3,0x0(r2)
 803da80:	e1 ce 18 00 	l.add r14,r14,r3
 803da84:	18 60 00 01 	l.movhi r3,0x1
 803da88:	a8 63 71 ff 	l.ori r3,r3,0x71ff
 803da8c:	e4 ae 18 00 	l.sfleu r14,r3
 803da90:	10 00 00 58 	l.bf 803dbf0 <Aud_Isr+0x444>
 803da94:	d4 02 70 00 	l.sw 0x0(r2),r14
 803da98:	9c 80 00 00 	l.addi r4,r0,0x0
 803da9c:	00 00 00 55 	l.j 803dbf0 <Aud_Isr+0x444>
 803daa0:	d4 02 20 00 	l.sw 0x0(r2),r4
 803daa4:	18 40 08 08 	l.movhi r2,0x808
 803daa8:	9d c0 1c 00 	l.addi r14,r0,0x1c00
 803daac:	a8 42 ee 58 	l.ori r2,r2,0xee58
 803dab0:	84 82 00 00 	l.lwz r4,0x0(r2)
 803dab4:	e1 ce 20 02 	l.sub r14,r14,r4
 803dab8:	bc ae 02 00 	l.sfleui r14,0x200
 803dabc:	10 00 00 03 	l.bf 803dac8 <Aud_Isr+0x31c>
 803dac0:	18 a0 08 01 	l.movhi r5,0x801
 803dac4:	9d c0 02 00 	l.addi r14,r0,0x200
 803dac8:	18 40 08 08 	l.movhi r2,0x808
 803dacc:	a8 a5 73 84 	l.ori r5,r5,0x7384
 803dad0:	18 60 94 00 	l.movhi r3,0x9400
 803dad4:	e0 84 28 00 	l.add r4,r4,r5
 803dad8:	9c c0 00 01 	l.addi r6,r0,0x1
 803dadc:	a8 ae 00 00 	l.ori r5,r14,0x0
 803dae0:	04 00 0d b7 	l.jal 80411bc <G711Dec>
 803dae4:	a8 42 ee 58 	l.ori r2,r2,0xee58
 803dae8:	84 62 00 00 	l.lwz r3,0x0(r2)
 803daec:	e1 ce 18 00 	l.add r14,r14,r3
 803daf0:	bc ae 1b ff 	l.sfleui r14,0x1bff
 803daf4:	10 00 00 3f 	l.bf 803dbf0 <Aud_Isr+0x444>
 803daf8:	d4 02 70 00 	l.sw 0x0(r2),r14
 803dafc:	18 60 f0 01 	l.movhi r3,0xf001
 803db00:	9c 80 00 06 	l.addi r4,r0,0x6
 803db04:	a8 63 00 00 	l.ori r3,r3,0x0
 803db08:	9c c0 00 00 	l.addi r6,r0,0x0
 803db0c:	d4 03 21 5c 	l.sw 0x15c(r3),r4
 803db10:	00 00 00 38 	l.j 803dbf0 <Aud_Isr+0x444>
 803db14:	d4 02 30 00 	l.sw 0x0(r2),r6
 803db18:	18 40 08 08 	l.movhi r2,0x808
 803db1c:	9d c0 10 00 	l.addi r14,r0,0x1000
 803db20:	a8 42 ee 58 	l.ori r2,r2,0xee58
 803db24:	84 82 00 00 	l.lwz r4,0x0(r2)
 803db28:	e1 ce 20 02 	l.sub r14,r14,r4
 803db2c:	bc ae 02 00 	l.sfleui r14,0x200
 803db30:	10 00 00 03 	l.bf 803db3c <Aud_Isr+0x390>
 803db34:	15 00 00 00 	l.nop 0x0
 803db38:	9d c0 02 00 	l.addi r14,r0,0x200
 803db3c:	18 40 08 01 	l.movhi r2,0x801
 803db40:	18 60 94 00 	l.movhi r3,0x9400
 803db44:	a8 42 8f 88 	l.ori r2,r2,0x8f88
 803db48:	a8 ae 00 00 	l.ori r5,r14,0x0
 803db4c:	e0 84 10 00 	l.add r4,r4,r2
 803db50:	18 40 08 08 	l.movhi r2,0x808
 803db54:	9c c0 00 01 	l.addi r6,r0,0x1
 803db58:	04 00 0d 99 	l.jal 80411bc <G711Dec>
 803db5c:	a8 42 ee 58 	l.ori r2,r2,0xee58
 803db60:	84 62 00 00 	l.lwz r3,0x0(r2)
 803db64:	e1 ce 18 00 	l.add r14,r14,r3
 803db68:	bc ae 0f ff 	l.sfleui r14,0xfff
 803db6c:	10 00 00 21 	l.bf 803dbf0 <Aud_Isr+0x444>
 803db70:	d4 02 70 00 	l.sw 0x0(r2),r14
 803db74:	18 60 f0 01 	l.movhi r3,0xf001
 803db78:	9c 80 00 06 	l.addi r4,r0,0x6
 803db7c:	a8 63 00 00 	l.ori r3,r3,0x0
 803db80:	d4 03 21 5c 	l.sw 0x15c(r3),r4
 803db84:	00 00 00 1a 	l.j 803dbec <Aud_Isr+0x440>
 803db88:	9c 60 00 00 	l.addi r3,r0,0x0
 803db8c:	84 64 00 00 	l.lwz r3,0x0(r4)
 803db90:	a4 63 00 01 	l.andi r3,r3,0x1
 803db94:	bc 23 00 00 	l.sfnei r3,0x0
 803db98:	13 ff ff fd 	l.bf 803db8c <Aud_Isr+0x3e0>
 803db9c:	18 40 f1 00 	l.movhi r2,0xf100
 803dba0:	84 82 00 00 	l.lwz r4,0x0(r2)
 803dba4:	9c a0 ff cf 	l.addi r5,r0,0xffffffcf
 803dba8:	e0 84 28 03 	l.and r4,r4,r5
 803dbac:	18 a0 94 00 	l.movhi r5,0x9400
 803dbb0:	d4 02 20 00 	l.sw 0x0(r2),r4
 803dbb4:	a8 82 00 08 	l.ori r4,r2,0x8
 803dbb8:	d4 04 28 00 	l.sw 0x0(r4),r5
 803dbbc:	18 a0 08 08 	l.movhi r5,0x808
 803dbc0:	a8 82 00 04 	l.ori r4,r2,0x4
 803dbc4:	a8 a5 ee 5c 	l.ori r5,r5,0xee5c
 803dbc8:	d4 04 28 00 	l.sw 0x0(r4),r5
 803dbcc:	a8 82 00 0c 	l.ori r4,r2,0xc
 803dbd0:	9c a0 04 00 	l.addi r5,r0,0x400
 803dbd4:	d4 04 28 00 	l.sw 0x0(r4),r5
 803dbd8:	84 82 00 00 	l.lwz r4,0x0(r2)
 803dbdc:	a8 84 00 01 	l.ori r4,r4,0x1
 803dbe0:	d4 02 20 00 	l.sw 0x0(r2),r4
 803dbe4:	18 40 08 08 	l.movhi r2,0x808
 803dbe8:	a8 42 ee 58 	l.ori r2,r2,0xee58
 803dbec:	d4 02 18 00 	l.sw 0x0(r2),r3
 803dbf0:	9c 21 00 0c 	l.addi r1,r1,0xc
 803dbf4:	85 21 ff fc 	l.lwz r9,0xfffffffc(r1)
 803dbf8:	84 41 ff f4 	l.lwz r2,0xfffffff4(r1)
 803dbfc:	44 00 48 00 	l.jr r9
 803dc00:	85 c1 ff f8 	l.lwz r14,0xfffffff8(r1)

0803dc04 <hw_wait_us>:
 803dc04:	9c 80 00 c7 	l.addi r4,r0,0xc7
 803dc08:	e0 63 23 06 	l.mul r3,r3,r4
 803dc0c:	9c 80 76 00 	l.addi r4,r0,0x7600
 803dc10:	b4 a4 00 00 	l.mfspr r5,r4,0x0
 803dc14:	a8 e4 00 00 	l.ori r7,r4,0x0
 803dc18:	b4 c7 00 00 	l.mfspr r6,r7,0x0
 803dc1c:	e4 66 28 00 	l.sfgeu r6,r5
 803dc20:	10 00 00 03 	l.bf 803dc2c <hw_wait_us+0x28>
 803dc24:	e0 86 28 02 	l.sub r4,r6,r5
 803dc28:	e0 80 20 02 	l.sub r4,r0,r4
 803dc2c:	e4 84 18 00 	l.sfltu r4,r3
 803dc30:	13 ff ff fa 	l.bf 803dc18 <hw_wait_us+0x14>
 803dc34:	15 00 00 00 	l.nop 0x0
 803dc38:	44 00 48 00 	l.jr r9
 803dc3c:	15 00 00 00 	l.nop 0x0

0803dc40 <CpuIdGet>:
 803dc40:	18 60 f9 40 	l.movhi r3,0xf940
 803dc44:	85 63 00 00 	l.lwz r11,0x0(r3)
 803dc48:	b9 6b 00 44 	l.srli r11,r11,0x4
 803dc4c:	44 00 48 00 	l.jr r9
 803dc50:	a5 6b 00 03 	l.andi r11,r11,0x3

0803dc54 <GetKey>:
 803dc54:	d7 e1 17 fc 	l.sw 0xfffffffc(r1),r2
 803dc58:	18 40 f9 40 	l.movhi r2,0xf940
 803dc5c:	9c 21 ff fc 	l.addi r1,r1,0xfffffffc
 803dc60:	a8 42 00 40 	l.ori r2,r2,0x40
 803dc64:	e0 63 10 00 	l.add r3,r3,r2
 803dc68:	85 63 00 00 	l.lwz r11,0x0(r3)
 803dc6c:	9c 21 00 04 	l.addi r1,r1,0x4
 803dc70:	a5 6b 00 ff 	l.andi r11,r11,0xff
 803dc74:	44 00 48 00 	l.jr r9
 803dc78:	84 41 ff fc 	l.lwz r2,0xfffffffc(r1)

0803dc7c <ReleaseKey>:
 803dc7c:	d7 e1 17 fc 	l.sw 0xfffffffc(r1),r2
 803dc80:	18 40 f9 40 	l.movhi r2,0xf940
 803dc84:	9c 21 ff fc 	l.addi r1,r1,0xfffffffc
 803dc88:	a8 42 00 40 	l.ori r2,r2,0x40
 803dc8c:	e0 63 10 00 	l.add r3,r3,r2
 803dc90:	9c 40 00 00 	l.addi r2,r0,0x0
 803dc94:	d4 03 10 00 	l.sw 0x0(r3),r2
 803dc98:	9c 21 00 04 	l.addi r1,r1,0x4
 803dc9c:	44 00 48 00 	l.jr r9
 803dca0:	84 41 ff fc 	l.lwz r2,0xfffffffc(r1)

0803dca4 <WaitXus>:
 803dca4:	d7 e1 4f fc 	l.sw 0xfffffffc(r1),r9
 803dca8:	9c 21 ff fc 	l.addi r1,r1,0xfffffffc
 803dcac:	9c 21 00 04 	l.addi r1,r1,0x4
 803dcb0:	85 21 ff fc 	l.lwz r9,0xfffffffc(r1)
 803dcb4:	03 ff ff d4 	l.j 803dc04 <hw_wait_us>
 803dcb8:	15 00 00 00 	l.nop 0x0

0803dcbc <WaitXms>:
 803dcbc:	9c 80 03 e8 	l.addi r4,r0,0x3e8
 803dcc0:	d7 e1 4f fc 	l.sw 0xfffffffc(r1),r9
 803dcc4:	9c 21 ff fc 	l.addi r1,r1,0xfffffffc
 803dcc8:	9c 21 00 04 	l.addi r1,r1,0x4
 803dccc:	85 21 ff fc 	l.lwz r9,0xfffffffc(r1)
 803dcd0:	03 ff ff cd 	l.j 803dc04 <hw_wait_us>
 803dcd4:	e0 63 23 06 	l.mul r3,r3,r4

0803dcd8 <DmaMemCpy_isr_async>:
 803dcd8:	d7 e1 17 fc 	l.sw 0xfffffffc(r1),r2
 803dcdc:	18 e0 f1 00 	l.movhi r7,0xf100
 803dce0:	9c 21 ff fc 	l.addi r1,r1,0xfffffffc
 803dce4:	85 07 00 00 	l.lwz r8,0x0(r7)
 803dce8:	a5 08 00 01 	l.andi r8,r8,0x1
 803dcec:	bc 28 00 00 	l.sfnei r8,0x0
 803dcf0:	13 ff ff fd 	l.bf 803dce4 <DmaMemCpy_isr_async+0xc>
 803dcf4:	18 c0 f1 00 	l.movhi r6,0xf100
 803dcf8:	84 e6 00 00 	l.lwz r7,0x0(r6)
 803dcfc:	9c 40 ff cf 	l.addi r2,r0,0xffffffcf
 803dd00:	e0 e7 10 03 	l.and r7,r7,r2
 803dd04:	d4 06 38 00 	l.sw 0x0(r6),r7
 803dd08:	a8 e6 00 08 	l.ori r7,r6,0x8
 803dd0c:	d4 07 18 00 	l.sw 0x0(r7),r3
 803dd10:	a8 66 00 04 	l.ori r3,r6,0x4
 803dd14:	d4 03 20 00 	l.sw 0x0(r3),r4
 803dd18:	a8 66 00 0c 	l.ori r3,r6,0xc
 803dd1c:	d4 03 28 00 	l.sw 0x0(r3),r5
 803dd20:	84 66 00 00 	l.lwz r3,0x0(r6)
 803dd24:	a8 63 00 01 	l.ori r3,r3,0x1
 803dd28:	d4 06 18 00 	l.sw 0x0(r6),r3
 803dd2c:	9c 21 00 04 	l.addi r1,r1,0x4
 803dd30:	44 00 48 00 	l.jr r9
 803dd34:	84 41 ff fc 	l.lwz r2,0xfffffffc(r1)

0803dd38 <DmaMemCpy_isr>:
 803dd38:	d7 e1 17 fc 	l.sw 0xfffffffc(r1),r2
 803dd3c:	18 e0 f1 00 	l.movhi r7,0xf100
 803dd40:	9c 21 ff fc 	l.addi r1,r1,0xfffffffc
 803dd44:	85 07 00 00 	l.lwz r8,0x0(r7)
 803dd48:	a5 08 00 01 	l.andi r8,r8,0x1
 803dd4c:	bc 28 00 00 	l.sfnei r8,0x0
 803dd50:	13 ff ff fd 	l.bf 803dd44 <DmaMemCpy_isr+0xc>
 803dd54:	18 c0 f1 00 	l.movhi r6,0xf100
 803dd58:	84 e6 00 00 	l.lwz r7,0x0(r6)
 803dd5c:	9c 40 ff cf 	l.addi r2,r0,0xffffffcf
 803dd60:	e0 e7 10 03 	l.and r7,r7,r2
 803dd64:	d4 06 38 00 	l.sw 0x0(r6),r7
 803dd68:	a8 e6 00 08 	l.ori r7,r6,0x8
 803dd6c:	d4 07 18 00 	l.sw 0x0(r7),r3
 803dd70:	a8 66 00 04 	l.ori r3,r6,0x4
 803dd74:	d4 03 20 00 	l.sw 0x0(r3),r4
 803dd78:	a8 66 00 0c 	l.ori r3,r6,0xc
 803dd7c:	d4 03 28 00 	l.sw 0x0(r3),r5
 803dd80:	84 66 00 00 	l.lwz r3,0x0(r6)
 803dd84:	a8 63 00 01 	l.ori r3,r3,0x1
 803dd88:	d4 06 18 00 	l.sw 0x0(r6),r3
 803dd8c:	84 66 00 00 	l.lwz r3,0x0(r6)
 803dd90:	a4 63 00 01 	l.andi r3,r3,0x1
 803dd94:	bc 23 00 00 	l.sfnei r3,0x0
 803dd98:	13 ff ff fd 	l.bf 803dd8c <DmaMemCpy_isr+0x54>
 803dd9c:	15 00 00 00 	l.nop 0x0
 803dda0:	9c 21 00 04 	l.addi r1,r1,0x4
 803dda4:	44 00 48 00 	l.jr r9
 803dda8:	84 41 ff fc 	l.lwz r2,0xfffffffc(r1)

0803ddac <Uart0_Tx.clone.0>:
 803ddac:	d7 e1 17 fc 	l.sw 0xfffffffc(r1),r2
 803ddb0:	18 60 f8 00 	l.movhi r3,0xf800
 803ddb4:	9c 21 ff fc 	l.addi r1,r1,0xfffffffc
 803ddb8:	84 83 00 00 	l.lwz r4,0x0(r3)
 803ddbc:	a4 84 00 20 	l.andi r4,r4,0x20
 803ddc0:	bc 24 00 00 	l.sfnei r4,0x0
 803ddc4:	13 ff ff fd 	l.bf 803ddb8 <Uart0_Tx.clone.0+0xc>
 803ddc8:	9c 40 00 4f 	l.addi r2,r0,0x4f
 803ddcc:	18 60 f8 00 	l.movhi r3,0xf800
 803ddd0:	a8 63 00 04 	l.ori r3,r3,0x4
 803ddd4:	d8 03 10 02 	l.sb 0x2(r3),r2
 803ddd8:	9c 21 00 04 	l.addi r1,r1,0x4
 803dddc:	44 00 48 00 	l.jr r9
 803dde0:	84 41 ff fc 	l.lwz r2,0xfffffffc(r1)

0803dde4 <DmaMemCpy_ip_async>:
 803dde4:	d7 e1 4f fc 	l.sw 0xfffffffc(r1),r9
 803dde8:	d7 e1 17 ec 	l.sw 0xffffffec(r1),r2
 803ddec:	d7 e1 77 f0 	l.sw 0xfffffff0(r1),r14
 803ddf0:	d7 e1 87 f4 	l.sw 0xfffffff4(r1),r16
 803ddf4:	d7 e1 97 f8 	l.sw 0xfffffff8(r1),r18
 803ddf8:	aa 03 00 00 	l.ori r16,r3,0x0
 803ddfc:	9c 21 ff ec 	l.addi r1,r1,0xffffffec
 803de00:	a9 c4 00 00 	l.ori r14,r4,0x0
 803de04:	a8 45 00 00 	l.ori r2,r5,0x0
 803de08:	9c 60 00 1f 	l.addi r3,r0,0x1f
 803de0c:	b4 63 00 00 	l.mfspr r3,r3,0x0
 803de10:	bc a5 08 00 	l.sfleui r5,0x800
 803de14:	10 00 00 19 	l.bf 803de78 <DmaMemCpy_ip_async+0x94>
 803de18:	e0 70 20 04 	l.or r3,r16,r4
 803de1c:	a4 63 00 03 	l.andi r3,r3,0x3
 803de20:	bc 03 00 00 	l.sfeqi r3,0x0
 803de24:	10 00 00 16 	l.bf 803de7c <DmaMemCpy_ip_async+0x98>
 803de28:	a8 70 00 00 	l.ori r3,r16,0x0
 803de2c:	9e 40 00 00 	l.addi r18,r0,0x0
 803de30:	e0 70 90 00 	l.add r3,r16,r18
 803de34:	e0 8e 90 00 	l.add r4,r14,r18
 803de38:	9c a0 08 00 	l.addi r5,r0,0x800
 803de3c:	07 ff ff bf 	l.jal 803dd38 <DmaMemCpy_isr>
 803de40:	9e 52 08 00 	l.addi r18,r18,0x800
 803de44:	e0 62 90 02 	l.sub r3,r2,r18
 803de48:	bc 43 08 00 	l.sfgtui r3,0x800
 803de4c:	13 ff ff f9 	l.bf 803de30 <DmaMemCpy_ip_async+0x4c>
 803de50:	9c a2 f7 ff 	l.addi r5,r2,0xfffff7ff
 803de54:	9c 60 f8 00 	l.addi r3,r0,0xfffff800
 803de58:	9c 8e 08 00 	l.addi r4,r14,0x800
 803de5c:	e0 a5 18 03 	l.and r5,r5,r3
 803de60:	9c 42 f8 00 	l.addi r2,r2,0xfffff800
 803de64:	9c 70 08 00 	l.addi r3,r16,0x800
 803de68:	e0 84 28 00 	l.add r4,r4,r5
 803de6c:	e0 63 28 00 	l.add r3,r3,r5
 803de70:	00 00 00 05 	l.j 803de84 <DmaMemCpy_ip_async+0xa0>
 803de74:	e0 a2 28 02 	l.sub r5,r2,r5
 803de78:	a8 70 00 00 	l.ori r3,r16,0x0
 803de7c:	a8 8e 00 00 	l.ori r4,r14,0x0
 803de80:	a8 a2 00 00 	l.ori r5,r2,0x0
 803de84:	07 ff ff 95 	l.jal 803dcd8 <DmaMemCpy_isr_async>
 803de88:	9c 40 00 1f 	l.addi r2,r0,0x1f
 803de8c:	9c 60 00 00 	l.addi r3,r0,0x0
 803de90:	c0 02 18 00 	l.mtspr r2,r3,0x0
 803de94:	9c 21 00 14 	l.addi r1,r1,0x14
 803de98:	85 21 ff fc 	l.lwz r9,0xfffffffc(r1)
 803de9c:	84 41 ff ec 	l.lwz r2,0xffffffec(r1)
 803dea0:	85 c1 ff f0 	l.lwz r14,0xfffffff0(r1)
 803dea4:	86 01 ff f4 	l.lwz r16,0xfffffff4(r1)
 803dea8:	44 00 48 00 	l.jr r9
 803deac:	86 41 ff f8 	l.lwz r18,0xfffffff8(r1)

0803deb0 <DmaMemCpy_ip>:
 803deb0:	d7 e1 4f fc 	l.sw 0xfffffffc(r1),r9
 803deb4:	d7 e1 17 ec 	l.sw 0xffffffec(r1),r2
 803deb8:	d7 e1 77 f0 	l.sw 0xfffffff0(r1),r14
 803debc:	d7 e1 87 f4 	l.sw 0xfffffff4(r1),r16
 803dec0:	d7 e1 97 f8 	l.sw 0xfffffff8(r1),r18
 803dec4:	aa 03 00 00 	l.ori r16,r3,0x0
 803dec8:	9c 21 ff ec 	l.addi r1,r1,0xffffffec
 803decc:	a9 c4 00 00 	l.ori r14,r4,0x0
 803ded0:	a8 45 00 00 	l.ori r2,r5,0x0
 803ded4:	9c 60 00 1f 	l.addi r3,r0,0x1f
 803ded8:	b4 63 00 00 	l.mfspr r3,r3,0x0
 803dedc:	bc a5 08 00 	l.sfleui r5,0x800
 803dee0:	10 00 00 19 	l.bf 803df44 <DmaMemCpy_ip+0x94>
 803dee4:	e0 70 20 04 	l.or r3,r16,r4
 803dee8:	a4 63 00 03 	l.andi r3,r3,0x3
 803deec:	bc 03 00 00 	l.sfeqi r3,0x0
 803def0:	10 00 00 16 	l.bf 803df48 <DmaMemCpy_ip+0x98>
 803def4:	a8 70 00 00 	l.ori r3,r16,0x0
 803def8:	9e 40 00 00 	l.addi r18,r0,0x0
 803defc:	e0 70 90 00 	l.add r3,r16,r18
 803df00:	e0 8e 90 00 	l.add r4,r14,r18
 803df04:	9c a0 08 00 	l.addi r5,r0,0x800
 803df08:	07 ff ff 8c 	l.jal 803dd38 <DmaMemCpy_isr>
 803df0c:	9e 52 08 00 	l.addi r18,r18,0x800
 803df10:	e0 62 90 02 	l.sub r3,r2,r18
 803df14:	bc 43 08 00 	l.sfgtui r3,0x800
 803df18:	13 ff ff f9 	l.bf 803defc <DmaMemCpy_ip+0x4c>
 803df1c:	9c 82 f7 ff 	l.addi r4,r2,0xfffff7ff
 803df20:	9c 60 f8 00 	l.addi r3,r0,0xfffff800
 803df24:	9d ce 08 00 	l.addi r14,r14,0x800
 803df28:	e0 84 18 03 	l.and r4,r4,r3
 803df2c:	9c 42 f8 00 	l.addi r2,r2,0xfffff800
 803df30:	9c 70 08 00 	l.addi r3,r16,0x800
 803df34:	e0 42 20 02 	l.sub r2,r2,r4
 803df38:	e0 63 20 00 	l.add r3,r3,r4
 803df3c:	00 00 00 04 	l.j 803df4c <DmaMemCpy_ip+0x9c>
 803df40:	e0 8e 20 00 	l.add r4,r14,r4
 803df44:	a8 70 00 00 	l.ori r3,r16,0x0
 803df48:	a8 8e 00 00 	l.ori r4,r14,0x0
 803df4c:	07 ff ff 63 	l.jal 803dcd8 <DmaMemCpy_isr_async>
 803df50:	a8 a2 00 00 	l.ori r5,r2,0x0
 803df54:	9c 80 00 00 	l.addi r4,r0,0x0
 803df58:	9c 60 00 1f 	l.addi r3,r0,0x1f
 803df5c:	c0 03 20 00 	l.mtspr r3,r4,0x0
 803df60:	bc 02 00 00 	l.sfeqi r2,0x0
 803df64:	10 00 00 07 	l.bf 803df80 <DmaMemCpy_ip+0xd0>
 803df68:	18 40 f1 00 	l.movhi r2,0xf100
 803df6c:	84 62 00 00 	l.lwz r3,0x0(r2)
 803df70:	a4 63 00 01 	l.andi r3,r3,0x1
 803df74:	bc 23 00 00 	l.sfnei r3,0x0
 803df78:	13 ff ff fd 	l.bf 803df6c <DmaMemCpy_ip+0xbc>
 803df7c:	15 00 00 00 	l.nop 0x0
 803df80:	9c 21 00 14 	l.addi r1,r1,0x14
 803df84:	85 21 ff fc 	l.lwz r9,0xfffffffc(r1)
 803df88:	84 41 ff ec 	l.lwz r2,0xffffffec(r1)
 803df8c:	85 c1 ff f0 	l.lwz r14,0xfffffff0(r1)
 803df90:	86 01 ff f4 	l.lwz r16,0xfffffff4(r1)
 803df94:	44 00 48 00 	l.jr r9
 803df98:	86 41 ff f8 	l.lwz r18,0xfffffff8(r1)

0803df9c <DmaEthTxCpy_async>:
 803df9c:	d7 e1 17 f0 	l.sw 0xfffffff0(r1),r2
 803dfa0:	18 40 f9 40 	l.movhi r2,0xf940
 803dfa4:	d7 e1 77 f4 	l.sw 0xfffffff4(r1),r14
 803dfa8:	d7 e1 87 f8 	l.sw 0xfffffff8(r1),r16
 803dfac:	d7 e1 4f fc 	l.sw 0xfffffffc(r1),r9
 803dfb0:	aa 03 00 00 	l.ori r16,r3,0x0
 803dfb4:	9c 21 ff f0 	l.addi r1,r1,0xfffffff0
 803dfb8:	a9 c4 00 00 	l.ori r14,r4,0x0
 803dfbc:	a8 42 00 48 	l.ori r2,r2,0x48
 803dfc0:	84 62 00 00 	l.lwz r3,0x0(r2)
 803dfc4:	bc 23 00 00 	l.sfnei r3,0x0
 803dfc8:	13 ff ff fe 	l.bf 803dfc0 <DmaEthTxCpy_async+0x24>
 803dfcc:	15 00 00 00 	l.nop 0x0
 803dfd0:	18 40 f8 c0 	l.movhi r2,0xf8c0
 803dfd4:	a8 42 00 34 	l.ori r2,r2,0x34
 803dfd8:	84 62 00 00 	l.lwz r3,0x0(r2)
 803dfdc:	a4 63 00 01 	l.andi r3,r3,0x1
 803dfe0:	bc 23 00 00 	l.sfnei r3,0x0
 803dfe4:	13 ff ff fd 	l.bf 803dfd8 <DmaEthTxCpy_async+0x3c>
 803dfe8:	15 00 00 00 	l.nop 0x0
 803dfec:	18 40 f0 00 	l.movhi r2,0xf000
 803dff0:	a8 42 00 00 	l.ori r2,r2,0x0
 803dff4:	84 62 00 00 	l.lwz r3,0x0(r2)
 803dff8:	bc 23 00 00 	l.sfnei r3,0x0
 803dffc:	10 00 00 0a 	l.bf 803e024 <DmaEthTxCpy_async+0x88>
 803e000:	15 00 00 00 	l.nop 0x0
 803e004:	00 00 00 14 	l.j 803e054 <DmaEthTxCpy_async+0xb8>
 803e008:	9c 40 00 1f 	l.addi r2,r0,0x1f
 803e00c:	84 62 00 04 	l.lwz r3,0x4(r2)
 803e010:	bc 03 00 01 	l.sfeqi r3,0x1
 803e014:	10 00 00 0a 	l.bf 803e03c <DmaEthTxCpy_async+0xa0>
 803e018:	15 00 00 00 	l.nop 0x0
 803e01c:	07 ff ff 22 	l.jal 803dca4 <WaitXus>
 803e020:	9c 60 00 01 	l.addi r3,r0,0x1
 803e024:	84 c2 00 00 	l.lwz r6,0x0(r2)
 803e028:	9c 66 ff ff 	l.addi r3,r6,0xffffffff
 803e02c:	bc 26 00 00 	l.sfnei r6,0x0
 803e030:	d4 02 18 00 	l.sw 0x0(r2),r3
 803e034:	13 ff ff f6 	l.bf 803e00c <DmaEthTxCpy_async+0x70>
 803e038:	15 00 00 00 	l.nop 0x0
 803e03c:	18 40 f0 00 	l.movhi r2,0xf000
 803e040:	9c 60 00 00 	l.addi r3,r0,0x0
 803e044:	a8 42 00 00 	l.ori r2,r2,0x0
 803e048:	d4 02 18 04 	l.sw 0x4(r2),r3
 803e04c:	d4 02 18 00 	l.sw 0x0(r2),r3
 803e050:	9c 40 00 1f 	l.addi r2,r0,0x1f
 803e054:	b4 42 00 00 	l.mfspr r2,r2,0x0
 803e058:	18 40 f0 01 	l.movhi r2,0xf001
 803e05c:	18 60 91 00 	l.movhi r3,0x9100
 803e060:	a8 90 00 00 	l.ori r4,r16,0x0
 803e064:	a8 ae 00 00 	l.ori r5,r14,0x0
 803e068:	07 ff ff 1c 	l.jal 803dcd8 <DmaMemCpy_isr_async>
 803e06c:	a8 42 4d 38 	l.ori r2,r2,0x4d38
 803e070:	84 42 00 04 	l.lwz r2,0x4(r2)
 803e074:	bc 22 00 01 	l.sfnei r2,0x1
 803e078:	10 00 00 05 	l.bf 803e08c <DmaEthTxCpy_async+0xf0>
 803e07c:	9c 60 00 00 	l.addi r3,r0,0x0
 803e080:	07 ff ff 4b 	l.jal 803ddac <Uart0_Tx.clone.0>
 803e084:	15 00 00 00 	l.nop 0x0
 803e088:	9c 60 00 00 	l.addi r3,r0,0x0
 803e08c:	9c 40 00 1f 	l.addi r2,r0,0x1f
 803e090:	c0 02 18 00 	l.mtspr r2,r3,0x0
 803e094:	18 40 f9 40 	l.movhi r2,0xf940
 803e098:	a8 42 00 48 	l.ori r2,r2,0x48
 803e09c:	d4 02 18 00 	l.sw 0x0(r2),r3
 803e0a0:	9c 21 00 10 	l.addi r1,r1,0x10
 803e0a4:	85 21 ff fc 	l.lwz r9,0xfffffffc(r1)
 803e0a8:	84 41 ff f0 	l.lwz r2,0xfffffff0(r1)
 803e0ac:	85 c1 ff f4 	l.lwz r14,0xfffffff4(r1)
 803e0b0:	44 00 48 00 	l.jr r9
 803e0b4:	86 01 ff f8 	l.lwz r16,0xfffffff8(r1)

0803e0b8 <DmaEthTxCpy>:
 803e0b8:	d7 e1 17 f0 	l.sw 0xfffffff0(r1),r2
 803e0bc:	18 40 f9 40 	l.movhi r2,0xf940
 803e0c0:	d7 e1 77 f4 	l.sw 0xfffffff4(r1),r14
 803e0c4:	d7 e1 87 f8 	l.sw 0xfffffff8(r1),r16
 803e0c8:	d7 e1 4f fc 	l.sw 0xfffffffc(r1),r9
 803e0cc:	aa 03 00 00 	l.ori r16,r3,0x0
 803e0d0:	9c 21 ff f0 	l.addi r1,r1,0xfffffff0
 803e0d4:	a9 c4 00 00 	l.ori r14,r4,0x0
 803e0d8:	a8 42 00 48 	l.ori r2,r2,0x48
 803e0dc:	84 62 00 00 	l.lwz r3,0x0(r2)
 803e0e0:	bc 23 00 00 	l.sfnei r3,0x0
 803e0e4:	13 ff ff fe 	l.bf 803e0dc <DmaEthTxCpy+0x24>
 803e0e8:	15 00 00 00 	l.nop 0x0
 803e0ec:	18 40 f8 c0 	l.movhi r2,0xf8c0
 803e0f0:	a8 42 00 34 	l.ori r2,r2,0x34
 803e0f4:	84 62 00 00 	l.lwz r3,0x0(r2)
 803e0f8:	a4 63 00 01 	l.andi r3,r3,0x1
 803e0fc:	bc 23 00 00 	l.sfnei r3,0x0
 803e100:	13 ff ff fd 	l.bf 803e0f4 <DmaEthTxCpy+0x3c>
 803e104:	15 00 00 00 	l.nop 0x0
 803e108:	18 40 f0 00 	l.movhi r2,0xf000
 803e10c:	a8 42 00 00 	l.ori r2,r2,0x0
 803e110:	84 62 00 00 	l.lwz r3,0x0(r2)
 803e114:	bc 23 00 00 	l.sfnei r3,0x0
 803e118:	10 00 00 0a 	l.bf 803e140 <DmaEthTxCpy+0x88>
 803e11c:	15 00 00 00 	l.nop 0x0
 803e120:	00 00 00 14 	l.j 803e170 <DmaEthTxCpy+0xb8>
 803e124:	9c 40 00 1f 	l.addi r2,r0,0x1f
 803e128:	84 62 00 04 	l.lwz r3,0x4(r2)
 803e12c:	bc 03 00 01 	l.sfeqi r3,0x1
 803e130:	10 00 00 0a 	l.bf 803e158 <DmaEthTxCpy+0xa0>
 803e134:	15 00 00 00 	l.nop 0x0
 803e138:	07 ff fe db 	l.jal 803dca4 <WaitXus>
 803e13c:	9c 60 00 01 	l.addi r3,r0,0x1
 803e140:	84 c2 00 00 	l.lwz r6,0x0(r2)
 803e144:	9c 66 ff ff 	l.addi r3,r6,0xffffffff
 803e148:	bc 26 00 00 	l.sfnei r6,0x0
 803e14c:	d4 02 18 00 	l.sw 0x0(r2),r3
 803e150:	13 ff ff f6 	l.bf 803e128 <DmaEthTxCpy+0x70>
 803e154:	15 00 00 00 	l.nop 0x0
 803e158:	18 40 f0 00 	l.movhi r2,0xf000
 803e15c:	9c 60 00 00 	l.addi r3,r0,0x0
 803e160:	a8 42 00 00 	l.ori r2,r2,0x0
 803e164:	d4 02 18 04 	l.sw 0x4(r2),r3
 803e168:	d4 02 18 00 	l.sw 0x0(r2),r3
 803e16c:	9c 40 00 1f 	l.addi r2,r0,0x1f
 803e170:	b4 42 00 00 	l.mfspr r2,r2,0x0
 803e174:	18 40 f0 01 	l.movhi r2,0xf001
 803e178:	18 60 91 00 	l.movhi r3,0x9100
 803e17c:	a8 90 00 00 	l.ori r4,r16,0x0
 803e180:	a8 ae 00 00 	l.ori r5,r14,0x0
 803e184:	07 ff fe d5 	l.jal 803dcd8 <DmaMemCpy_isr_async>
 803e188:	a8 42 4d 38 	l.ori r2,r2,0x4d38
 803e18c:	84 42 00 04 	l.lwz r2,0x4(r2)
 803e190:	bc 22 00 01 	l.sfnei r2,0x1
 803e194:	10 00 00 05 	l.bf 803e1a8 <DmaEthTxCpy+0xf0>
 803e198:	9c 60 00 00 	l.addi r3,r0,0x0
 803e19c:	07 ff ff 04 	l.jal 803ddac <Uart0_Tx.clone.0>
 803e1a0:	15 00 00 00 	l.nop 0x0
 803e1a4:	9c 60 00 00 	l.addi r3,r0,0x0
 803e1a8:	9c 40 00 1f 	l.addi r2,r0,0x1f
 803e1ac:	c0 02 18 00 	l.mtspr r2,r3,0x0
 803e1b0:	18 60 f1 00 	l.movhi r3,0xf100
